Certificate:
    Data:
        Version: 3 (0x2)
        Serial Number: 3 (0x3)
        Signature Algorithm: sha384WithRSAEncryption
        Issuer: C=CA, O=SELF, OU=SELF, CN=SELF Root CA
        Validity
            Not Before: Sep  8 18:09:16 2024 GMT
            Not After : Sep  8 18:09:16 2034 GMT
        Subject: C=CA, O=SELF, OU=SELF, CN=SELF AUTH CA
        Subject Public Key Info:
            Public Key Algorithm: rsaEncryption
                Public-Key: (4096 bit)
                Modulus:
                    00:e1:48:90:5f:ad:23:ce:6d:15:62:29:90:1d:a1:
                    77:3b:03:f5:5b:7d:5d:99:ef:5a:54:57:0e:c2:ce:
                    08:c9:21:22:0c:50:ce:b8:50:82:8e:1e:d6:92:8e:
                    03:1f:99:9e:86:d4:b6:68:eb:8a:8a:02:05:e1:c6:
                    6b:41:e8:c7:93:f1:e3:31:2f:34:f6:e6:3a:50:50:
                    e8:0a:38:36:89:63:7a:7e:68:5e:c0:fb:6c:70:29:
                    fc:dc:c2:8f:63:44:9a:fa:a8:13:03:f2:ea:35:ab:
                    f8:6f:57:9f:d7:38:f5:7a:3d:6c:56:7f:77:5b:8a:
                    43:14:8e:7f:0e:07:6e:c3:fe:ea:da:0a:92:d3:be:
                    b6:7c:3f:54:6d:c0:44:d2:91:00:c1:90:81:09:85:
                    fc:71:0c:f4:6e:6e:e6:1c:e6:47:01:9e:75:80:41:
                    3a:41:c0:db:0f:4f:19:b8:8d:fe:c0:e4:e5:f2:e8:
                    3f:3f:09:41:d5:04:3c:c4:93:61:c3:7c:62:fd:ae:
                    14:a8:3f:76:cc:0b:b4:b5:fc:e1:80:26:ed:a9:42:
                    ed:85:f2:59:0d:43:8f:51:7f:43:6d:dc:20:5f:3c:
                    cd:56:2c:8b:e6:c0:ac:9e:28:00:c7:77:00:3a:c8:
                    43:76:23:7e:29:41:24:d4:01:1c:f0:5a:0e:d0:f1:
                    20:39:77:81:0a:27:a6:dc:75:52:58:d6:c5:d2:16:
                    de:d8:a7:a2:e6:d1:4d:45:ab:7d:14:b6:17:fe:71:
                    86:fa:2a:da:09:4f:6d:be:72:bc:93:3c:20:7b:b5:
                    57:8f:88:c4:24:01:e6:08:0f:f7:8c:01:28:0c:0c:
                    39:cd:ff:ce:31:a7:68:75:be:7e:b0:2a:b3:67:55:
                    d6:fa:c2:f1:af:0d:9e:85:cc:3e:87:41:3f:78:2f:
                    9b:60:c1:33:c3:4a:d9:c0:45:5d:37:e5:2a:cc:35:
                    ff:61:fa:00:ad:ab:f3:8b:8d:94:a1:1a:ef:04:5f:
                    dc:3b:6b:37:c6:4c:18:c4:1a:9e:f9:b6:6f:d2:86:
                    db:8c:c4:25:90:d4:6a:45:03:f2:f1:13:e6:db:82:
                    5f:3d:27:6f:f9:f3:fd:ba:d6:09:31:dd:e4:01:de:
                    f8:0d:a5:8e:c3:21:f0:d4:ca:31:cd:c9:68:ff:80:
                    82:93:35:d7:95:86:e6:33:af:11:e6:61:4e:c2:d3:
                    2b:73:23:38:1b:25:65:c3:f9:61:25:69:4f:d2:f5:
                    67:ec:97:31:8e:0d:73:6c:16:4f:b4:4f:ab:26:44:
                    4f:3d:7b:83:72:48:31:0d:e6:23:06:79:3b:a9:fb:
                    8b:3b:bb:a7:7e:b0:2a:b1:ef:30:da:84:0e:98:8f:
                    66:a5:1d
                Exponent: 65537 (0x10001)
        X509v3 extensions:
            X509v3 Key Usage: critical
                Certificate Sign, CRL Sign
            X509v3 Basic Constraints: critical
                CA:TRUE, pathlen:0
            X509v3 Subject Key Identifier: 
                99:0C:43:36:FB:EA:E3:D9:A6:C6:74:8C:43:3B:21:F3:B0:95:93:83
            X509v3 Authority Key Identifier: 
                00:30:DB:DE:BC:86:FF:CB:F5:9C:AE:98:9E:00:95:91:71:35:00:8E
            Authority Information Access: 
                CA Issuers - URI:http://abb.abb/ca/root-ca.cer
            X509v3 CRL Distribution Points: 
                Full Name:
                  URI:http://abb.abb/ca/root-ca.crl
    Signature Algorithm: sha384WithRSAEncryption
    Signature Value:
        48:0b:67:77:f9:bd:18:ea:2f:d4:be:05:13:3f:a1:4e:46:d1:
        8e:17:5e:0a:a7:36:6d:e6:b6:96:54:b7:8c:bc:2b:f3:3e:44:
        aa:d3:e7:4a:f4:4f:72:2e:0f:a4:e6:e7:8c:21:9f:42:d7:68:
        77:93:52:ef:57:7d:a6:f9:b5:2f:e7:bf:46:c8:b3:af:06:94:
        2e:e4:7b:29:85:92:89:3a:81:7e:45:ed:aa:68:5b:e0:45:2a:
        56:e0:5d:26:e4:ef:6a:e1:18:80:4b:76:42:38:d2:ed:b9:f4:
        73:6a:ef:18:7b:3f:d5:41:e2:0f:06:61:e8:95:20:90:ed:5c:
        80:28:13:7c:b2:0a:2c:f4:d2:58:70:f7:23:0a:8f:c2:4a:ae:
        b5:4a:43:b9:db:65:20:7a:a6:66:af:2a:a9:91:db:e8:bb:62:
        77:fe:03:c6:ee:c6:a9:07:73:db:8c:94:4d:2a:91:86:a6:73:
        47:31:b9:e4:3c:28:b3:c1:6b:08:bb:03:80:88:9c:39:7b:6e:
        98:80:2b:53:1b:67:53:de:f8:df:e6:99:10:cb:ce:80:85:5f:
        e8:90:23:ed:9f:62:77:64:3c:a9:9d:12:95:7d:6f:3a:19:09:
        db:43:7e:77:76:2b:19:7c:a8:11:3e:08:14:a3:40:7c:92:38:
        6e:32:2e:34:34:15:58:3a:d4:5f:82:56:4c:68:2e:a3:60:11:
        77:5a:d1:81:ba:bb:8a:01:8e:12:ad:2e:d2:9e:b9:00:16:a4:
        e9:cb:3b:75:93:4c:da:f0:ca:00:38:83:3f:d3:d4:80:b4:09:
        2a:04:5c:e5:06:58:f9:a7:f2:b2:00:39:5c:b0:e1:53:70:19:
        fc:8e:c1:6b:bd:9b:88:17:68:95:e2:a4:5c:ce:61:c7:13:da:
        cc:1b:7e:bf:d9:03:cd:d6:cf:b0:c8:fc:d1:86:80:9c:5a:22:
        f6:b5:42:86:75:27:76:e4:06:24:93:1b:24:18:0c:44:46:61:
        a2:c2:a5:99:36:6a:7d:a6:03:e2:ee:5d:13:50:1f:e7:73:ec:
        c3:45:28:0b:61:09:17:ae:18:8d:c3:d6:02:d4:c4:f4:a7:be:
        07:73:77:1b:05:bb:53:9a:b9:bc:8f:5f:ed:b4:bb:69:d3:f4:
        2e:9f:43:a9:85:e5:82:f6:87:92:7d:94:ff:c7:bf:42:1f:d1:
        0a:3f:5c:74:19:db:a1:d4:a6:f0:15:5b:61:cd:41:1a:6a:78:
        56:e8:98:6c:1c:4e:46:dd:5d:ed:51:61:19:48:57:4f:94:d9:
        77:d0:05:dd:c4:ed:e9:61:7a:06:71:85:1f:99:50:a1:ef:f7:
        4b:a1:fe:fa:e3:aa:63:c9
-----BEGIN CERTIFICATE-----
MIIF0jCCA7qgAwIBAgIBAzANBgkqhkiG9w0BAQwFADBCMQswCQYDVQQGEwJDQTEN
MAsGA1UECgwEU0VMRjENMAsGA1UECwwEU0VMRjEVMBMGA1UEAwwMU0VMRiBSb290
IENBMB4XDTI0MDkwODE4MDkxNloXDTM0MDkwODE4MDkxNlowQjELMAkGA1UEBhMC
Q0ExDTALBgNVBAoMBFNFTEYxDTALBgNVBAsMBFNFTEYxFTATBgNVBAMMDFNFTEYg
QVVUSCBDQTCCAiIwDQYJKoZIhvcNAQEBBQADggIPADCCAgoCggIBAOFIkF+tI85t
FWIpkB2hdzsD9Vt9XZnvWlRXDsLOCMkhIgxQzrhQgo4e1pKOAx+ZnobUtmjriooC
BeHGa0Hox5Px4zEvNPbmOlBQ6Ao4Noljen5oXsD7bHAp/NzCj2NEmvqoEwPy6jWr
+G9Xn9c49Xo9bFZ/d1uKQxSOfw4HbsP+6toKktO+tnw/VG3ARNKRAMGQgQmF/HEM
9G5u5hzmRwGedYBBOkHA2w9PGbiN/sDk5fLoPz8JQdUEPMSTYcN8Yv2uFKg/dswL
tLX84YAm7alC7YXyWQ1Dj1F/Q23cIF88zVYsi+bArJ4oAMd3ADrIQ3YjfilBJNQB
HPBaDtDxIDl3gQonptx1UljWxdIW3tinoubRTUWrfRS2F/5xhvoq2glPbb5yvJM8
IHu1V4+IxCQB5ggP94wBKAwMOc3/zjGnaHW+frAqs2dV1vrC8a8NnoXMPodBP3gv
m2DBM8NK2cBFXTflKsw1/2H6AK2r84uNlKEa7wRf3DtrN8ZMGMQanvm2b9KG24zE
JZDUakUD8vET5tuCXz0nb/nz/brWCTHd5AHe+A2ljsMh8NTKMc3JaP+AgpM115WG
5jOvEeZhTsLTK3MjOBslZcP5YSVpT9L1Z+yXMY4Nc2wWT7RPqyZETz17g3JIMQ3m
IwZ5O6n7izu7p36wKrHvMNqEDpiPZqUdAgMBAAGjgdIwgc8wDgYDVR0PAQH/BAQD
AgEGMBIGA1UdEwEB/wQIMAYBAf8CAQAwHQYDVR0OBBYEFJkMQzb76uPZpsZ0jEM7
IfOwlZODMB8GA1UdIwQYMBaAFAAw2968hv/L9ZyumJ4AlZFxNQCOMDkGCCsGAQUF
BwEBBC0wKzApBggrBgEFBQcwAoYdaHR0cDovL2FiYi5hYmIvY2Evcm9vdC1jYS5j
ZXIwLgYDVR0fBCcwJTAjoCGgH4YdaHR0cDovL2FiYi5hYmIvY2Evcm9vdC1jYS5j
cmwwDQYJKoZIhvcNAQEMBQADggIBAEgLZ3f5vRjqL9S+BRM/oU5G0Y4XXgqnNm3m
tpZUt4y8K/M+RKrT50r0T3IuD6Tm54whn0LXaHeTUu9Xfab5tS/nv0bIs68GlC7k
eymFkok6gX5F7apoW+BFKlbgXSbk72rhGIBLdkI40u259HNq7xh7P9VB4g8GYeiV
IJDtXIAoE3yyCiz00lhw9yMKj8JKrrVKQ7nbZSB6pmavKqmR2+i7Ynf+A8buxqkH
c9uMlE0qkYamc0cxueQ8KLPBawi7A4CInDl7bpiAK1MbZ1Pe+N/mmRDLzoCFX+iQ
I+2fYndkPKmdEpV9bzoZCdtDfnd2Kxl8qBE+CBSjQHySOG4yLjQ0FVg61F+CVkxo
LqNgEXda0YG6u4oBjhKtLtKeuQAWpOnLO3WTTNrwygA4gz/T1IC0CSoEXOUGWPmn
8rIAOVyw4VNwGfyOwWu9m4gXaJXipFzOYccT2swbfr/ZA83Wz7DI/NGGgJxaIva1
QoZ1J3bkBiSTGyQYDERGYaLCpZk2an2mA+LuXRNQH+dz7MNFKAthCReuGI3D1gLU
xPSnvgdzdxsFu1OaubyPX+20u2nT9C6fQ6mF5YL2h5J9lP/Hv0If0Qo/XHQZ26HU
pvAVW2HNQRpqeFbomGwcTkbdXe1RYRlIV0+U2XfQBd3E7elhegZxhR+ZUKHv90uh
/vrjqmPJ
-----END CERTIFICATE-----
