Certificate:
    Data:
        Version: 3 (0x2)
        Serial Number: 3 (0x3)
        Signature Algorithm: ecdsa-with-SHA384
        Issuer: C=CA, O=SELF, OU=SELF, CN=SELF Root CA
        Validity
            Not Before: Sep 18 21:13:22 2024 GMT
            Not After : Sep 18 21:13:22 2034 GMT
        Subject: C=CA, O=SELF, OU=SELF, CN=SELF AUTH CA
        Subject Public Key Info:
            Public Key Algorithm: id-ecPublicKey
                Public-Key: (112 bit)
                pub:
                    04:25:14:6a:b5:22:f0:a6:6d:0f:1c:fd:bd:02:79:
                    92:5a:6a:07:45:52:36:b8:c2:a8:f9:e9:68:03
                ASN1 OID: secp112r1
        X509v3 extensions:
            X509v3 Key Usage: critical
                Certificate Sign, CRL Sign
            X509v3 Basic Constraints: critical
                CA:TRUE, pathlen:0
            X509v3 Subject Key Identifier: 
                34:8B:96:88:F6:74:48:9B:96:97:BE:F5:72:DF:40:C1:01:7B:7E:D9
            X509v3 Authority Key Identifier: 
                5E:1D:F1:4E:D9:6B:46:90:EA:EC:02:01:46:DD:05:13:43:89:FE:54
            Authority Information Access: 
                CA Issuers - URI:http://abb.abb/ca/root-ca.cer
            X509v3 CRL Distribution Points: 
                Full Name:
                  URI:http://abb.abb/ca/root-ca.crl
    Signature Algorithm: ecdsa-with-SHA384
    Signature Value:
        30:21:02:0e:05:a6:36:a9:17:36:bc:ec:58:17:9f:d1:be:38:
        02:0f:00:a9:c1:6b:51:4b:3e:ca:a7:52:36:4f:bc:36:cb
-----BEGIN CERTIFICATE-----
MIIB+zCCAcWgAwIBAgIBAzAKBggqhkjOPQQDAzBCMQswCQYDVQQGEwJDQTENMAsG
A1UECgwEU0VMRjENMAsGA1UECwwEU0VMRjEVMBMGA1UEAwwMU0VMRiBSb290IENB
MB4XDTI0MDkxODIxMTMyMloXDTM0MDkxODIxMTMyMlowQjELMAkGA1UEBhMCQ0Ex
DTALBgNVBAoMBFNFTEYxDTALBgNVBAsMBFNFTEYxFTATBgNVBAMMDFNFTEYgQVVU
SCBDQTAyMBAGByqGSM49AgEGBSuBBAAGAx4ABCUUarUi8KZtDxz9vQJ5klpqB0VS
NrjCqPnpaAOjgdIwgc8wDgYDVR0PAQH/BAQDAgEGMBIGA1UdEwEB/wQIMAYBAf8C
AQAwHQYDVR0OBBYEFDSLloj2dEiblpe+9XLfQMEBe37ZMB8GA1UdIwQYMBaAFF4d
8U7Za0aQ6uwCAUbdBRNDif5UMDkGCCsGAQUFBwEBBC0wKzApBggrBgEFBQcwAoYd
aHR0cDovL2FiYi5hYmIvY2Evcm9vdC1jYS5jZXIwLgYDVR0fBCcwJTAjoCGgH4Yd
aHR0cDovL2FiYi5hYmIvY2Evcm9vdC1jYS5jcmwwCgYIKoZIzj0EAwMDJAAwIQIO
BaY2qRc2vOxYF5/RvjgCDwCpwWtRSz7Kp1I2T7w2yw==
-----END CERTIFICATE-----
Certificate:
    Data:
        Version: 3 (0x2)
        Serial Number: 1 (0x1)
        Signature Algorithm: ecdsa-with-SHA384
        Issuer: C=CA, O=SELF, OU=SELF, CN=SELF Root CA
        Validity
            Not Before: Sep 18 21:13:21 2024 GMT
            Not After : Dec 31 23:59:59 2077 GMT
        Subject: C=CA, O=SELF, OU=SELF, CN=SELF Root CA
        Subject Public Key Info:
            Public Key Algorithm: id-ecPublicKey
                Public-Key: (112 bit)
                pub:
                    04:82:57:02:6e:79:3a:38:63:ba:5e:9a:50:e9:ea:
                    63:b9:2d:88:d4:91:44:2a:9e:5b:2c:5e:ed:6c
                ASN1 OID: secp112r1
        X509v3 extensions:
            X509v3 Key Usage: critical
                Certificate Sign, CRL Sign
            X509v3 Basic Constraints: critical
                CA:TRUE
            X509v3 Subject Key Identifier: 
                5E:1D:F1:4E:D9:6B:46:90:EA:EC:02:01:46:DD:05:13:43:89:FE:54
            X509v3 Authority Key Identifier: 
                5E:1D:F1:4E:D9:6B:46:90:EA:EC:02:01:46:DD:05:13:43:89:FE:54
    Signature Algorithm: ecdsa-with-SHA384
    Signature Value:
        30:21:02:0f:00:89:61:2d:97:cd:32:a4:fe:04:92:cd:73:ec:
        2f:02:0e:4a:d3:5b:27:3a:e1:f7:26:2d:a9:12:44:9d:70
-----BEGIN CERTIFICATE-----
MIIBjTCCAVegAwIBAgIBATAKBggqhkjOPQQDAzBCMQswCQYDVQQGEwJDQTENMAsG
A1UECgwEU0VMRjENMAsGA1UECwwEU0VMRjEVMBMGA1UEAwwMU0VMRiBSb290IENB
MCAXDTI0MDkxODIxMTMyMVoYDzIwNzcxMjMxMjM1OTU5WjBCMQswCQYDVQQGEwJD
QTENMAsGA1UECgwEU0VMRjENMAsGA1UECwwEU0VMRjEVMBMGA1UEAwwMU0VMRiBS
b290IENBMDIwEAYHKoZIzj0CAQYFK4EEAAYDHgAEglcCbnk6OGO6XppQ6epjuS2I
1JFEKp5bLF7tbKNjMGEwDgYDVR0PAQH/BAQDAgEGMA8GA1UdEwEB/wQFMAMBAf8w
HQYDVR0OBBYEFF4d8U7Za0aQ6uwCAUbdBRNDif5UMB8GA1UdIwQYMBaAFF4d8U7Z
a0aQ6uwCAUbdBRNDif5UMAoGCCqGSM49BAMDAyQAMCECDwCJYS2XzTKk/gSSzXPs
LwIOStNbJzrh9yYtqRJEnXA=
-----END CERTIFICATE-----
