Certificate:
    Data:
        Version: 3 (0x2)
        Serial Number: 3 (0x3)
        Signature Algorithm: sha384WithRSAEncryption
        Issuer: C=CA, O=SELF, OU=SELF, CN=SELF Root CA
        Validity
            Not Before: Nov 18 20:48:04 2024 GMT
            Not After : Nov 18 20:48:04 2034 GMT
        Subject: C=CA, O=SELF, OU=SELF, CN=SELF AUTH CA
        Subject Public Key Info:
            Public Key Algorithm: rsaEncryption
                Public-Key: (4096 bit)
                Modulus:
                    00:ee:d2:f0:2c:ac:69:f7:3a:09:44:49:68:86:14:
                    e9:b4:c8:49:c7:bd:25:cf:2a:4e:56:0f:4f:d1:ab:
                    c3:ec:58:c7:38:a7:04:98:34:bd:0d:80:e7:2c:e2:
                    47:ec:5e:fd:55:eb:70:01:85:cd:65:fe:82:e4:4b:
                    a6:6b:98:ba:c2:b4:9f:19:5f:c9:78:b9:bf:d5:92:
                    21:1f:db:4f:77:b2:68:87:01:43:ef:fb:06:fb:29:
                    ac:34:a2:a9:05:cf:9f:a1:45:ba:3f:66:68:2c:31:
                    7b:a9:96:52:0d:8c:70:47:85:c9:6a:d6:66:e1:ac:
                    25:21:bb:6a:1f:b0:5d:7b:cb:57:06:a5:92:49:9a:
                    19:11:f2:4d:41:3a:d4:64:ed:dc:4d:f7:fd:1f:5c:
                    f7:8e:97:b0:c0:60:33:2b:69:67:69:d7:c5:6c:bd:
                    58:8e:3b:b1:a1:54:ba:77:9b:10:8e:3e:ab:46:7a:
                    a1:d4:37:cd:83:8a:56:c4:ee:5a:77:58:27:e0:0b:
                    26:ec:83:60:ce:ed:68:b9:91:38:59:0d:51:6e:2e:
                    ad:3b:97:f3:c9:44:46:67:6c:73:ff:75:3d:70:99:
                    8f:9c:3d:96:88:f7:fd:9c:ef:dc:8c:20:f6:a8:df:
                    ff:49:2e:dc:95:ac:7b:29:87:76:33:49:e0:78:46:
                    6c:9c:ac:37:54:20:7c:4d:ed:40:fd:f6:fa:80:e9:
                    85:e0:cb:77:87:11:ff:f8:84:70:26:52:6a:5e:38:
                    48:8d:15:10:5c:d0:b8:00:11:8d:c3:a8:7d:ff:3d:
                    a5:cb:c3:e3:99:25:59:2d:a9:d7:4e:af:84:85:2a:
                    35:7c:cd:14:c1:e5:01:e0:64:6c:37:9d:a8:d7:18:
                    86:be:35:dd:23:c4:c0:53:04:c3:dc:79:0d:b3:63:
                    6d:88:5f:43:05:dd:23:30:1f:3e:b9:cf:4e:cc:42:
                    bb:46:42:23:62:98:44:ac:32:b5:b8:22:68:a0:a3:
                    76:d7:67:3f:e3:ca:ad:dd:35:d0:c8:2b:e1:63:c1:
                    cb:f5:23:6b:34:c7:b8:ca:d3:44:d9:96:fa:1a:8a:
                    f3:97:c4:d8:5a:ee:02:4f:00:53:33:e4:62:ab:10:
                    5c:e8:58:c0:85:6b:99:5b:ea:35:ee:e2:e4:b1:45:
                    ef:ae:e9:c3:d8:da:58:c4:fa:cc:b3:4f:22:8c:f7:
                    e8:d5:00:8c:51:0e:06:b9:12:4e:8b:31:03:6b:94:
                    74:46:33:57:c6:5e:07:64:b3:59:e0:b3:be:eb:23:
                    c3:de:9d:12:ac:2a:c1:8e:7f:1c:c5:fb:94:d4:f4:
                    ff:eb:b0:d5:18:25:9e:c2:5e:da:c2:ac:6b:82:2c:
                    ae:4b:b1
                Exponent: 65537 (0x10001)
        X509v3 extensions:
            X509v3 Key Usage: critical
                Certificate Sign, CRL Sign
            X509v3 Basic Constraints: critical
                CA:TRUE, pathlen:0
            X509v3 Subject Key Identifier: 
                E2:2C:F3:D4:15:49:4F:E7:3D:6F:CA:1A:F1:6B:56:8D:2B:2C:F2:F7
            X509v3 Authority Key Identifier: 
                07:F7:AC:CF:34:8B:F8:7F:89:D4:4E:F4:0E:F3:24:B0:67:39:A6:76
            Authority Information Access: 
                CA Issuers - URI:http://abb.abb/ca/root-ca.cer
            X509v3 CRL Distribution Points: 
                Full Name:
                  URI:http://abb.abb/ca/root-ca.crl
    Signature Algorithm: sha384WithRSAEncryption
    Signature Value:
        42:9a:cd:18:b5:85:42:38:39:1c:e1:07:9c:92:db:d1:17:ce:
        aa:c4:fd:34:59:20:69:a7:dd:38:9e:0f:9d:20:68:21:37:bf:
        47:ee:61:d8:3a:01:35:44:e7:38:df:dc:d5:ca:01:2d:0d:6d:
        8d:47:51:16:c3:45:de:6e:dd:76:77:bf:4d:a0:b8:ed:83:9a:
        ba:fd:c5:81:22:a9:60:43:61:e7:03:d1:13:da:2b:77:c0:2e:
        f7:7c:ad:f4:e9:0a:db:a6:a1:f8:6f:08:3b:b1:48:40:4c:cd:
        91:3d:5e:53:f4:0e:6b:62:20:d0:be:0f:2e:e1:00:f1:75:90:
        9f:e4:f8:c0:f3:cd:fc:71:5f:04:a4:1f:29:37:d8:0c:ba:53:
        fa:09:97:82:2a:55:42:2d:44:2d:7f:9a:3c:3d:95:1b:47:91:
        93:5f:88:1b:ed:f6:f5:55:42:8c:60:22:4d:6b:a0:7b:d4:10:
        b0:38:2b:62:fe:da:10:af:f3:57:78:ab:85:84:c4:40:83:4a:
        d0:e3:a1:b1:a3:fd:e6:cb:0f:23:d4:3b:cc:4b:54:d1:93:75:
        54:08:7e:d3:db:6d:18:cb:0a:93:8c:a0:72:03:0b:67:8a:d5:
        7c:1c:82:bf:b6:e9:97:18:0e:56:be:12:60:4b:82:d1:40:46:
        ce:e1:98:78:6d:db:20:14:99:34:86:7d:5f:56:d6:62:e5:b7:
        99:c4:a0:4f:62:2b:7b:30:fb:f7:f1:75:87:1a:82:0f:cb:cd:
        99:5c:ff:e1:6a:87:75:d5:f3:f7:40:d3:f2:15:0f:be:a4:33:
        95:b0:e5:de:de:46:b5:3f:b5:b3:85:7a:1e:2c:eb:a0:0c:79:
        a0:46:2a:a5:09:38:89:49:36:69:66:e7:c6:0f:81:2f:25:1f:
        e3:fb:11:ce:38:a9:c2:11:e5:a1:00:87:25:18:2d:67:10:a2:
        a3:06:f4:27:c1:47:4b:42:69:26:cd:60:b2:32:1f:ec:60:76:
        a9:18:99:e4:d0:26:a7:7d:91:8e:be:a5:08:dd:91:98:8b:90:
        57:68:55:5e:0a:9b:5a:fd:1a:90:83:6d:41:5c:e4:2e:cc:7a:
        f5:94:d4:bc:e2:aa:5c:01:12:0c:c6:24:80:89:9d:12:ef:b5:
        df:b3:2f:87:1a:39:83:21:5c:26:6c:c5:d8:67:9b:52:bc:86:
        b0:ab:69:31:6a:51:5d:c8:d7:ee:e0:98:3c:21:56:e6:b3:3c:
        87:97:0c:60:70:37:da:f7:9e:39:7e:d8:72:ef:d6:ea:41:4f:
        94:8c:a0:ea:0e:e9:6d:a6:00:99:e4:e1:49:79:0d:57:bb:62:
        cf:67:5d:7b:b6:44:00:84
-----BEGIN CERTIFICATE-----
MIIF0jCCA7qgAwIBAgIBAzANBgkqhkiG9w0BAQwFADBCMQswCQYDVQQGEwJDQTEN
MAsGA1UECgwEU0VMRjENMAsGA1UECwwEU0VMRjEVMBMGA1UEAwwMU0VMRiBSb290
IENBMB4XDTI0MTExODIwNDgwNFoXDTM0MTExODIwNDgwNFowQjELMAkGA1UEBhMC
Q0ExDTALBgNVBAoMBFNFTEYxDTALBgNVBAsMBFNFTEYxFTATBgNVBAMMDFNFTEYg
QVVUSCBDQTCCAiIwDQYJKoZIhvcNAQEBBQADggIPADCCAgoCggIBAO7S8Cysafc6
CURJaIYU6bTISce9Jc8qTlYPT9Grw+xYxzinBJg0vQ2A5yziR+xe/VXrcAGFzWX+
guRLpmuYusK0nxlfyXi5v9WSIR/bT3eyaIcBQ+/7BvsprDSiqQXPn6FFuj9maCwx
e6mWUg2McEeFyWrWZuGsJSG7ah+wXXvLVwalkkmaGRHyTUE61GTt3E33/R9c946X
sMBgMytpZ2nXxWy9WI47saFUunebEI4+q0Z6odQ3zYOKVsTuWndYJ+ALJuyDYM7t
aLmROFkNUW4urTuX88lERmdsc/91PXCZj5w9loj3/Zzv3Iwg9qjf/0ku3JWseymH
djNJ4HhGbJysN1QgfE3tQP32+oDpheDLd4cR//iEcCZSal44SI0VEFzQuAARjcOo
ff89pcvD45klWS2p106vhIUqNXzNFMHlAeBkbDedqNcYhr413SPEwFMEw9x5DbNj
bYhfQwXdIzAfPrnPTsxCu0ZCI2KYRKwytbgiaKCjdtdnP+PKrd010Mgr4WPBy/Uj
azTHuMrTRNmW+hqK85fE2FruAk8AUzPkYqsQXOhYwIVrmVvqNe7i5LFF767pw9ja
WMT6zLNPIoz36NUAjFEOBrkSTosxA2uUdEYzV8ZeB2SzWeCzvusjw96dEqwqwY5/
HMX7lNT0/+uw1RglnsJe2sKsa4IsrkuxAgMBAAGjgdIwgc8wDgYDVR0PAQH/BAQD
AgEGMBIGA1UdEwEB/wQIMAYBAf8CAQAwHQYDVR0OBBYEFOIs89QVSU/nPW/KGvFr
Vo0rLPL3MB8GA1UdIwQYMBaAFAf3rM80i/h/idRO9A7zJLBnOaZ2MDkGCCsGAQUF
BwEBBC0wKzApBggrBgEFBQcwAoYdaHR0cDovL2FiYi5hYmIvY2Evcm9vdC1jYS5j
ZXIwLgYDVR0fBCcwJTAjoCGgH4YdaHR0cDovL2FiYi5hYmIvY2Evcm9vdC1jYS5j
cmwwDQYJKoZIhvcNAQEMBQADggIBAEKazRi1hUI4ORzhB5yS29EXzqrE/TRZIGmn
3TieD50gaCE3v0fuYdg6ATVE5zjf3NXKAS0NbY1HURbDRd5u3XZ3v02guO2Dmrr9
xYEiqWBDYecD0RPaK3fALvd8rfTpCtumofhvCDuxSEBMzZE9XlP0DmtiINC+Dy7h
APF1kJ/k+MDzzfxxXwSkHyk32Ay6U/oJl4IqVUItRC1/mjw9lRtHkZNfiBvt9vVV
QoxgIk1roHvUELA4K2L+2hCv81d4q4WExECDStDjobGj/ebLDyPUO8xLVNGTdVQI
ftPbbRjLCpOMoHIDC2eK1Xwcgr+26ZcYDla+EmBLgtFARs7hmHht2yAUmTSGfV9W
1mLlt5nEoE9iK3sw+/fxdYcagg/LzZlc/+Fqh3XV8/dA0/IVD76kM5Ww5d7eRrU/
tbOFeh4s66AMeaBGKqUJOIlJNmlm58YPgS8lH+P7Ec44qcIR5aEAhyUYLWcQoqMG
9CfBR0tCaSbNYLIyH+xgdqkYmeTQJqd9kY6+pQjdkZiLkFdoVV4Km1r9GpCDbUFc
5C7MevWU1LziqlwBEgzGJICJnRLvtd+zL4caOYMhXCZsxdhnm1K8hrCraTFqUV3I
1+7gmDwhVuazPIeXDGBwN9r3njl+2HLv1upBT5SMoOoO6W2mAJnk4Ul5DVe7Ys9n
XXu2RACE
-----END CERTIFICATE-----
Certificate:
    Data:
        Version: 3 (0x2)
        Serial Number: 1 (0x1)
        Signature Algorithm: sha384WithRSAEncryption
        Issuer: C=CA, O=SELF, OU=SELF, CN=SELF Root CA
        Validity
            Not Before: Nov 18 20:48:02 2024 GMT
            Not After : Dec 31 23:59:59 2077 GMT
        Subject: C=CA, O=SELF, OU=SELF, CN=SELF Root CA
        Subject Public Key Info:
            Public Key Algorithm: rsaEncryption
                Public-Key: (4096 bit)
                Modulus:
                    00:b5:38:2e:62:9d:3e:5a:4b:e1:78:49:a2:16:42:
                    b5:a6:b3:45:f0:d3:f0:d9:79:28:5b:5d:f2:00:51:
                    bd:d7:00:ea:5b:cd:22:49:a7:5f:e2:1b:22:56:e8:
                    c2:82:91:be:26:ce:75:c8:57:a8:39:07:71:67:0e:
                    70:c9:3d:4d:f8:84:7a:e4:23:38:56:7e:18:34:20:
                    d2:ad:82:40:ee:1b:15:b9:6c:e3:b2:d1:e7:02:bf:
                    53:55:64:c1:d0:e3:e0:04:06:d1:2f:2f:0c:c5:d7:
                    49:95:c6:99:1e:8f:6c:e2:4c:c4:8f:06:28:aa:82:
                    fd:b1:fa:ef:5d:11:82:83:d6:3f:3d:af:dc:33:b6:
                    61:14:45:92:17:3a:4e:c7:be:c4:11:e7:47:2b:69:
                    15:d7:7a:6a:5f:a2:3a:60:41:97:77:6a:3d:66:d8:
                    fe:68:50:e6:e2:d0:94:6a:c9:87:c7:2e:a6:be:39:
                    e7:cb:41:4e:0a:e8:31:76:9a:f9:22:04:3a:c5:8a:
                    4c:24:5f:73:c1:37:9c:dc:be:50:e7:8d:9e:4f:d5:
                    f7:ef:2c:0e:39:a7:c2:a0:40:82:70:11:4c:80:f4:
                    23:c4:f8:4a:8e:88:f4:02:7c:47:f4:f9:50:1c:79:
                    e0:d4:24:0d:f4:e6:35:42:cd:ff:5b:5d:5e:a9:1a:
                    a3:e0:ae:5a:9a:e1:7b:3a:36:a0:cc:84:6f:67:fa:
                    92:8e:3b:bd:52:28:d3:93:cf:5c:ea:2d:65:73:3a:
                    0a:b8:5c:80:cd:ce:9e:2e:c9:db:3c:02:b3:83:69:
                    39:f6:93:d8:ff:2f:0f:45:18:8b:40:82:fc:1e:a0:
                    25:de:1c:fd:86:f8:72:be:55:9b:b7:be:c7:ed:51:
                    c4:12:d5:5a:b7:ff:92:a8:a2:d8:c4:e7:38:f7:4b:
                    58:31:ed:30:b3:79:cc:cc:2f:f8:52:19:2e:7c:0b:
                    84:60:f7:22:73:d4:07:cf:2d:07:30:aa:d8:1d:87:
                    76:d3:8e:f3:87:6c:9d:52:ce:41:21:ab:a0:96:20:
                    83:6d:47:9a:3f:26:92:68:ff:6e:ad:57:8f:df:b4:
                    ed:16:2e:a3:7d:f5:dd:8a:9d:3c:9c:42:9b:71:b0:
                    16:17:9a:73:44:47:c7:05:7e:3f:ad:16:8f:1e:f3:
                    13:1f:78:16:1a:7c:07:08:93:f9:6e:6c:d0:9d:82:
                    bc:90:23:e0:c9:fa:e8:91:a0:fe:fa:ea:9a:1a:b6:
                    71:0b:24:30:03:06:ba:90:25:5a:4a:cb:6f:9d:5b:
                    62:7f:b1:68:e3:c9:66:84:0d:a0:a9:ec:54:0a:b1:
                    fa:b6:ad:df:19:2e:24:5e:01:7d:39:2b:42:98:36:
                    c2:79:19
                Exponent: 65537 (0x10001)
        X509v3 extensions:
            X509v3 Key Usage: critical
                Certificate Sign, CRL Sign
            X509v3 Basic Constraints: critical
                CA:TRUE
            X509v3 Subject Key Identifier: 
                07:F7:AC:CF:34:8B:F8:7F:89:D4:4E:F4:0E:F3:24:B0:67:39:A6:76
            X509v3 Authority Key Identifier: 
                07:F7:AC:CF:34:8B:F8:7F:89:D4:4E:F4:0E:F3:24:B0:67:39:A6:76
    Signature Algorithm: sha384WithRSAEncryption
    Signature Value:
        ad:57:f8:44:73:d1:80:bf:d4:98:f1:6e:11:a6:6a:24:e2:24:
        09:b3:b3:14:88:4d:ff:5e:a9:d5:38:d9:5a:e2:e9:6c:d4:39:
        69:eb:35:f0:1d:08:79:4a:d3:b1:5a:a0:d4:3f:1b:8c:eb:c8:
        d8:00:87:7e:be:ee:d5:96:6c:e7:ef:60:a9:49:cc:a6:6d:99:
        ce:5a:c7:0a:9f:0d:2e:25:e5:da:60:40:30:3f:45:77:d3:ec:
        53:db:e7:61:83:ce:eb:76:5c:49:a8:1e:02:66:6e:90:97:c7:
        d4:87:2b:24:27:a3:eb:47:ee:eb:77:2e:3a:ee:99:fb:5a:56:
        14:63:47:f4:91:38:93:a6:b9:89:a0:a5:7c:8a:09:ab:db:aa:
        c8:b1:96:a2:a1:6a:aa:e3:14:80:4e:97:34:59:db:79:4a:57:
        50:06:12:3d:d4:f0:df:46:4d:1f:00:fa:fb:ac:d4:d0:1f:bc:
        81:a7:47:3c:bf:2f:21:b0:20:ed:89:8f:72:3f:90:a0:08:96:
        e6:44:b4:98:1a:fe:b1:86:8a:0b:d4:ab:5e:14:02:37:2b:73:
        f0:49:0e:f8:5c:b6:90:e6:f3:cf:22:47:6e:64:80:f1:c8:c0:
        35:14:a8:68:98:00:33:11:98:de:c8:61:c7:ba:ec:80:e3:33:
        d7:a5:9c:93:81:0f:d4:59:ef:b1:4a:bf:e5:19:fa:f6:24:4d:
        9c:9d:10:8c:02:0f:21:9b:85:92:de:09:8c:70:a5:fb:2f:74:
        a9:f4:ca:2b:b1:dc:40:62:49:a6:6e:4c:a5:7f:2b:d4:fa:13:
        9b:a6:4b:d5:31:4b:4c:13:cc:a0:85:3c:31:9e:60:f2:04:97:
        b2:a3:2b:a8:60:5d:b4:d9:b1:41:8b:d0:77:07:6d:d9:bd:63:
        d2:80:b0:49:f2:6b:49:cc:a7:be:64:13:bb:f5:f6:ba:f8:ea:
        5e:9e:7e:b9:c5:ab:7f:57:3b:b5:c2:fd:c4:36:98:42:9c:57:
        32:ab:66:05:59:39:14:e8:fd:91:26:af:45:18:a2:c2:ee:4a:
        7a:0c:d0:09:5c:86:8a:81:4a:aa:2d:a0:2a:3f:0a:bc:bd:b1:
        7e:d5:69:5c:b0:2e:41:97:7a:c5:93:10:24:5d:43:a0:31:81:
        79:0d:2e:46:1b:2f:f6:8d:51:c8:ba:99:28:6d:3d:47:8b:4c:
        60:56:1d:e7:6b:4d:00:11:34:de:0c:2b:0b:d3:b5:af:62:38:
        cc:42:cc:60:99:38:5a:0c:ae:19:bb:aa:3b:c2:16:bd:3b:32:
        56:08:78:a1:33:49:10:c2:a8:c5:3c:d9:8f:a1:7b:c4:c0:0a:
        2a:ec:58:48:2d:b9:e3:28
-----BEGIN CERTIFICATE-----
MIIFZDCCA0ygAwIBAgIBATANBgkqhkiG9w0BAQwFADBCMQswCQYDVQQGEwJDQTEN
MAsGA1UECgwEU0VMRjENMAsGA1UECwwEU0VMRjEVMBMGA1UEAwwMU0VMRiBSb290
IENBMCAXDTI0MTExODIwNDgwMloYDzIwNzcxMjMxMjM1OTU5WjBCMQswCQYDVQQG
EwJDQTENMAsGA1UECgwEU0VMRjENMAsGA1UECwwEU0VMRjEVMBMGA1UEAwwMU0VM
RiBSb290IENBMIICIjANBgkqhkiG9w0BAQEFAAOCAg8AMIICCgKCAgEAtTguYp0+
WkvheEmiFkK1prNF8NPw2XkoW13yAFG91wDqW80iSadf4hsiVujCgpG+Js51yFeo
OQdxZw5wyT1N+IR65CM4Vn4YNCDSrYJA7hsVuWzjstHnAr9TVWTB0OPgBAbRLy8M
xddJlcaZHo9s4kzEjwYoqoL9sfrvXRGCg9Y/Pa/cM7ZhFEWSFzpOx77EEedHK2kV
13pqX6I6YEGXd2o9Ztj+aFDm4tCUasmHxy6mvjnny0FOCugxdpr5IgQ6xYpMJF9z
wTec3L5Q542eT9X37ywOOafCoECCcBFMgPQjxPhKjoj0AnxH9PlQHHng1CQN9OY1
Qs3/W11eqRqj4K5amuF7OjagzIRvZ/qSjju9UijTk89c6i1lczoKuFyAzc6eLsnb
PAKzg2k59pPY/y8PRRiLQIL8HqAl3hz9hvhyvlWbt77H7VHEEtVat/+SqKLYxOc4
90tYMe0ws3nMzC/4UhkufAuEYPcic9QHzy0HMKrYHYd2047zh2ydUs5BIaugliCD
bUeaPyaSaP9urVeP37TtFi6jffXdip08nEKbcbAWF5pzREfHBX4/rRaPHvMTH3gW
GnwHCJP5bmzQnYK8kCPgyfrokaD++uqaGrZxCyQwAwa6kCVaSstvnVtif7Fo48lm
hA2gqexUCrH6tq3fGS4kXgF9OStCmDbCeRkCAwEAAaNjMGEwDgYDVR0PAQH/BAQD
AgEGMA8GA1UdEwEB/wQFMAMBAf8wHQYDVR0OBBYEFAf3rM80i/h/idRO9A7zJLBn
OaZ2MB8GA1UdIwQYMBaAFAf3rM80i/h/idRO9A7zJLBnOaZ2MA0GCSqGSIb3DQEB
DAUAA4ICAQCtV/hEc9GAv9SY8W4Rpmok4iQJs7MUiE3/XqnVONla4uls1Dlp6zXw
HQh5StOxWqDUPxuM68jYAId+vu7Vlmzn72CpScymbZnOWscKnw0uJeXaYEAwP0V3
0+xT2+dhg87rdlxJqB4CZm6Ql8fUhyskJ6PrR+7rdy467pn7WlYUY0f0kTiTprmJ
oKV8igmr26rIsZaioWqq4xSATpc0Wdt5SldQBhI91PDfRk0fAPr7rNTQH7yBp0c8
vy8hsCDtiY9yP5CgCJbmRLSYGv6xhooL1KteFAI3K3PwSQ74XLaQ5vPPIkduZIDx
yMA1FKhomAAzEZjeyGHHuuyA4zPXpZyTgQ/UWe+xSr/lGfr2JE2cnRCMAg8hm4WS
3gmMcKX7L3Sp9MorsdxAYkmmbkylfyvU+hObpkvVMUtME8yghTwxnmDyBJeyoyuo
YF202bFBi9B3B23ZvWPSgLBJ8mtJzKe+ZBO79fa6+Openn65xat/Vzu1wv3ENphC
nFcyq2YFWTkU6P2RJq9FGKLC7kp6DNAJXIaKgUqqLaAqPwq8vbF+1WlcsC5Bl3rF
kxAkXUOgMYF5DS5GGy/2jVHIupkobT1Hi0xgVh3na00AETTeDCsL07WvYjjMQsxg
mThaDK4Zu6o7wha9OzJWCHihM0kQwqjFPNmPoXvEwAoq7FhILbnjKA==
-----END CERTIFICATE-----
