Certificate:
    Data:
        Version: 3 (0x2)
        Serial Number: 3 (0x3)
        Signature Algorithm: sha384WithRSAEncryption
        Issuer: C=CA, O=SELF, OU=SELF, CN=SELF Root CA
        Validity
            Not Before: Sep  8 18:09:16 2024 GMT
            Not After : Sep  8 18:09:16 2034 GMT
        Subject: C=CA, O=SELF, OU=SELF, CN=SELF AUTH CA
        Subject Public Key Info:
            Public Key Algorithm: rsaEncryption
                Public-Key: (4096 bit)
                Modulus:
                    00:e1:48:90:5f:ad:23:ce:6d:15:62:29:90:1d:a1:
                    77:3b:03:f5:5b:7d:5d:99:ef:5a:54:57:0e:c2:ce:
                    08:c9:21:22:0c:50:ce:b8:50:82:8e:1e:d6:92:8e:
                    03:1f:99:9e:86:d4:b6:68:eb:8a:8a:02:05:e1:c6:
                    6b:41:e8:c7:93:f1:e3:31:2f:34:f6:e6:3a:50:50:
                    e8:0a:38:36:89:63:7a:7e:68:5e:c0:fb:6c:70:29:
                    fc:dc:c2:8f:63:44:9a:fa:a8:13:03:f2:ea:35:ab:
                    f8:6f:57:9f:d7:38:f5:7a:3d:6c:56:7f:77:5b:8a:
                    43:14:8e:7f:0e:07:6e:c3:fe:ea:da:0a:92:d3:be:
                    b6:7c:3f:54:6d:c0:44:d2:91:00:c1:90:81:09:85:
                    fc:71:0c:f4:6e:6e:e6:1c:e6:47:01:9e:75:80:41:
                    3a:41:c0:db:0f:4f:19:b8:8d:fe:c0:e4:e5:f2:e8:
                    3f:3f:09:41:d5:04:3c:c4:93:61:c3:7c:62:fd:ae:
                    14:a8:3f:76:cc:0b:b4:b5:fc:e1:80:26:ed:a9:42:
                    ed:85:f2:59:0d:43:8f:51:7f:43:6d:dc:20:5f:3c:
                    cd:56:2c:8b:e6:c0:ac:9e:28:00:c7:77:00:3a:c8:
                    43:76:23:7e:29:41:24:d4:01:1c:f0:5a:0e:d0:f1:
                    20:39:77:81:0a:27:a6:dc:75:52:58:d6:c5:d2:16:
                    de:d8:a7:a2:e6:d1:4d:45:ab:7d:14:b6:17:fe:71:
                    86:fa:2a:da:09:4f:6d:be:72:bc:93:3c:20:7b:b5:
                    57:8f:88:c4:24:01:e6:08:0f:f7:8c:01:28:0c:0c:
                    39:cd:ff:ce:31:a7:68:75:be:7e:b0:2a:b3:67:55:
                    d6:fa:c2:f1:af:0d:9e:85:cc:3e:87:41:3f:78:2f:
                    9b:60:c1:33:c3:4a:d9:c0:45:5d:37:e5:2a:cc:35:
                    ff:61:fa:00:ad:ab:f3:8b:8d:94:a1:1a:ef:04:5f:
                    dc:3b:6b:37:c6:4c:18:c4:1a:9e:f9:b6:6f:d2:86:
                    db:8c:c4:25:90:d4:6a:45:03:f2:f1:13:e6:db:82:
                    5f:3d:27:6f:f9:f3:fd:ba:d6:09:31:dd:e4:01:de:
                    f8:0d:a5:8e:c3:21:f0:d4:ca:31:cd:c9:68:ff:80:
                    82:93:35:d7:95:86:e6:33:af:11:e6:61:4e:c2:d3:
                    2b:73:23:38:1b:25:65:c3:f9:61:25:69:4f:d2:f5:
                    67:ec:97:31:8e:0d:73:6c:16:4f:b4:4f:ab:26:44:
                    4f:3d:7b:83:72:48:31:0d:e6:23:06:79:3b:a9:fb:
                    8b:3b:bb:a7:7e:b0:2a:b1:ef:30:da:84:0e:98:8f:
                    66:a5:1d
                Exponent: 65537 (0x10001)
        X509v3 extensions:
            X509v3 Key Usage: critical
                Certificate Sign, CRL Sign
            X509v3 Basic Constraints: critical
                CA:TRUE, pathlen:0
            X509v3 Subject Key Identifier: 
                99:0C:43:36:FB:EA:E3:D9:A6:C6:74:8C:43:3B:21:F3:B0:95:93:83
            X509v3 Authority Key Identifier: 
                00:30:DB:DE:BC:86:FF:CB:F5:9C:AE:98:9E:00:95:91:71:35:00:8E
            Authority Information Access: 
                CA Issuers - URI:http://abb.abb/ca/root-ca.cer
            X509v3 CRL Distribution Points: 
                Full Name:
                  URI:http://abb.abb/ca/root-ca.crl
    Signature Algorithm: sha384WithRSAEncryption
    Signature Value:
        48:0b:67:77:f9:bd:18:ea:2f:d4:be:05:13:3f:a1:4e:46:d1:
        8e:17:5e:0a:a7:36:6d:e6:b6:96:54:b7:8c:bc:2b:f3:3e:44:
        aa:d3:e7:4a:f4:4f:72:2e:0f:a4:e6:e7:8c:21:9f:42:d7:68:
        77:93:52:ef:57:7d:a6:f9:b5:2f:e7:bf:46:c8:b3:af:06:94:
        2e:e4:7b:29:85:92:89:3a:81:7e:45:ed:aa:68:5b:e0:45:2a:
        56:e0:5d:26:e4:ef:6a:e1:18:80:4b:76:42:38:d2:ed:b9:f4:
        73:6a:ef:18:7b:3f:d5:41:e2:0f:06:61:e8:95:20:90:ed:5c:
        80:28:13:7c:b2:0a:2c:f4:d2:58:70:f7:23:0a:8f:c2:4a:ae:
        b5:4a:43:b9:db:65:20:7a:a6:66:af:2a:a9:91:db:e8:bb:62:
        77:fe:03:c6:ee:c6:a9:07:73:db:8c:94:4d:2a:91:86:a6:73:
        47:31:b9:e4:3c:28:b3:c1:6b:08:bb:03:80:88:9c:39:7b:6e:
        98:80:2b:53:1b:67:53:de:f8:df:e6:99:10:cb:ce:80:85:5f:
        e8:90:23:ed:9f:62:77:64:3c:a9:9d:12:95:7d:6f:3a:19:09:
        db:43:7e:77:76:2b:19:7c:a8:11:3e:08:14:a3:40:7c:92:38:
        6e:32:2e:34:34:15:58:3a:d4:5f:82:56:4c:68:2e:a3:60:11:
        77:5a:d1:81:ba:bb:8a:01:8e:12:ad:2e:d2:9e:b9:00:16:a4:
        e9:cb:3b:75:93:4c:da:f0:ca:00:38:83:3f:d3:d4:80:b4:09:
        2a:04:5c:e5:06:58:f9:a7:f2:b2:00:39:5c:b0:e1:53:70:19:
        fc:8e:c1:6b:bd:9b:88:17:68:95:e2:a4:5c:ce:61:c7:13:da:
        cc:1b:7e:bf:d9:03:cd:d6:cf:b0:c8:fc:d1:86:80:9c:5a:22:
        f6:b5:42:86:75:27:76:e4:06:24:93:1b:24:18:0c:44:46:61:
        a2:c2:a5:99:36:6a:7d:a6:03:e2:ee:5d:13:50:1f:e7:73:ec:
        c3:45:28:0b:61:09:17:ae:18:8d:c3:d6:02:d4:c4:f4:a7:be:
        07:73:77:1b:05:bb:53:9a:b9:bc:8f:5f:ed:b4:bb:69:d3:f4:
        2e:9f:43:a9:85:e5:82:f6:87:92:7d:94:ff:c7:bf:42:1f:d1:
        0a:3f:5c:74:19:db:a1:d4:a6:f0:15:5b:61:cd:41:1a:6a:78:
        56:e8:98:6c:1c:4e:46:dd:5d:ed:51:61:19:48:57:4f:94:d9:
        77:d0:05:dd:c4:ed:e9:61:7a:06:71:85:1f:99:50:a1:ef:f7:
        4b:a1:fe:fa:e3:aa:63:c9
-----BEGIN CERTIFICATE-----
MIIF0jCCA7qgAwIBAgIBAzANBgkqhkiG9w0BAQwFADBCMQswCQYDVQQGEwJDQTEN
MAsGA1UECgwEU0VMRjENMAsGA1UECwwEU0VMRjEVMBMGA1UEAwwMU0VMRiBSb290
IENBMB4XDTI0MDkwODE4MDkxNloXDTM0MDkwODE4MDkxNlowQjELMAkGA1UEBhMC
Q0ExDTALBgNVBAoMBFNFTEYxDTALBgNVBAsMBFNFTEYxFTATBgNVBAMMDFNFTEYg
QVVUSCBDQTCCAiIwDQYJKoZIhvcNAQEBBQADggIPADCCAgoCggIBAOFIkF+tI85t
FWIpkB2hdzsD9Vt9XZnvWlRXDsLOCMkhIgxQzrhQgo4e1pKOAx+ZnobUtmjriooC
BeHGa0Hox5Px4zEvNPbmOlBQ6Ao4Noljen5oXsD7bHAp/NzCj2NEmvqoEwPy6jWr
+G9Xn9c49Xo9bFZ/d1uKQxSOfw4HbsP+6toKktO+tnw/VG3ARNKRAMGQgQmF/HEM
9G5u5hzmRwGedYBBOkHA2w9PGbiN/sDk5fLoPz8JQdUEPMSTYcN8Yv2uFKg/dswL
tLX84YAm7alC7YXyWQ1Dj1F/Q23cIF88zVYsi+bArJ4oAMd3ADrIQ3YjfilBJNQB
HPBaDtDxIDl3gQonptx1UljWxdIW3tinoubRTUWrfRS2F/5xhvoq2glPbb5yvJM8
IHu1V4+IxCQB5ggP94wBKAwMOc3/zjGnaHW+frAqs2dV1vrC8a8NnoXMPodBP3gv
m2DBM8NK2cBFXTflKsw1/2H6AK2r84uNlKEa7wRf3DtrN8ZMGMQanvm2b9KG24zE
JZDUakUD8vET5tuCXz0nb/nz/brWCTHd5AHe+A2ljsMh8NTKMc3JaP+AgpM115WG
5jOvEeZhTsLTK3MjOBslZcP5YSVpT9L1Z+yXMY4Nc2wWT7RPqyZETz17g3JIMQ3m
IwZ5O6n7izu7p36wKrHvMNqEDpiPZqUdAgMBAAGjgdIwgc8wDgYDVR0PAQH/BAQD
AgEGMBIGA1UdEwEB/wQIMAYBAf8CAQAwHQYDVR0OBBYEFJkMQzb76uPZpsZ0jEM7
IfOwlZODMB8GA1UdIwQYMBaAFAAw2968hv/L9ZyumJ4AlZFxNQCOMDkGCCsGAQUF
BwEBBC0wKzApBggrBgEFBQcwAoYdaHR0cDovL2FiYi5hYmIvY2Evcm9vdC1jYS5j
ZXIwLgYDVR0fBCcwJTAjoCGgH4YdaHR0cDovL2FiYi5hYmIvY2Evcm9vdC1jYS5j
cmwwDQYJKoZIhvcNAQEMBQADggIBAEgLZ3f5vRjqL9S+BRM/oU5G0Y4XXgqnNm3m
tpZUt4y8K/M+RKrT50r0T3IuD6Tm54whn0LXaHeTUu9Xfab5tS/nv0bIs68GlC7k
eymFkok6gX5F7apoW+BFKlbgXSbk72rhGIBLdkI40u259HNq7xh7P9VB4g8GYeiV
IJDtXIAoE3yyCiz00lhw9yMKj8JKrrVKQ7nbZSB6pmavKqmR2+i7Ynf+A8buxqkH
c9uMlE0qkYamc0cxueQ8KLPBawi7A4CInDl7bpiAK1MbZ1Pe+N/mmRDLzoCFX+iQ
I+2fYndkPKmdEpV9bzoZCdtDfnd2Kxl8qBE+CBSjQHySOG4yLjQ0FVg61F+CVkxo
LqNgEXda0YG6u4oBjhKtLtKeuQAWpOnLO3WTTNrwygA4gz/T1IC0CSoEXOUGWPmn
8rIAOVyw4VNwGfyOwWu9m4gXaJXipFzOYccT2swbfr/ZA83Wz7DI/NGGgJxaIva1
QoZ1J3bkBiSTGyQYDERGYaLCpZk2an2mA+LuXRNQH+dz7MNFKAthCReuGI3D1gLU
xPSnvgdzdxsFu1OaubyPX+20u2nT9C6fQ6mF5YL2h5J9lP/Hv0If0Qo/XHQZ26HU
pvAVW2HNQRpqeFbomGwcTkbdXe1RYRlIV0+U2XfQBd3E7elhegZxhR+ZUKHv90uh
/vrjqmPJ
-----END CERTIFICATE-----
Certificate:
    Data:
        Version: 3 (0x2)
        Serial Number: 1 (0x1)
        Signature Algorithm: sha384WithRSAEncryption
        Issuer: C=CA, O=SELF, OU=SELF, CN=SELF Root CA
        Validity
            Not Before: Sep  8 18:09:12 2024 GMT
            Not After : Dec 31 23:59:59 2077 GMT
        Subject: C=CA, O=SELF, OU=SELF, CN=SELF Root CA
        Subject Public Key Info:
            Public Key Algorithm: rsaEncryption
                Public-Key: (4096 bit)
                Modulus:
                    00:c2:fa:e3:6d:c8:10:7b:ae:12:69:d7:73:5f:26:
                    82:43:cb:e0:5b:e4:75:14:d2:aa:3c:4d:88:53:8d:
                    02:14:88:40:af:75:23:30:a4:62:08:36:c2:39:8c:
                    96:75:1c:87:68:55:78:8b:0d:cb:53:15:a1:79:a9:
                    29:9b:68:6f:df:f0:58:93:21:25:52:bc:6e:15:b7:
                    68:fd:e4:bf:35:29:db:94:2e:a8:a4:0d:33:e3:7d:
                    e3:85:f3:09:72:09:74:9a:a5:0c:5c:42:ba:dd:a2:
                    5f:10:15:a0:2c:ab:64:87:c6:81:64:41:2a:b4:7b:
                    0e:9d:1a:16:d3:7d:e9:9d:3b:e6:c8:44:51:8f:9e:
                    46:cd:d7:5a:8b:24:eb:31:a0:30:df:0e:00:01:54:
                    b2:ee:9e:e5:2f:2f:1b:0d:84:47:3c:df:2a:4a:2a:
                    79:79:df:2c:bb:3b:83:f8:c3:cf:8b:40:5f:d5:9f:
                    e1:cd:41:6a:1f:bc:7a:78:fd:2d:4d:92:28:40:d3:
                    6a:17:17:61:76:79:42:e1:f2:75:34:15:50:b4:69:
                    b8:1c:a5:86:f3:2e:a6:7e:56:1f:17:11:93:73:e1:
                    cc:ad:19:c4:c0:68:7d:c7:5c:eb:42:cc:49:50:13:
                    9f:d1:bd:ac:0c:a8:52:9b:ba:c8:5d:07:7e:ee:b9:
                    86:0e:91:15:d2:01:44:3d:78:0e:3f:31:ab:b5:96:
                    3b:6a:3a:db:3f:48:8e:5c:35:51:71:35:c7:f1:02:
                    bd:01:e5:99:3c:ad:ff:f4:28:97:58:b5:43:33:00:
                    be:a8:22:33:38:8d:8b:34:15:fd:d7:37:8b:54:39:
                    b3:d6:d1:21:6c:1a:fe:af:d4:e2:45:06:c3:5d:cf:
                    b7:3d:3f:66:fc:26:eb:2d:bf:5c:16:86:1b:d8:55:
                    8e:a8:9d:00:d2:94:63:aa:47:dc:44:78:b3:c0:f2:
                    12:a0:fe:51:35:c7:b3:b4:39:c0:78:76:74:68:8e:
                    e8:6e:67:a1:c2:89:b9:e6:ea:d3:75:b8:16:59:dd:
                    63:34:4f:19:e3:f3:15:01:86:fe:bf:4e:dc:9f:56:
                    b2:ae:84:d8:d3:a7:ed:a0:25:49:ef:d4:16:36:0c:
                    36:72:7e:a9:9c:fd:d1:e3:d6:26:93:bc:77:14:c1:
                    01:c3:c1:64:cf:0f:09:52:80:60:ab:a7:dc:77:57:
                    e2:04:ce:52:68:a5:1f:c6:dc:30:22:4b:21:e3:6f:
                    c1:44:32:51:ac:2b:c4:b2:4d:61:5a:c6:e7:46:03:
                    b4:17:e3:b5:be:94:01:f5:7e:ba:cc:db:9c:6b:36:
                    d7:70:6a:2f:ec:fe:ac:27:bd:53:7a:d8:3f:a8:84:
                    b2:d6:59
                Exponent: 65537 (0x10001)
        X509v3 extensions:
            X509v3 Key Usage: critical
                Certificate Sign, CRL Sign
            X509v3 Basic Constraints: critical
                CA:TRUE
            X509v3 Subject Key Identifier: 
                00:30:DB:DE:BC:86:FF:CB:F5:9C:AE:98:9E:00:95:91:71:35:00:8E
            X509v3 Authority Key Identifier: 
                00:30:DB:DE:BC:86:FF:CB:F5:9C:AE:98:9E:00:95:91:71:35:00:8E
    Signature Algorithm: sha384WithRSAEncryption
    Signature Value:
        23:5e:8a:51:62:7f:4e:7c:44:2e:f5:77:2f:88:98:1f:ce:ac:
        a5:62:bb:28:9e:a1:bb:eb:7d:90:2d:c0:84:33:41:f5:05:ab:
        05:cf:5c:da:f4:23:5b:66:ca:63:5e:2d:b6:30:d6:85:d3:8f:
        6a:1e:6e:87:57:e6:a7:3b:e5:3a:05:f9:3e:7a:3e:04:07:f6:
        0a:3b:86:4a:28:7e:ba:b7:67:62:1b:9d:99:3e:1e:3c:ae:67:
        fd:0f:1e:9c:1d:ef:8b:99:d6:4e:1e:30:63:2e:a4:49:c8:93:
        1d:9b:3f:b8:c4:03:84:6d:5d:e1:0a:6b:ef:3b:1f:a8:0b:ab:
        30:6a:d1:4b:82:03:d8:de:42:fb:d0:d0:73:82:14:75:ff:8c:
        cb:90:98:c5:75:2a:d8:cf:7c:5e:d2:a9:1d:ec:50:43:25:25:
        66:18:cc:08:a9:21:17:2d:04:c3:8a:0d:f2:34:84:57:27:25:
        82:59:20:d9:03:ad:39:3b:0e:25:03:92:0b:5a:65:94:bf:c7:
        0c:a7:63:d2:4f:8d:00:bd:33:53:83:e2:36:1a:b1:8b:7c:b5:
        5b:f3:bf:36:d1:e6:eb:5e:60:e8:81:bf:02:45:84:4d:c5:04:
        ff:80:94:36:28:d9:a0:5e:51:6d:f0:e5:f5:e7:2a:e1:bf:4d:
        d2:2d:05:3e:7c:11:ac:03:f8:4c:8c:fc:4e:d2:cc:e4:f6:88:
        d5:73:7f:20:e4:63:c9:dd:31:dd:f9:cf:93:87:28:57:bb:50:
        60:86:f7:5c:fd:42:c6:ec:82:30:b7:89:97:6a:c4:14:d6:a2:
        9b:82:93:29:d6:f7:9e:8c:00:91:72:1f:6d:6a:03:71:d3:0f:
        cf:af:1e:63:d0:38:74:92:3f:fd:b5:a3:cc:8f:86:f2:a7:73:
        b9:0a:27:a2:2a:53:f2:e9:ef:6e:0c:95:d8:31:a7:55:2d:b3:
        c5:43:bb:e6:4b:73:f7:04:94:c5:1a:4f:69:ab:22:c6:e6:de:
        53:0e:f3:a4:05:7e:73:14:8b:d0:fc:6e:fa:ce:79:0c:96:2a:
        bc:49:d3:09:64:c7:19:5f:8d:34:02:7b:d3:ac:76:15:17:ee:
        cf:7d:7f:b3:0e:7d:a1:7c:9f:b4:22:33:e1:34:88:81:46:bb:
        d0:a2:a4:17:b2:1d:e4:66:b2:83:e3:2b:10:66:d6:70:c0:d4:
        8c:58:45:11:cc:10:e9:75:cf:a4:51:ea:04:f8:73:de:11:69:
        47:06:5f:5e:5b:8f:4e:65:91:d4:d5:98:bd:7d:58:5f:ab:9f:
        c7:d8:2c:09:8d:0a:f7:3c:c4:3b:a5:1d:cb:82:ba:66:82:d9:
        08:5b:a8:3f:af:51:a1:9c
-----BEGIN CERTIFICATE-----
MIIFZDCCA0ygAwIBAgIBATANBgkqhkiG9w0BAQwFADBCMQswCQYDVQQGEwJDQTEN
MAsGA1UECgwEU0VMRjENMAsGA1UECwwEU0VMRjEVMBMGA1UEAwwMU0VMRiBSb290
IENBMCAXDTI0MDkwODE4MDkxMloYDzIwNzcxMjMxMjM1OTU5WjBCMQswCQYDVQQG
EwJDQTENMAsGA1UECgwEU0VMRjENMAsGA1UECwwEU0VMRjEVMBMGA1UEAwwMU0VM
RiBSb290IENBMIICIjANBgkqhkiG9w0BAQEFAAOCAg8AMIICCgKCAgEAwvrjbcgQ
e64SaddzXyaCQ8vgW+R1FNKqPE2IU40CFIhAr3UjMKRiCDbCOYyWdRyHaFV4iw3L
UxWheakpm2hv3/BYkyElUrxuFbdo/eS/NSnblC6opA0z433jhfMJcgl0mqUMXEK6
3aJfEBWgLKtkh8aBZEEqtHsOnRoW033pnTvmyERRj55GzddaiyTrMaAw3w4AAVSy
7p7lLy8bDYRHPN8qSip5ed8suzuD+MPPi0Bf1Z/hzUFqH7x6eP0tTZIoQNNqFxdh
dnlC4fJ1NBVQtGm4HKWG8y6mflYfFxGTc+HMrRnEwGh9x1zrQsxJUBOf0b2sDKhS
m7rIXQd+7rmGDpEV0gFEPXgOPzGrtZY7ajrbP0iOXDVRcTXH8QK9AeWZPK3/9CiX
WLVDMwC+qCIzOI2LNBX91zeLVDmz1tEhbBr+r9TiRQbDXc+3PT9m/CbrLb9cFoYb
2FWOqJ0A0pRjqkfcRHizwPISoP5RNceztDnAeHZ0aI7obmehwom55urTdbgWWd1j
NE8Z4/MVAYb+v07cn1ayroTY06ftoCVJ79QWNgw2cn6pnP3R49Ymk7x3FMEBw8Fk
zw8JUoBgq6fcd1fiBM5SaKUfxtwwIksh42/BRDJRrCvEsk1hWsbnRgO0F+O1vpQB
9X66zNucazbXcGov7P6sJ71Tetg/qISy1lkCAwEAAaNjMGEwDgYDVR0PAQH/BAQD
AgEGMA8GA1UdEwEB/wQFMAMBAf8wHQYDVR0OBBYEFAAw2968hv/L9ZyumJ4AlZFx
NQCOMB8GA1UdIwQYMBaAFAAw2968hv/L9ZyumJ4AlZFxNQCOMA0GCSqGSIb3DQEB
DAUAA4ICAQAjXopRYn9OfEQu9XcviJgfzqylYrsonqG7632QLcCEM0H1BasFz1za
9CNbZspjXi22MNaF049qHm6HV+anO+U6Bfk+ej4EB/YKO4ZKKH66t2diG52ZPh48
rmf9Dx6cHe+LmdZOHjBjLqRJyJMdmz+4xAOEbV3hCmvvOx+oC6swatFLggPY3kL7
0NBzghR1/4zLkJjFdSrYz3xe0qkd7FBDJSVmGMwIqSEXLQTDig3yNIRXJyWCWSDZ
A605Ow4lA5ILWmWUv8cMp2PST40AvTNTg+I2GrGLfLVb87820ebrXmDogb8CRYRN
xQT/gJQ2KNmgXlFt8OX15yrhv03SLQU+fBGsA/hMjPxO0szk9ojVc38g5GPJ3THd
+c+ThyhXu1Bghvdc/ULG7IIwt4mXasQU1qKbgpMp1veejACRch9tagNx0w/Prx5j
0Dh0kj/9taPMj4byp3O5CieiKlPy6e9uDJXYMadVLbPFQ7vmS3P3BJTFGk9pqyLG
5t5TDvOkBX5zFIvQ/G76znkMliq8SdMJZMcZX400AnvTrHYVF+7PfX+zDn2hfJ+0
IjPhNIiBRrvQoqQXsh3kZrKD4ysQZtZwwNSMWEURzBDpdc+kUeoE+HPeEWlHBl9e
W49OZZHU1Zi9fVhfq5/H2CwJjQr3PMQ7pR3LgrpmgtkIW6g/r1GhnA==
-----END CERTIFICATE-----
