Certificate:
    Data:
        Version: 3 (0x2)
        Serial Number: 2 (0x2)
        Signature Algorithm: sha384WithRSAEncryption
        Issuer: C=CA, O=SELF, OU=SELF, CN=SELF Root CA
        Validity
            Not Before: Sep  8 18:09:13 2024 GMT
            Not After : Sep  8 18:09:13 2034 GMT
        Subject: C=CA, O=SELF, OU=SELF, CN=SELF IDENTITY CA
        Subject Public Key Info:
            Public Key Algorithm: rsaEncryption
                Public-Key: (4096 bit)
                Modulus:
                    00:a4:19:a8:5c:52:06:f0:4b:e5:38:42:4a:5d:15:
                    ba:95:cd:95:5c:6a:74:bb:d9:ce:75:15:6b:f8:e2:
                    42:64:8d:b9:62:5f:e6:29:c6:a2:85:72:b2:46:87:
                    dd:ab:db:4e:3f:48:7e:08:4d:d8:f3:33:3b:10:5b:
                    b4:14:ce:69:27:3e:01:ba:44:93:80:47:62:20:16:
                    61:b4:b4:2e:f4:97:ef:9a:f0:65:16:3a:8f:95:86:
                    b7:fb:75:25:b1:81:44:3a:91:ba:79:e2:ac:cd:34:
                    f5:1f:81:6c:5e:f9:03:3d:d6:e4:df:43:58:a3:34:
                    a9:f9:da:32:f6:74:ba:b3:ed:ec:df:8e:1b:ca:4f:
                    23:78:55:bc:12:4e:84:b9:69:24:ce:4e:9f:c3:68:
                    c5:cb:f7:0e:81:2b:79:87:31:10:40:ef:94:d2:8d:
                    c7:21:1b:4c:2c:eb:5a:2f:89:27:46:56:c1:14:d4:
                    e0:ad:ee:1a:bb:06:af:87:85:43:89:d4:0f:3c:55:
                    d3:04:e9:85:1f:c8:5a:0f:01:38:59:d9:93:94:e2:
                    55:df:da:76:a7:df:9b:d4:c9:42:ab:a9:db:e7:35:
                    cc:53:03:bf:61:2c:a3:73:51:cc:96:a5:6a:2a:2c:
                    d6:da:65:3e:8c:10:9d:43:5e:41:4f:f3:a7:52:4b:
                    34:1e:dc:39:0a:59:a4:96:70:47:77:6f:09:22:28:
                    49:a8:4a:88:97:b4:60:75:7c:23:7e:14:94:af:2e:
                    9d:ac:2b:65:ca:4b:00:42:aa:62:aa:4a:16:f8:eb:
                    ee:24:26:0b:4a:25:81:bd:22:7e:ec:d0:97:e3:1c:
                    1b:92:b1:97:91:30:ee:56:7f:40:54:1d:f9:34:69:
                    62:46:9a:56:00:06:f2:ff:79:20:b3:4d:75:f8:e6:
                    f5:cc:ec:65:e3:f8:55:47:2d:f9:d8:aa:25:63:8a:
                    99:d4:d4:d4:b3:00:72:5b:35:19:82:5b:68:a3:9c:
                    80:8a:26:80:e6:1c:c6:0e:c0:f7:7c:34:3b:6a:fb:
                    47:e1:0d:8e:f5:0b:3b:47:fe:75:b7:e4:8e:4e:61:
                    78:e0:5c:82:9a:0e:36:2c:8b:6c:79:78:0a:02:56:
                    a0:2b:57:a7:95:a1:9c:09:a5:5e:2f:c9:e1:0c:7e:
                    93:c8:68:77:cd:c3:2a:0c:c2:66:3a:dc:04:18:5e:
                    fa:56:c2:e7:ca:a1:8b:05:90:78:d4:1f:b2:14:78:
                    ad:62:0a:7c:a3:57:60:bf:1c:80:eb:8c:86:ab:34:
                    21:34:b4:e7:19:12:8e:4b:a4:db:6a:5d:14:79:df:
                    f8:07:fe:58:f8:c0:4a:02:d2:cb:21:1a:e2:4f:bb:
                    2e:00:cd
                Exponent: 65537 (0x10001)
        X509v3 extensions:
            X509v3 Key Usage: critical
                Certificate Sign, CRL Sign
            X509v3 Basic Constraints: critical
                CA:TRUE, pathlen:0
            X509v3 Subject Key Identifier: 
                97:6E:F5:B1:38:A0:FA:55:28:0D:D5:CC:E2:C3:41:F9:6F:F7:2E:57
            X509v3 Authority Key Identifier: 
                00:30:DB:DE:BC:86:FF:CB:F5:9C:AE:98:9E:00:95:91:71:35:00:8E
            Authority Information Access: 
                CA Issuers - URI:http://abb.abb/ca/root-ca.cer
            X509v3 CRL Distribution Points: 
                Full Name:
                  URI:http://abb.abb/ca/root-ca.crl
    Signature Algorithm: sha384WithRSAEncryption
    Signature Value:
        71:97:62:44:24:a7:32:d1:e7:1c:04:63:5d:ee:b7:51:b9:e1:
        ca:38:9b:7b:05:92:9b:9f:78:9d:19:91:4e:4e:46:b6:16:28:
        15:03:f1:8b:ee:3a:1c:2f:cd:95:97:2b:3c:23:32:fe:e5:89:
        73:87:88:c2:34:d6:41:91:df:32:ed:47:33:69:c8:9b:04:4f:
        9b:0e:1f:1d:63:12:75:bf:20:96:a7:f0:de:58:bb:fe:32:32:
        09:b0:c2:53:6d:11:3b:c1:78:9a:5d:98:13:36:49:e3:a1:97:
        a5:fc:00:8d:1f:c7:90:78:18:71:b7:57:ae:93:dd:ea:1f:ff:
        71:83:b4:bb:26:e0:7a:fb:a5:34:f0:23:86:d3:6b:0b:c4:ca:
        ac:35:ac:21:47:46:9f:2e:bd:d7:b1:e2:93:c6:26:0d:e0:ee:
        b9:30:a8:d6:c4:85:ff:31:41:b8:2b:a8:1e:b9:f8:2f:11:7c:
        b2:78:ef:5e:d1:6e:1e:09:bb:eb:44:1b:44:f3:2a:45:84:f1:
        61:9c:cc:bc:92:77:7b:86:72:38:77:dc:68:22:9b:27:49:01:
        f1:b1:9a:d0:30:e9:3f:bd:81:36:1b:03:e9:73:31:f4:9f:51:
        e6:5f:97:75:dd:c0:82:86:fe:01:59:7e:ec:ff:03:76:94:85:
        2d:b6:c6:8f:7d:0c:2b:b6:8f:5d:03:22:87:45:a3:ac:03:76:
        62:53:26:92:30:a2:5e:6e:c9:55:26:86:2b:87:21:39:4f:a3:
        67:ae:af:35:95:0f:f7:df:0e:58:ab:64:0c:15:db:e5:17:64:
        bd:ab:37:4c:29:60:dd:2e:9c:b8:be:8b:50:c5:4f:48:fc:48:
        7c:f9:74:6a:87:70:4f:00:d0:c9:98:6f:0d:18:87:0e:56:4c:
        82:6f:a0:01:64:27:7f:2e:ac:d5:c4:ce:10:37:33:c8:7f:25:
        41:fe:a9:4b:58:5a:61:4b:9a:e3:5d:fd:1e:20:9d:f3:a6:c4:
        2e:f4:6a:03:05:09:cb:0a:d9:cc:6a:1c:58:fd:da:19:8f:b6:
        24:0e:1a:66:34:77:ab:96:6f:04:20:db:aa:30:65:78:00:c3:
        b9:37:c4:ff:2a:b3:3d:73:e5:8c:ef:00:25:62:d5:f2:35:88:
        11:50:61:fb:70:f3:fd:a4:68:23:4c:cd:52:61:87:fd:19:45:
        b8:58:f4:9a:9f:c3:70:4f:de:1e:5a:be:3a:5d:21:9e:4f:9a:
        54:c3:29:9a:02:da:dc:5b:9c:6d:ab:09:ea:ff:ad:8a:7f:a7:
        12:ed:b2:ad:76:e1:4f:59:23:15:bf:15:29:eb:da:8a:32:62:
        aa:cc:ad:0a:e8:53:3f:b5
-----BEGIN CERTIFICATE-----
MIIF1jCCA76gAwIBAgIBAjANBgkqhkiG9w0BAQwFADBCMQswCQYDVQQGEwJDQTEN
MAsGA1UECgwEU0VMRjENMAsGA1UECwwEU0VMRjEVMBMGA1UEAwwMU0VMRiBSb290
IENBMB4XDTI0MDkwODE4MDkxM1oXDTM0MDkwODE4MDkxM1owRjELMAkGA1UEBhMC
Q0ExDTALBgNVBAoMBFNFTEYxDTALBgNVBAsMBFNFTEYxGTAXBgNVBAMMEFNFTEYg
SURFTlRJVFkgQ0EwggIiMA0GCSqGSIb3DQEBAQUAA4ICDwAwggIKAoICAQCkGahc
UgbwS+U4QkpdFbqVzZVcanS72c51FWv44kJkjbliX+YpxqKFcrJGh92r204/SH4I
TdjzMzsQW7QUzmknPgG6RJOAR2IgFmG0tC70l++a8GUWOo+Vhrf7dSWxgUQ6kbp5
4qzNNPUfgWxe+QM91uTfQ1ijNKn52jL2dLqz7ezfjhvKTyN4VbwSToS5aSTOTp/D
aMXL9w6BK3mHMRBA75TSjcchG0ws61oviSdGVsEU1OCt7hq7Bq+HhUOJ1A88VdME
6YUfyFoPAThZ2ZOU4lXf2nan35vUyUKrqdvnNcxTA79hLKNzUcyWpWoqLNbaZT6M
EJ1DXkFP86dSSzQe3DkKWaSWcEd3bwkiKEmoSoiXtGB1fCN+FJSvLp2sK2XKSwBC
qmKqShb46+4kJgtKJYG9In7s0JfjHBuSsZeRMO5Wf0BUHfk0aWJGmlYABvL/eSCz
TXX45vXM7GXj+FVHLfnYqiVjipnU1NSzAHJbNRmCW2ijnICKJoDmHMYOwPd8NDtq
+0fhDY71CztH/nW35I5OYXjgXIKaDjYsi2x5eAoCVqArV6eVoZwJpV4vyeEMfpPI
aHfNwyoMwmY63AQYXvpWwufKoYsFkHjUH7IUeK1iCnyjV2C/HIDrjIarNCE0tOcZ
Eo5LpNtqXRR53/gH/lj4wEoC0sshGuJPuy4AzQIDAQABo4HSMIHPMA4GA1UdDwEB
/wQEAwIBBjASBgNVHRMBAf8ECDAGAQH/AgEAMB0GA1UdDgQWBBSXbvWxOKD6VSgN
1cziw0H5b/cuVzAfBgNVHSMEGDAWgBQAMNvevIb/y/WcrpieAJWRcTUAjjA5Bggr
BgEFBQcBAQQtMCswKQYIKwYBBQUHMAKGHWh0dHA6Ly9hYmIuYWJiL2NhL3Jvb3Qt
Y2EuY2VyMC4GA1UdHwQnMCUwI6AhoB+GHWh0dHA6Ly9hYmIuYWJiL2NhL3Jvb3Qt
Y2EuY3JsMA0GCSqGSIb3DQEBDAUAA4ICAQBxl2JEJKcy0eccBGNd7rdRueHKOJt7
BZKbn3idGZFOTka2FigVA/GL7jocL82Vlys8IzL+5Ylzh4jCNNZBkd8y7Uczacib
BE+bDh8dYxJ1vyCWp/DeWLv+MjIJsMJTbRE7wXiaXZgTNknjoZel/ACNH8eQeBhx
t1euk93qH/9xg7S7JuB6+6U08COG02sLxMqsNawhR0afLr3XseKTxiYN4O65MKjW
xIX/MUG4K6geufgvEXyyeO9e0W4eCbvrRBtE8ypFhPFhnMy8knd7hnI4d9xoIpsn
SQHxsZrQMOk/vYE2GwPpczH0n1HmX5d13cCChv4BWX7s/wN2lIUttsaPfQwrto9d
AyKHRaOsA3ZiUyaSMKJebslVJoYrhyE5T6Nnrq81lQ/33w5Yq2QMFdvlF2S9qzdM
KWDdLpy4votQxU9I/Eh8+XRqh3BPANDJmG8NGIcOVkyCb6ABZCd/LqzVxM4QNzPI
fyVB/qlLWFphS5rjXf0eIJ3zpsQu9GoDBQnLCtnMahxY/doZj7YkDhpmNHerlm8E
INuqMGV4AMO5N8T/KrM9c+WM7wAlYtXyNYgRUGH7cPP9pGgjTM1SYYf9GUW4WPSa
n8NwT94eWr46XSGeT5pUwymaAtrcW5xtqwnq/62Kf6cS7bKtduFPWSMVvxUp69qK
MmKqzK0K6FM/tQ==
-----END CERTIFICATE-----
Certificate:
    Data:
        Version: 3 (0x2)
        Serial Number: 1 (0x1)
        Signature Algorithm: sha384WithRSAEncryption
        Issuer: C=CA, O=SELF, OU=SELF, CN=SELF Root CA
        Validity
            Not Before: Sep  8 18:09:12 2024 GMT
            Not After : Dec 31 23:59:59 2077 GMT
        Subject: C=CA, O=SELF, OU=SELF, CN=SELF Root CA
        Subject Public Key Info:
            Public Key Algorithm: rsaEncryption
                Public-Key: (4096 bit)
                Modulus:
                    00:c2:fa:e3:6d:c8:10:7b:ae:12:69:d7:73:5f:26:
                    82:43:cb:e0:5b:e4:75:14:d2:aa:3c:4d:88:53:8d:
                    02:14:88:40:af:75:23:30:a4:62:08:36:c2:39:8c:
                    96:75:1c:87:68:55:78:8b:0d:cb:53:15:a1:79:a9:
                    29:9b:68:6f:df:f0:58:93:21:25:52:bc:6e:15:b7:
                    68:fd:e4:bf:35:29:db:94:2e:a8:a4:0d:33:e3:7d:
                    e3:85:f3:09:72:09:74:9a:a5:0c:5c:42:ba:dd:a2:
                    5f:10:15:a0:2c:ab:64:87:c6:81:64:41:2a:b4:7b:
                    0e:9d:1a:16:d3:7d:e9:9d:3b:e6:c8:44:51:8f:9e:
                    46:cd:d7:5a:8b:24:eb:31:a0:30:df:0e:00:01:54:
                    b2:ee:9e:e5:2f:2f:1b:0d:84:47:3c:df:2a:4a:2a:
                    79:79:df:2c:bb:3b:83:f8:c3:cf:8b:40:5f:d5:9f:
                    e1:cd:41:6a:1f:bc:7a:78:fd:2d:4d:92:28:40:d3:
                    6a:17:17:61:76:79:42:e1:f2:75:34:15:50:b4:69:
                    b8:1c:a5:86:f3:2e:a6:7e:56:1f:17:11:93:73:e1:
                    cc:ad:19:c4:c0:68:7d:c7:5c:eb:42:cc:49:50:13:
                    9f:d1:bd:ac:0c:a8:52:9b:ba:c8:5d:07:7e:ee:b9:
                    86:0e:91:15:d2:01:44:3d:78:0e:3f:31:ab:b5:96:
                    3b:6a:3a:db:3f:48:8e:5c:35:51:71:35:c7:f1:02:
                    bd:01:e5:99:3c:ad:ff:f4:28:97:58:b5:43:33:00:
                    be:a8:22:33:38:8d:8b:34:15:fd:d7:37:8b:54:39:
                    b3:d6:d1:21:6c:1a:fe:af:d4:e2:45:06:c3:5d:cf:
                    b7:3d:3f:66:fc:26:eb:2d:bf:5c:16:86:1b:d8:55:
                    8e:a8:9d:00:d2:94:63:aa:47:dc:44:78:b3:c0:f2:
                    12:a0:fe:51:35:c7:b3:b4:39:c0:78:76:74:68:8e:
                    e8:6e:67:a1:c2:89:b9:e6:ea:d3:75:b8:16:59:dd:
                    63:34:4f:19:e3:f3:15:01:86:fe:bf:4e:dc:9f:56:
                    b2:ae:84:d8:d3:a7:ed:a0:25:49:ef:d4:16:36:0c:
                    36:72:7e:a9:9c:fd:d1:e3:d6:26:93:bc:77:14:c1:
                    01:c3:c1:64:cf:0f:09:52:80:60:ab:a7:dc:77:57:
                    e2:04:ce:52:68:a5:1f:c6:dc:30:22:4b:21:e3:6f:
                    c1:44:32:51:ac:2b:c4:b2:4d:61:5a:c6:e7:46:03:
                    b4:17:e3:b5:be:94:01:f5:7e:ba:cc:db:9c:6b:36:
                    d7:70:6a:2f:ec:fe:ac:27:bd:53:7a:d8:3f:a8:84:
                    b2:d6:59
                Exponent: 65537 (0x10001)
        X509v3 extensions:
            X509v3 Key Usage: critical
                Certificate Sign, CRL Sign
            X509v3 Basic Constraints: critical
                CA:TRUE
            X509v3 Subject Key Identifier: 
                00:30:DB:DE:BC:86:FF:CB:F5:9C:AE:98:9E:00:95:91:71:35:00:8E
            X509v3 Authority Key Identifier: 
                00:30:DB:DE:BC:86:FF:CB:F5:9C:AE:98:9E:00:95:91:71:35:00:8E
    Signature Algorithm: sha384WithRSAEncryption
    Signature Value:
        23:5e:8a:51:62:7f:4e:7c:44:2e:f5:77:2f:88:98:1f:ce:ac:
        a5:62:bb:28:9e:a1:bb:eb:7d:90:2d:c0:84:33:41:f5:05:ab:
        05:cf:5c:da:f4:23:5b:66:ca:63:5e:2d:b6:30:d6:85:d3:8f:
        6a:1e:6e:87:57:e6:a7:3b:e5:3a:05:f9:3e:7a:3e:04:07:f6:
        0a:3b:86:4a:28:7e:ba:b7:67:62:1b:9d:99:3e:1e:3c:ae:67:
        fd:0f:1e:9c:1d:ef:8b:99:d6:4e:1e:30:63:2e:a4:49:c8:93:
        1d:9b:3f:b8:c4:03:84:6d:5d:e1:0a:6b:ef:3b:1f:a8:0b:ab:
        30:6a:d1:4b:82:03:d8:de:42:fb:d0:d0:73:82:14:75:ff:8c:
        cb:90:98:c5:75:2a:d8:cf:7c:5e:d2:a9:1d:ec:50:43:25:25:
        66:18:cc:08:a9:21:17:2d:04:c3:8a:0d:f2:34:84:57:27:25:
        82:59:20:d9:03:ad:39:3b:0e:25:03:92:0b:5a:65:94:bf:c7:
        0c:a7:63:d2:4f:8d:00:bd:33:53:83:e2:36:1a:b1:8b:7c:b5:
        5b:f3:bf:36:d1:e6:eb:5e:60:e8:81:bf:02:45:84:4d:c5:04:
        ff:80:94:36:28:d9:a0:5e:51:6d:f0:e5:f5:e7:2a:e1:bf:4d:
        d2:2d:05:3e:7c:11:ac:03:f8:4c:8c:fc:4e:d2:cc:e4:f6:88:
        d5:73:7f:20:e4:63:c9:dd:31:dd:f9:cf:93:87:28:57:bb:50:
        60:86:f7:5c:fd:42:c6:ec:82:30:b7:89:97:6a:c4:14:d6:a2:
        9b:82:93:29:d6:f7:9e:8c:00:91:72:1f:6d:6a:03:71:d3:0f:
        cf:af:1e:63:d0:38:74:92:3f:fd:b5:a3:cc:8f:86:f2:a7:73:
        b9:0a:27:a2:2a:53:f2:e9:ef:6e:0c:95:d8:31:a7:55:2d:b3:
        c5:43:bb:e6:4b:73:f7:04:94:c5:1a:4f:69:ab:22:c6:e6:de:
        53:0e:f3:a4:05:7e:73:14:8b:d0:fc:6e:fa:ce:79:0c:96:2a:
        bc:49:d3:09:64:c7:19:5f:8d:34:02:7b:d3:ac:76:15:17:ee:
        cf:7d:7f:b3:0e:7d:a1:7c:9f:b4:22:33:e1:34:88:81:46:bb:
        d0:a2:a4:17:b2:1d:e4:66:b2:83:e3:2b:10:66:d6:70:c0:d4:
        8c:58:45:11:cc:10:e9:75:cf:a4:51:ea:04:f8:73:de:11:69:
        47:06:5f:5e:5b:8f:4e:65:91:d4:d5:98:bd:7d:58:5f:ab:9f:
        c7:d8:2c:09:8d:0a:f7:3c:c4:3b:a5:1d:cb:82:ba:66:82:d9:
        08:5b:a8:3f:af:51:a1:9c
-----BEGIN CERTIFICATE-----
MIIFZDCCA0ygAwIBAgIBATANBgkqhkiG9w0BAQwFADBCMQswCQYDVQQGEwJDQTEN
MAsGA1UECgwEU0VMRjENMAsGA1UECwwEU0VMRjEVMBMGA1UEAwwMU0VMRiBSb290
IENBMCAXDTI0MDkwODE4MDkxMloYDzIwNzcxMjMxMjM1OTU5WjBCMQswCQYDVQQG
EwJDQTENMAsGA1UECgwEU0VMRjENMAsGA1UECwwEU0VMRjEVMBMGA1UEAwwMU0VM
RiBSb290IENBMIICIjANBgkqhkiG9w0BAQEFAAOCAg8AMIICCgKCAgEAwvrjbcgQ
e64SaddzXyaCQ8vgW+R1FNKqPE2IU40CFIhAr3UjMKRiCDbCOYyWdRyHaFV4iw3L
UxWheakpm2hv3/BYkyElUrxuFbdo/eS/NSnblC6opA0z433jhfMJcgl0mqUMXEK6
3aJfEBWgLKtkh8aBZEEqtHsOnRoW033pnTvmyERRj55GzddaiyTrMaAw3w4AAVSy
7p7lLy8bDYRHPN8qSip5ed8suzuD+MPPi0Bf1Z/hzUFqH7x6eP0tTZIoQNNqFxdh
dnlC4fJ1NBVQtGm4HKWG8y6mflYfFxGTc+HMrRnEwGh9x1zrQsxJUBOf0b2sDKhS
m7rIXQd+7rmGDpEV0gFEPXgOPzGrtZY7ajrbP0iOXDVRcTXH8QK9AeWZPK3/9CiX
WLVDMwC+qCIzOI2LNBX91zeLVDmz1tEhbBr+r9TiRQbDXc+3PT9m/CbrLb9cFoYb
2FWOqJ0A0pRjqkfcRHizwPISoP5RNceztDnAeHZ0aI7obmehwom55urTdbgWWd1j
NE8Z4/MVAYb+v07cn1ayroTY06ftoCVJ79QWNgw2cn6pnP3R49Ymk7x3FMEBw8Fk
zw8JUoBgq6fcd1fiBM5SaKUfxtwwIksh42/BRDJRrCvEsk1hWsbnRgO0F+O1vpQB
9X66zNucazbXcGov7P6sJ71Tetg/qISy1lkCAwEAAaNjMGEwDgYDVR0PAQH/BAQD
AgEGMA8GA1UdEwEB/wQFMAMBAf8wHQYDVR0OBBYEFAAw2968hv/L9ZyumJ4AlZFx
NQCOMB8GA1UdIwQYMBaAFAAw2968hv/L9ZyumJ4AlZFxNQCOMA0GCSqGSIb3DQEB
DAUAA4ICAQAjXopRYn9OfEQu9XcviJgfzqylYrsonqG7632QLcCEM0H1BasFz1za
9CNbZspjXi22MNaF049qHm6HV+anO+U6Bfk+ej4EB/YKO4ZKKH66t2diG52ZPh48
rmf9Dx6cHe+LmdZOHjBjLqRJyJMdmz+4xAOEbV3hCmvvOx+oC6swatFLggPY3kL7
0NBzghR1/4zLkJjFdSrYz3xe0qkd7FBDJSVmGMwIqSEXLQTDig3yNIRXJyWCWSDZ
A605Ow4lA5ILWmWUv8cMp2PST40AvTNTg+I2GrGLfLVb87820ebrXmDogb8CRYRN
xQT/gJQ2KNmgXlFt8OX15yrhv03SLQU+fBGsA/hMjPxO0szk9ojVc38g5GPJ3THd
+c+ThyhXu1Bghvdc/ULG7IIwt4mXasQU1qKbgpMp1veejACRch9tagNx0w/Prx5j
0Dh0kj/9taPMj4byp3O5CieiKlPy6e9uDJXYMadVLbPFQ7vmS3P3BJTFGk9pqyLG
5t5TDvOkBX5zFIvQ/G76znkMliq8SdMJZMcZX400AnvTrHYVF+7PfX+zDn2hfJ+0
IjPhNIiBRrvQoqQXsh3kZrKD4ysQZtZwwNSMWEURzBDpdc+kUeoE+HPeEWlHBl9e
W49OZZHU1Zi9fVhfq5/H2CwJjQr3PMQ7pR3LgrpmgtkIW6g/r1GhnA==
-----END CERTIFICATE-----
