Certificate:
    Data:
        Version: 3 (0x2)
        Serial Number: 2 (0x2)
        Signature Algorithm: ecdsa-with-SHA384
        Issuer: C=CA, O=SELF, OU=SELF, CN=SELF Root CA
        Validity
            Not Before: Sep 18 19:56:19 2024 GMT
            Not After : Sep 18 19:56:19 2034 GMT
        Subject: C=CA, O=SELF, OU=SELF, CN=SELF IDENTITY CA
        Subject Public Key Info:
            Public Key Algorithm: id-ecPublicKey
                Public-Key: (112 bit)
                pub:
                    04:c5:7c:09:c4:4e:8d:76:92:65:c6:65:07:f4:00:
                    42:d8:53:7a:cf:b4:56:44:77:b6:3d:bf:82:5f
                ASN1 OID: secp112r1
        X509v3 extensions:
            X509v3 Key Usage: critical
                Certificate Sign, CRL Sign
            X509v3 Basic Constraints: critical
                CA:TRUE, pathlen:0
            X509v3 Subject Key Identifier: 
                E3:0C:8A:D7:0E:D8:81:08:23:47:EF:78:EF:56:72:3C:F1:DE:3B:70
            X509v3 Authority Key Identifier: 
                CD:55:B4:9E:F1:24:2E:8E:85:2B:68:F2:94:26:21:82:44:D2:0A:C7
            Authority Information Access: 
                CA Issuers - URI:http://abb.abb/ca/root-ca.cer
            X509v3 CRL Distribution Points: 
                Full Name:
                  URI:http://abb.abb/ca/root-ca.crl
    Signature Algorithm: ecdsa-with-SHA384
    Signature Value:
        30:20:02:0e:26:7b:7e:e7:86:4e:09:e0:f8:7b:b1:00:45:d1:
        02:0e:54:c2:4d:ec:52:c1:fc:61:e6:c9:e2:aa:b3:c6
-----BEGIN CERTIFICATE-----
MIIB/jCCAcmgAwIBAgIBAjAKBggqhkjOPQQDAzBCMQswCQYDVQQGEwJDQTENMAsG
A1UECgwEU0VMRjENMAsGA1UECwwEU0VMRjEVMBMGA1UEAwwMU0VMRiBSb290IENB
MB4XDTI0MDkxODE5NTYxOVoXDTM0MDkxODE5NTYxOVowRjELMAkGA1UEBhMCQ0Ex
DTALBgNVBAoMBFNFTEYxDTALBgNVBAsMBFNFTEYxGTAXBgNVBAMMEFNFTEYgSURF
TlRJVFkgQ0EwMjAQBgcqhkjOPQIBBgUrgQQABgMeAATFfAnETo12kmXGZQf0AELY
U3rPtFZEd7Y9v4Jfo4HSMIHPMA4GA1UdDwEB/wQEAwIBBjASBgNVHRMBAf8ECDAG
AQH/AgEAMB0GA1UdDgQWBBTjDIrXDtiBCCNH73jvVnI88d47cDAfBgNVHSMEGDAW
gBTNVbSe8SQujoUraPKUJiGCRNIKxzA5BggrBgEFBQcBAQQtMCswKQYIKwYBBQUH
MAKGHWh0dHA6Ly9hYmIuYWJiL2NhL3Jvb3QtY2EuY2VyMC4GA1UdHwQnMCUwI6Ah
oB+GHWh0dHA6Ly9hYmIuYWJiL2NhL3Jvb3QtY2EuY3JsMAoGCCqGSM49BAMDAyMA
MCACDiZ7fueGTgng+HuxAEXRAg5Uwk3sUsH8YebJ4qqzxg==
-----END CERTIFICATE-----
Certificate:
    Data:
        Version: 3 (0x2)
        Serial Number: 1 (0x1)
        Signature Algorithm: ecdsa-with-SHA384
        Issuer: C=CA, O=SELF, OU=SELF, CN=SELF Root CA
        Validity
            Not Before: Sep 18 19:56:19 2024 GMT
            Not After : Dec 31 23:59:59 2077 GMT
        Subject: C=CA, O=SELF, OU=SELF, CN=SELF Root CA
        Subject Public Key Info:
            Public Key Algorithm: id-ecPublicKey
                Public-Key: (112 bit)
                pub:
                    04:05:74:bd:ad:74:fa:f8:10:93:d4:53:5d:52:4c:
                    89:33:62:0f:b5:8a:c4:bc:b0:66:89:b6:79:5e
                ASN1 OID: secp112r1
        X509v3 extensions:
            X509v3 Key Usage: critical
                Certificate Sign, CRL Sign
            X509v3 Basic Constraints: critical
                CA:TRUE
            X509v3 Subject Key Identifier: 
                CD:55:B4:9E:F1:24:2E:8E:85:2B:68:F2:94:26:21:82:44:D2:0A:C7
            X509v3 Authority Key Identifier: 
                CD:55:B4:9E:F1:24:2E:8E:85:2B:68:F2:94:26:21:82:44:D2:0A:C7
    Signature Algorithm: ecdsa-with-SHA384
    Signature Value:
        30:21:02:0e:29:fa:c1:f4:bb:73:40:95:e0:c7:00:32:d6:17:
        02:0f:00:d6:62:fc:7c:a3:c3:b8:eb:24:78:31:67:81:a8
-----BEGIN CERTIFICATE-----
MIIBjTCCAVegAwIBAgIBATAKBggqhkjOPQQDAzBCMQswCQYDVQQGEwJDQTENMAsG
A1UECgwEU0VMRjENMAsGA1UECwwEU0VMRjEVMBMGA1UEAwwMU0VMRiBSb290IENB
MCAXDTI0MDkxODE5NTYxOVoYDzIwNzcxMjMxMjM1OTU5WjBCMQswCQYDVQQGEwJD
QTENMAsGA1UECgwEU0VMRjENMAsGA1UECwwEU0VMRjEVMBMGA1UEAwwMU0VMRiBS
b290IENBMDIwEAYHKoZIzj0CAQYFK4EEAAYDHgAEBXS9rXT6+BCT1FNdUkyJM2IP
tYrEvLBmibZ5XqNjMGEwDgYDVR0PAQH/BAQDAgEGMA8GA1UdEwEB/wQFMAMBAf8w
HQYDVR0OBBYEFM1VtJ7xJC6OhSto8pQmIYJE0grHMB8GA1UdIwQYMBaAFM1VtJ7x
JC6OhSto8pQmIYJE0grHMAoGCCqGSM49BAMDAyQAMCECDin6wfS7c0CV4McAMtYX
Ag8A1mL8fKPDuOskeDFngag=
-----END CERTIFICATE-----
