Certificate:
    Data:
        Version: 3 (0x2)
        Serial Number: 2 (0x2)
        Signature Algorithm: ecdsa-with-SHA384
        Issuer: C=CA, O=SELF, OU=SELF, CN=SELF Root CA
        Validity
            Not Before: Sep 18 21:13:21 2024 GMT
            Not After : Sep 18 21:13:21 2034 GMT
        Subject: C=CA, O=SELF, OU=SELF, CN=SELF IDENTITY CA
        Subject Public Key Info:
            Public Key Algorithm: id-ecPublicKey
                Public-Key: (112 bit)
                pub:
                    04:89:7b:54:47:66:ab:f5:63:2b:1f:4f:1c:dd:63:
                    51:36:4b:34:62:33:bb:f5:c9:62:24:fe:e8:64
                ASN1 OID: secp112r1
        X509v3 extensions:
            X509v3 Key Usage: critical
                Certificate Sign, CRL Sign
            X509v3 Basic Constraints: critical
                CA:TRUE, pathlen:0
            X509v3 Subject Key Identifier: 
                95:5B:75:27:A8:25:E3:96:1D:55:F8:B1:CD:EA:DA:61:CE:7E:96:A9
            X509v3 Authority Key Identifier: 
                5E:1D:F1:4E:D9:6B:46:90:EA:EC:02:01:46:DD:05:13:43:89:FE:54
            Authority Information Access: 
                CA Issuers - URI:http://abb.abb/ca/root-ca.cer
            X509v3 CRL Distribution Points: 
                Full Name:
                  URI:http://abb.abb/ca/root-ca.crl
    Signature Algorithm: ecdsa-with-SHA384
    Signature Value:
        30:22:02:0f:00:8e:58:e9:54:d7:2a:07:a8:37:fc:74:c1:27:
        8a:02:0f:00:8a:b0:04:c9:83:04:25:ea:19:ba:64:02:16:de
-----BEGIN CERTIFICATE-----
MIICADCCAcmgAwIBAgIBAjAKBggqhkjOPQQDAzBCMQswCQYDVQQGEwJDQTENMAsG
A1UECgwEU0VMRjENMAsGA1UECwwEU0VMRjEVMBMGA1UEAwwMU0VMRiBSb290IENB
MB4XDTI0MDkxODIxMTMyMVoXDTM0MDkxODIxMTMyMVowRjELMAkGA1UEBhMCQ0Ex
DTALBgNVBAoMBFNFTEYxDTALBgNVBAsMBFNFTEYxGTAXBgNVBAMMEFNFTEYgSURF
TlRJVFkgQ0EwMjAQBgcqhkjOPQIBBgUrgQQABgMeAASJe1RHZqv1YysfTxzdY1E2
SzRiM7v1yWIk/uhko4HSMIHPMA4GA1UdDwEB/wQEAwIBBjASBgNVHRMBAf8ECDAG
AQH/AgEAMB0GA1UdDgQWBBSVW3UnqCXjlh1V+LHN6tphzn6WqTAfBgNVHSMEGDAW
gBReHfFO2WtGkOrsAgFG3QUTQ4n+VDA5BggrBgEFBQcBAQQtMCswKQYIKwYBBQUH
MAKGHWh0dHA6Ly9hYmIuYWJiL2NhL3Jvb3QtY2EuY2VyMC4GA1UdHwQnMCUwI6Ah
oB+GHWh0dHA6Ly9hYmIuYWJiL2NhL3Jvb3QtY2EuY3JsMAoGCCqGSM49BAMDAyUA
MCICDwCOWOlU1yoHqDf8dMEnigIPAIqwBMmDBCXqGbpkAhbe
-----END CERTIFICATE-----
