Certificate:
    Data:
        Version: 3 (0x2)
        Serial Number: 1 (0x1)
        Signature Algorithm: sha384WithRSAEncryption
        Issuer: C=CA, O=SELF, OU=SELF, CN=SELF Root CA
        Validity
            Not Before: Nov 18 20:48:02 2024 GMT
            Not After : Dec 31 23:59:59 2077 GMT
        Subject: C=CA, O=SELF, OU=SELF, CN=SELF Root CA
        Subject Public Key Info:
            Public Key Algorithm: rsaEncryption
                Public-Key: (4096 bit)
                Modulus:
                    00:b5:38:2e:62:9d:3e:5a:4b:e1:78:49:a2:16:42:
                    b5:a6:b3:45:f0:d3:f0:d9:79:28:5b:5d:f2:00:51:
                    bd:d7:00:ea:5b:cd:22:49:a7:5f:e2:1b:22:56:e8:
                    c2:82:91:be:26:ce:75:c8:57:a8:39:07:71:67:0e:
                    70:c9:3d:4d:f8:84:7a:e4:23:38:56:7e:18:34:20:
                    d2:ad:82:40:ee:1b:15:b9:6c:e3:b2:d1:e7:02:bf:
                    53:55:64:c1:d0:e3:e0:04:06:d1:2f:2f:0c:c5:d7:
                    49:95:c6:99:1e:8f:6c:e2:4c:c4:8f:06:28:aa:82:
                    fd:b1:fa:ef:5d:11:82:83:d6:3f:3d:af:dc:33:b6:
                    61:14:45:92:17:3a:4e:c7:be:c4:11:e7:47:2b:69:
                    15:d7:7a:6a:5f:a2:3a:60:41:97:77:6a:3d:66:d8:
                    fe:68:50:e6:e2:d0:94:6a:c9:87:c7:2e:a6:be:39:
                    e7:cb:41:4e:0a:e8:31:76:9a:f9:22:04:3a:c5:8a:
                    4c:24:5f:73:c1:37:9c:dc:be:50:e7:8d:9e:4f:d5:
                    f7:ef:2c:0e:39:a7:c2:a0:40:82:70:11:4c:80:f4:
                    23:c4:f8:4a:8e:88:f4:02:7c:47:f4:f9:50:1c:79:
                    e0:d4:24:0d:f4:e6:35:42:cd:ff:5b:5d:5e:a9:1a:
                    a3:e0:ae:5a:9a:e1:7b:3a:36:a0:cc:84:6f:67:fa:
                    92:8e:3b:bd:52:28:d3:93:cf:5c:ea:2d:65:73:3a:
                    0a:b8:5c:80:cd:ce:9e:2e:c9:db:3c:02:b3:83:69:
                    39:f6:93:d8:ff:2f:0f:45:18:8b:40:82:fc:1e:a0:
                    25:de:1c:fd:86:f8:72:be:55:9b:b7:be:c7:ed:51:
                    c4:12:d5:5a:b7:ff:92:a8:a2:d8:c4:e7:38:f7:4b:
                    58:31:ed:30:b3:79:cc:cc:2f:f8:52:19:2e:7c:0b:
                    84:60:f7:22:73:d4:07:cf:2d:07:30:aa:d8:1d:87:
                    76:d3:8e:f3:87:6c:9d:52:ce:41:21:ab:a0:96:20:
                    83:6d:47:9a:3f:26:92:68:ff:6e:ad:57:8f:df:b4:
                    ed:16:2e:a3:7d:f5:dd:8a:9d:3c:9c:42:9b:71:b0:
                    16:17:9a:73:44:47:c7:05:7e:3f:ad:16:8f:1e:f3:
                    13:1f:78:16:1a:7c:07:08:93:f9:6e:6c:d0:9d:82:
                    bc:90:23:e0:c9:fa:e8:91:a0:fe:fa:ea:9a:1a:b6:
                    71:0b:24:30:03:06:ba:90:25:5a:4a:cb:6f:9d:5b:
                    62:7f:b1:68:e3:c9:66:84:0d:a0:a9:ec:54:0a:b1:
                    fa:b6:ad:df:19:2e:24:5e:01:7d:39:2b:42:98:36:
                    c2:79:19
                Exponent: 65537 (0x10001)
        X509v3 extensions:
            X509v3 Key Usage: critical
                Certificate Sign, CRL Sign
            X509v3 Basic Constraints: critical
                CA:TRUE
            X509v3 Subject Key Identifier: 
                07:F7:AC:CF:34:8B:F8:7F:89:D4:4E:F4:0E:F3:24:B0:67:39:A6:76
            X509v3 Authority Key Identifier: 
                07:F7:AC:CF:34:8B:F8:7F:89:D4:4E:F4:0E:F3:24:B0:67:39:A6:76
    Signature Algorithm: sha384WithRSAEncryption
    Signature Value:
        ad:57:f8:44:73:d1:80:bf:d4:98:f1:6e:11:a6:6a:24:e2:24:
        09:b3:b3:14:88:4d:ff:5e:a9:d5:38:d9:5a:e2:e9:6c:d4:39:
        69:eb:35:f0:1d:08:79:4a:d3:b1:5a:a0:d4:3f:1b:8c:eb:c8:
        d8:00:87:7e:be:ee:d5:96:6c:e7:ef:60:a9:49:cc:a6:6d:99:
        ce:5a:c7:0a:9f:0d:2e:25:e5:da:60:40:30:3f:45:77:d3:ec:
        53:db:e7:61:83:ce:eb:76:5c:49:a8:1e:02:66:6e:90:97:c7:
        d4:87:2b:24:27:a3:eb:47:ee:eb:77:2e:3a:ee:99:fb:5a:56:
        14:63:47:f4:91:38:93:a6:b9:89:a0:a5:7c:8a:09:ab:db:aa:
        c8:b1:96:a2:a1:6a:aa:e3:14:80:4e:97:34:59:db:79:4a:57:
        50:06:12:3d:d4:f0:df:46:4d:1f:00:fa:fb:ac:d4:d0:1f:bc:
        81:a7:47:3c:bf:2f:21:b0:20:ed:89:8f:72:3f:90:a0:08:96:
        e6:44:b4:98:1a:fe:b1:86:8a:0b:d4:ab:5e:14:02:37:2b:73:
        f0:49:0e:f8:5c:b6:90:e6:f3:cf:22:47:6e:64:80:f1:c8:c0:
        35:14:a8:68:98:00:33:11:98:de:c8:61:c7:ba:ec:80:e3:33:
        d7:a5:9c:93:81:0f:d4:59:ef:b1:4a:bf:e5:19:fa:f6:24:4d:
        9c:9d:10:8c:02:0f:21:9b:85:92:de:09:8c:70:a5:fb:2f:74:
        a9:f4:ca:2b:b1:dc:40:62:49:a6:6e:4c:a5:7f:2b:d4:fa:13:
        9b:a6:4b:d5:31:4b:4c:13:cc:a0:85:3c:31:9e:60:f2:04:97:
        b2:a3:2b:a8:60:5d:b4:d9:b1:41:8b:d0:77:07:6d:d9:bd:63:
        d2:80:b0:49:f2:6b:49:cc:a7:be:64:13:bb:f5:f6:ba:f8:ea:
        5e:9e:7e:b9:c5:ab:7f:57:3b:b5:c2:fd:c4:36:98:42:9c:57:
        32:ab:66:05:59:39:14:e8:fd:91:26:af:45:18:a2:c2:ee:4a:
        7a:0c:d0:09:5c:86:8a:81:4a:aa:2d:a0:2a:3f:0a:bc:bd:b1:
        7e:d5:69:5c:b0:2e:41:97:7a:c5:93:10:24:5d:43:a0:31:81:
        79:0d:2e:46:1b:2f:f6:8d:51:c8:ba:99:28:6d:3d:47:8b:4c:
        60:56:1d:e7:6b:4d:00:11:34:de:0c:2b:0b:d3:b5:af:62:38:
        cc:42:cc:60:99:38:5a:0c:ae:19:bb:aa:3b:c2:16:bd:3b:32:
        56:08:78:a1:33:49:10:c2:a8:c5:3c:d9:8f:a1:7b:c4:c0:0a:
        2a:ec:58:48:2d:b9:e3:28
-----BEGIN CERTIFICATE-----
MIIFZDCCA0ygAwIBAgIBATANBgkqhkiG9w0BAQwFADBCMQswCQYDVQQGEwJDQTEN
MAsGA1UECgwEU0VMRjENMAsGA1UECwwEU0VMRjEVMBMGA1UEAwwMU0VMRiBSb290
IENBMCAXDTI0MTExODIwNDgwMloYDzIwNzcxMjMxMjM1OTU5WjBCMQswCQYDVQQG
EwJDQTENMAsGA1UECgwEU0VMRjENMAsGA1UECwwEU0VMRjEVMBMGA1UEAwwMU0VM
RiBSb290IENBMIICIjANBgkqhkiG9w0BAQEFAAOCAg8AMIICCgKCAgEAtTguYp0+
WkvheEmiFkK1prNF8NPw2XkoW13yAFG91wDqW80iSadf4hsiVujCgpG+Js51yFeo
OQdxZw5wyT1N+IR65CM4Vn4YNCDSrYJA7hsVuWzjstHnAr9TVWTB0OPgBAbRLy8M
xddJlcaZHo9s4kzEjwYoqoL9sfrvXRGCg9Y/Pa/cM7ZhFEWSFzpOx77EEedHK2kV
13pqX6I6YEGXd2o9Ztj+aFDm4tCUasmHxy6mvjnny0FOCugxdpr5IgQ6xYpMJF9z
wTec3L5Q542eT9X37ywOOafCoECCcBFMgPQjxPhKjoj0AnxH9PlQHHng1CQN9OY1
Qs3/W11eqRqj4K5amuF7OjagzIRvZ/qSjju9UijTk89c6i1lczoKuFyAzc6eLsnb
PAKzg2k59pPY/y8PRRiLQIL8HqAl3hz9hvhyvlWbt77H7VHEEtVat/+SqKLYxOc4
90tYMe0ws3nMzC/4UhkufAuEYPcic9QHzy0HMKrYHYd2047zh2ydUs5BIaugliCD
bUeaPyaSaP9urVeP37TtFi6jffXdip08nEKbcbAWF5pzREfHBX4/rRaPHvMTH3gW
GnwHCJP5bmzQnYK8kCPgyfrokaD++uqaGrZxCyQwAwa6kCVaSstvnVtif7Fo48lm
hA2gqexUCrH6tq3fGS4kXgF9OStCmDbCeRkCAwEAAaNjMGEwDgYDVR0PAQH/BAQD
AgEGMA8GA1UdEwEB/wQFMAMBAf8wHQYDVR0OBBYEFAf3rM80i/h/idRO9A7zJLBn
OaZ2MB8GA1UdIwQYMBaAFAf3rM80i/h/idRO9A7zJLBnOaZ2MA0GCSqGSIb3DQEB
DAUAA4ICAQCtV/hEc9GAv9SY8W4Rpmok4iQJs7MUiE3/XqnVONla4uls1Dlp6zXw
HQh5StOxWqDUPxuM68jYAId+vu7Vlmzn72CpScymbZnOWscKnw0uJeXaYEAwP0V3
0+xT2+dhg87rdlxJqB4CZm6Ql8fUhyskJ6PrR+7rdy467pn7WlYUY0f0kTiTprmJ
oKV8igmr26rIsZaioWqq4xSATpc0Wdt5SldQBhI91PDfRk0fAPr7rNTQH7yBp0c8
vy8hsCDtiY9yP5CgCJbmRLSYGv6xhooL1KteFAI3K3PwSQ74XLaQ5vPPIkduZIDx
yMA1FKhomAAzEZjeyGHHuuyA4zPXpZyTgQ/UWe+xSr/lGfr2JE2cnRCMAg8hm4WS
3gmMcKX7L3Sp9MorsdxAYkmmbkylfyvU+hObpkvVMUtME8yghTwxnmDyBJeyoyuo
YF202bFBi9B3B23ZvWPSgLBJ8mtJzKe+ZBO79fa6+Openn65xat/Vzu1wv3ENphC
nFcyq2YFWTkU6P2RJq9FGKLC7kp6DNAJXIaKgUqqLaAqPwq8vbF+1WlcsC5Bl3rF
kxAkXUOgMYF5DS5GGy/2jVHIupkobT1Hi0xgVh3na00AETTeDCsL07WvYjjMQsxg
mThaDK4Zu6o7wha9OzJWCHihM0kQwqjFPNmPoXvEwAoq7FhILbnjKA==
-----END CERTIFICATE-----
