Certificate:
    Data:
        Version: 3 (0x2)
        Serial Number: 2 (0x2)
        Signature Algorithm: sha384WithRSAEncryption
        Issuer: C=CA, O=SELF, OU=SELF, CN=SELF Root CA
        Validity
            Not Before: Sep  8 18:09:13 2024 GMT
            Not After : Sep  8 18:09:13 2034 GMT
        Subject: C=CA, O=SELF, OU=SELF, CN=SELF IDENTITY CA
        Subject Public Key Info:
            Public Key Algorithm: rsaEncryption
                Public-Key: (4096 bit)
                Modulus:
                    00:a4:19:a8:5c:52:06:f0:4b:e5:38:42:4a:5d:15:
                    ba:95:cd:95:5c:6a:74:bb:d9:ce:75:15:6b:f8:e2:
                    42:64:8d:b9:62:5f:e6:29:c6:a2:85:72:b2:46:87:
                    dd:ab:db:4e:3f:48:7e:08:4d:d8:f3:33:3b:10:5b:
                    b4:14:ce:69:27:3e:01:ba:44:93:80:47:62:20:16:
                    61:b4:b4:2e:f4:97:ef:9a:f0:65:16:3a:8f:95:86:
                    b7:fb:75:25:b1:81:44:3a:91:ba:79:e2:ac:cd:34:
                    f5:1f:81:6c:5e:f9:03:3d:d6:e4:df:43:58:a3:34:
                    a9:f9:da:32:f6:74:ba:b3:ed:ec:df:8e:1b:ca:4f:
                    23:78:55:bc:12:4e:84:b9:69:24:ce:4e:9f:c3:68:
                    c5:cb:f7:0e:81:2b:79:87:31:10:40:ef:94:d2:8d:
                    c7:21:1b:4c:2c:eb:5a:2f:89:27:46:56:c1:14:d4:
                    e0:ad:ee:1a:bb:06:af:87:85:43:89:d4:0f:3c:55:
                    d3:04:e9:85:1f:c8:5a:0f:01:38:59:d9:93:94:e2:
                    55:df:da:76:a7:df:9b:d4:c9:42:ab:a9:db:e7:35:
                    cc:53:03:bf:61:2c:a3:73:51:cc:96:a5:6a:2a:2c:
                    d6:da:65:3e:8c:10:9d:43:5e:41:4f:f3:a7:52:4b:
                    34:1e:dc:39:0a:59:a4:96:70:47:77:6f:09:22:28:
                    49:a8:4a:88:97:b4:60:75:7c:23:7e:14:94:af:2e:
                    9d:ac:2b:65:ca:4b:00:42:aa:62:aa:4a:16:f8:eb:
                    ee:24:26:0b:4a:25:81:bd:22:7e:ec:d0:97:e3:1c:
                    1b:92:b1:97:91:30:ee:56:7f:40:54:1d:f9:34:69:
                    62:46:9a:56:00:06:f2:ff:79:20:b3:4d:75:f8:e6:
                    f5:cc:ec:65:e3:f8:55:47:2d:f9:d8:aa:25:63:8a:
                    99:d4:d4:d4:b3:00:72:5b:35:19:82:5b:68:a3:9c:
                    80:8a:26:80:e6:1c:c6:0e:c0:f7:7c:34:3b:6a:fb:
                    47:e1:0d:8e:f5:0b:3b:47:fe:75:b7:e4:8e:4e:61:
                    78:e0:5c:82:9a:0e:36:2c:8b:6c:79:78:0a:02:56:
                    a0:2b:57:a7:95:a1:9c:09:a5:5e:2f:c9:e1:0c:7e:
                    93:c8:68:77:cd:c3:2a:0c:c2:66:3a:dc:04:18:5e:
                    fa:56:c2:e7:ca:a1:8b:05:90:78:d4:1f:b2:14:78:
                    ad:62:0a:7c:a3:57:60:bf:1c:80:eb:8c:86:ab:34:
                    21:34:b4:e7:19:12:8e:4b:a4:db:6a:5d:14:79:df:
                    f8:07:fe:58:f8:c0:4a:02:d2:cb:21:1a:e2:4f:bb:
                    2e:00:cd
                Exponent: 65537 (0x10001)
        X509v3 extensions:
            X509v3 Key Usage: critical
                Certificate Sign, CRL Sign
            X509v3 Basic Constraints: critical
                CA:TRUE, pathlen:0
            X509v3 Subject Key Identifier: 
                97:6E:F5:B1:38:A0:FA:55:28:0D:D5:CC:E2:C3:41:F9:6F:F7:2E:57
            X509v3 Authority Key Identifier: 
                00:30:DB:DE:BC:86:FF:CB:F5:9C:AE:98:9E:00:95:91:71:35:00:8E
            Authority Information Access: 
                CA Issuers - URI:http://abb.abb/ca/root-ca.cer
            X509v3 CRL Distribution Points: 
                Full Name:
                  URI:http://abb.abb/ca/root-ca.crl
    Signature Algorithm: sha384WithRSAEncryption
    Signature Value:
        71:97:62:44:24:a7:32:d1:e7:1c:04:63:5d:ee:b7:51:b9:e1:
        ca:38:9b:7b:05:92:9b:9f:78:9d:19:91:4e:4e:46:b6:16:28:
        15:03:f1:8b:ee:3a:1c:2f:cd:95:97:2b:3c:23:32:fe:e5:89:
        73:87:88:c2:34:d6:41:91:df:32:ed:47:33:69:c8:9b:04:4f:
        9b:0e:1f:1d:63:12:75:bf:20:96:a7:f0:de:58:bb:fe:32:32:
        09:b0:c2:53:6d:11:3b:c1:78:9a:5d:98:13:36:49:e3:a1:97:
        a5:fc:00:8d:1f:c7:90:78:18:71:b7:57:ae:93:dd:ea:1f:ff:
        71:83:b4:bb:26:e0:7a:fb:a5:34:f0:23:86:d3:6b:0b:c4:ca:
        ac:35:ac:21:47:46:9f:2e:bd:d7:b1:e2:93:c6:26:0d:e0:ee:
        b9:30:a8:d6:c4:85:ff:31:41:b8:2b:a8:1e:b9:f8:2f:11:7c:
        b2:78:ef:5e:d1:6e:1e:09:bb:eb:44:1b:44:f3:2a:45:84:f1:
        61:9c:cc:bc:92:77:7b:86:72:38:77:dc:68:22:9b:27:49:01:
        f1:b1:9a:d0:30:e9:3f:bd:81:36:1b:03:e9:73:31:f4:9f:51:
        e6:5f:97:75:dd:c0:82:86:fe:01:59:7e:ec:ff:03:76:94:85:
        2d:b6:c6:8f:7d:0c:2b:b6:8f:5d:03:22:87:45:a3:ac:03:76:
        62:53:26:92:30:a2:5e:6e:c9:55:26:86:2b:87:21:39:4f:a3:
        67:ae:af:35:95:0f:f7:df:0e:58:ab:64:0c:15:db:e5:17:64:
        bd:ab:37:4c:29:60:dd:2e:9c:b8:be:8b:50:c5:4f:48:fc:48:
        7c:f9:74:6a:87:70:4f:00:d0:c9:98:6f:0d:18:87:0e:56:4c:
        82:6f:a0:01:64:27:7f:2e:ac:d5:c4:ce:10:37:33:c8:7f:25:
        41:fe:a9:4b:58:5a:61:4b:9a:e3:5d:fd:1e:20:9d:f3:a6:c4:
        2e:f4:6a:03:05:09:cb:0a:d9:cc:6a:1c:58:fd:da:19:8f:b6:
        24:0e:1a:66:34:77:ab:96:6f:04:20:db:aa:30:65:78:00:c3:
        b9:37:c4:ff:2a:b3:3d:73:e5:8c:ef:00:25:62:d5:f2:35:88:
        11:50:61:fb:70:f3:fd:a4:68:23:4c:cd:52:61:87:fd:19:45:
        b8:58:f4:9a:9f:c3:70:4f:de:1e:5a:be:3a:5d:21:9e:4f:9a:
        54:c3:29:9a:02:da:dc:5b:9c:6d:ab:09:ea:ff:ad:8a:7f:a7:
        12:ed:b2:ad:76:e1:4f:59:23:15:bf:15:29:eb:da:8a:32:62:
        aa:cc:ad:0a:e8:53:3f:b5
-----BEGIN CERTIFICATE-----
MIIF1jCCA76gAwIBAgIBAjANBgkqhkiG9w0BAQwFADBCMQswCQYDVQQGEwJDQTEN
MAsGA1UECgwEU0VMRjENMAsGA1UECwwEU0VMRjEVMBMGA1UEAwwMU0VMRiBSb290
IENBMB4XDTI0MDkwODE4MDkxM1oXDTM0MDkwODE4MDkxM1owRjELMAkGA1UEBhMC
Q0ExDTALBgNVBAoMBFNFTEYxDTALBgNVBAsMBFNFTEYxGTAXBgNVBAMMEFNFTEYg
SURFTlRJVFkgQ0EwggIiMA0GCSqGSIb3DQEBAQUAA4ICDwAwggIKAoICAQCkGahc
UgbwS+U4QkpdFbqVzZVcanS72c51FWv44kJkjbliX+YpxqKFcrJGh92r204/SH4I
TdjzMzsQW7QUzmknPgG6RJOAR2IgFmG0tC70l++a8GUWOo+Vhrf7dSWxgUQ6kbp5
4qzNNPUfgWxe+QM91uTfQ1ijNKn52jL2dLqz7ezfjhvKTyN4VbwSToS5aSTOTp/D
aMXL9w6BK3mHMRBA75TSjcchG0ws61oviSdGVsEU1OCt7hq7Bq+HhUOJ1A88VdME
6YUfyFoPAThZ2ZOU4lXf2nan35vUyUKrqdvnNcxTA79hLKNzUcyWpWoqLNbaZT6M
EJ1DXkFP86dSSzQe3DkKWaSWcEd3bwkiKEmoSoiXtGB1fCN+FJSvLp2sK2XKSwBC
qmKqShb46+4kJgtKJYG9In7s0JfjHBuSsZeRMO5Wf0BUHfk0aWJGmlYABvL/eSCz
TXX45vXM7GXj+FVHLfnYqiVjipnU1NSzAHJbNRmCW2ijnICKJoDmHMYOwPd8NDtq
+0fhDY71CztH/nW35I5OYXjgXIKaDjYsi2x5eAoCVqArV6eVoZwJpV4vyeEMfpPI
aHfNwyoMwmY63AQYXvpWwufKoYsFkHjUH7IUeK1iCnyjV2C/HIDrjIarNCE0tOcZ
Eo5LpNtqXRR53/gH/lj4wEoC0sshGuJPuy4AzQIDAQABo4HSMIHPMA4GA1UdDwEB
/wQEAwIBBjASBgNVHRMBAf8ECDAGAQH/AgEAMB0GA1UdDgQWBBSXbvWxOKD6VSgN
1cziw0H5b/cuVzAfBgNVHSMEGDAWgBQAMNvevIb/y/WcrpieAJWRcTUAjjA5Bggr
BgEFBQcBAQQtMCswKQYIKwYBBQUHMAKGHWh0dHA6Ly9hYmIuYWJiL2NhL3Jvb3Qt
Y2EuY2VyMC4GA1UdHwQnMCUwI6AhoB+GHWh0dHA6Ly9hYmIuYWJiL2NhL3Jvb3Qt
Y2EuY3JsMA0GCSqGSIb3DQEBDAUAA4ICAQBxl2JEJKcy0eccBGNd7rdRueHKOJt7
BZKbn3idGZFOTka2FigVA/GL7jocL82Vlys8IzL+5Ylzh4jCNNZBkd8y7Uczacib
BE+bDh8dYxJ1vyCWp/DeWLv+MjIJsMJTbRE7wXiaXZgTNknjoZel/ACNH8eQeBhx
t1euk93qH/9xg7S7JuB6+6U08COG02sLxMqsNawhR0afLr3XseKTxiYN4O65MKjW
xIX/MUG4K6geufgvEXyyeO9e0W4eCbvrRBtE8ypFhPFhnMy8knd7hnI4d9xoIpsn
SQHxsZrQMOk/vYE2GwPpczH0n1HmX5d13cCChv4BWX7s/wN2lIUttsaPfQwrto9d
AyKHRaOsA3ZiUyaSMKJebslVJoYrhyE5T6Nnrq81lQ/33w5Yq2QMFdvlF2S9qzdM
KWDdLpy4votQxU9I/Eh8+XRqh3BPANDJmG8NGIcOVkyCb6ABZCd/LqzVxM4QNzPI
fyVB/qlLWFphS5rjXf0eIJ3zpsQu9GoDBQnLCtnMahxY/doZj7YkDhpmNHerlm8E
INuqMGV4AMO5N8T/KrM9c+WM7wAlYtXyNYgRUGH7cPP9pGgjTM1SYYf9GUW4WPSa
n8NwT94eWr46XSGeT5pUwymaAtrcW5xtqwnq/62Kf6cS7bKtduFPWSMVvxUp69qK
MmKqzK0K6FM/tQ==
-----END CERTIFICATE-----
