Certificate:
    Data:
        Version: 3 (0x2)
        Serial Number: 2 (0x2)
        Signature Algorithm: sha384WithRSAEncryption
        Issuer: C=CA, O=SELF, OU=SELF, CN=SELF Root CA
        Validity
            Not Before: Nov 18 20:48:03 2024 GMT
            Not After : Nov 18 20:48:03 2034 GMT
        Subject: C=CA, O=SELF, OU=SELF, CN=SELF IDENTITY CA
        Subject Public Key Info:
            Public Key Algorithm: rsaEncryption
                Public-Key: (4096 bit)
                Modulus:
                    00:ba:73:c7:79:e4:2e:f3:12:c2:4f:ea:17:fd:c0:
                    f4:7d:e9:32:b5:98:58:fa:47:b9:8e:82:d3:24:ef:
                    e9:38:a4:fa:ce:8d:c4:4a:1d:ce:11:ed:8f:ae:19:
                    f1:47:c4:24:73:83:b4:c1:3f:83:44:52:ba:48:fb:
                    44:5a:3b:80:c7:9b:98:bc:cd:16:10:aa:91:55:e9:
                    c0:ef:9d:66:c5:fd:a9:60:e0:e2:90:92:76:2e:9a:
                    3a:91:6b:26:35:76:51:45:ab:e4:06:56:7b:f4:41:
                    d9:1b:18:37:e1:b6:a0:fc:f1:1d:f7:98:16:2f:eb:
                    ca:29:14:d8:37:d1:96:bc:0d:7c:67:b1:a6:e3:a0:
                    91:84:ac:9b:03:45:b2:77:1d:60:1a:3c:d4:0b:61:
                    f0:a0:9a:01:76:23:d4:bb:e8:84:f5:02:94:71:4d:
                    8d:fc:a4:4a:d6:74:f2:ce:10:83:5f:69:78:bf:e2:
                    d8:33:ef:f8:e8:49:37:2d:fc:f2:ef:be:52:97:0f:
                    cf:c2:06:5f:18:60:ec:18:7b:cd:b5:e9:ad:5e:27:
                    3a:ce:86:0d:40:3c:3b:50:af:15:a6:74:00:f1:76:
                    f6:ae:68:5d:f4:79:04:16:3e:f6:13:c9:84:61:88:
                    02:4f:08:dc:e1:0a:f3:c7:ab:d7:35:fe:df:36:a0:
                    b6:55:a1:f1:5c:20:67:5b:03:f2:f9:c4:86:b1:6b:
                    0b:66:f2:54:67:ac:c2:e6:95:c3:16:e8:2c:db:2a:
                    a2:d0:8b:e0:f7:47:6b:e1:d7:6e:42:39:fe:a7:1c:
                    22:40:53:11:c1:fe:ad:d9:7e:38:33:56:1c:7e:5e:
                    fe:81:3a:ae:69:59:4a:54:41:88:9e:55:c8:a7:90:
                    4e:57:e9:6c:2a:aa:73:40:cc:eb:bb:8a:6f:27:88:
                    c5:35:09:65:39:91:a7:30:36:92:f3:28:65:07:2a:
                    31:02:11:d0:cb:4f:bb:c5:e4:af:f1:b5:b7:37:5e:
                    01:f9:3b:9a:47:b8:25:8e:f7:dd:6b:18:b5:69:7f:
                    e3:2a:50:d3:eb:85:1f:2f:bc:52:27:8c:8b:af:3a:
                    be:72:bd:7c:57:7a:bd:f2:b0:b8:4d:78:5b:14:40:
                    38:76:8c:68:5f:f3:b7:57:fb:eb:2c:d1:44:3d:0e:
                    fa:69:75:b3:ae:48:e1:1d:34:7a:13:39:28:70:c0:
                    fc:9c:36:cd:8a:f9:a9:ca:4f:8c:18:52:f1:5a:ac:
                    5d:90:b2:e0:5c:db:12:2a:b3:ae:18:7b:e1:89:e6:
                    7d:a2:fc:58:24:9a:fe:f7:7d:4d:4a:e5:0e:db:f6:
                    2b:5d:a1:23:73:83:fc:ba:05:13:b9:8a:66:03:73:
                    0a:5c:c1
                Exponent: 65537 (0x10001)
        X509v3 extensions:
            X509v3 Key Usage: critical
                Certificate Sign, CRL Sign
            X509v3 Basic Constraints: critical
                CA:TRUE, pathlen:0
            X509v3 Subject Key Identifier: 
                D5:C0:43:58:6E:E1:23:4D:0D:D1:90:C6:02:E0:1B:1A:40:A2:A4:F0
            X509v3 Authority Key Identifier: 
                07:F7:AC:CF:34:8B:F8:7F:89:D4:4E:F4:0E:F3:24:B0:67:39:A6:76
            Authority Information Access: 
                CA Issuers - URI:http://abb.abb/ca/root-ca.cer
            X509v3 CRL Distribution Points: 
                Full Name:
                  URI:http://abb.abb/ca/root-ca.crl
    Signature Algorithm: sha384WithRSAEncryption
    Signature Value:
        58:a5:e5:2e:d3:45:b3:0e:d5:f7:52:aa:19:4d:fd:5f:ef:5d:
        01:ed:3a:5d:c8:92:46:ab:86:07:ec:62:1b:22:63:6f:d6:0d:
        41:6f:8b:9f:d5:f6:86:96:4b:89:eb:76:1a:b5:58:24:2b:5d:
        a1:53:10:29:73:4a:a0:25:40:4e:3a:c2:7e:24:c8:ca:41:d2:
        08:c4:fb:a6:74:e8:8e:93:99:f0:c1:6d:07:09:e1:52:86:43:
        a2:99:71:01:5d:6d:05:53:a1:a2:1e:0f:c8:c6:94:52:9f:9f:
        77:1e:09:80:6d:db:b1:77:25:03:03:67:9a:b5:b3:4c:1d:e4:
        18:f1:7c:d8:81:af:87:1c:6c:b6:38:d6:c2:a5:60:9c:cd:91:
        46:ed:e8:91:d0:65:7e:89:f0:11:da:3f:80:56:b8:7c:92:e1:
        2c:18:f6:08:34:3d:5b:7a:1c:a1:66:22:7e:8b:89:3d:33:bc:
        29:1b:72:38:48:e8:ca:ab:c9:07:ac:eb:0d:d6:a9:dd:c7:7f:
        f0:2d:9d:69:d6:4c:08:b0:ee:e2:df:68:4d:01:f0:0c:b9:52:
        f3:99:85:1c:ef:98:f4:97:ab:57:63:6f:98:8c:80:31:27:9c:
        5a:1c:de:70:3a:8b:82:2a:d0:21:44:c9:a5:46:a3:da:16:58:
        91:0d:cc:10:17:f8:04:14:61:0f:5a:72:81:63:27:03:6a:89:
        c3:07:37:da:fe:d8:92:f7:0a:32:94:dd:10:a9:da:f4:42:ca:
        b8:5e:62:a7:a2:ff:f6:48:34:09:fa:fa:76:bf:8c:56:69:fd:
        e3:d1:ce:3a:ab:fc:e6:6f:8a:9c:ba:51:e3:e0:46:e4:eb:8d:
        75:1c:f6:5c:85:17:68:9f:99:8b:4e:9b:d4:89:26:97:1a:3e:
        3a:ba:1c:ab:38:ce:58:b8:6d:05:3e:b2:21:60:05:76:d0:d5:
        aa:17:87:4c:c4:4f:d3:b5:c3:bb:3d:8f:67:96:36:96:2f:c8:
        cc:ee:64:2d:6e:a0:34:4b:c3:1d:a2:1b:f8:7a:7a:08:b7:6b:
        b7:b1:16:9f:62:73:09:53:c9:8c:0a:aa:aa:69:82:45:c4:ad:
        b9:6b:36:7a:41:ba:a8:93:88:64:26:92:d0:cf:32:c2:a9:8c:
        72:5d:4e:4c:2f:8f:63:86:d3:17:78:ad:f5:9a:a6:4c:89:2b:
        b6:88:cf:78:b6:3e:8e:e8:3a:e6:7a:65:70:e6:92:f4:7c:61:
        1a:46:79:ee:38:a5:84:2e:9f:d0:88:d8:d2:c3:77:e7:02:18:
        d6:fc:ef:03:38:b4:03:29:01:9d:db:ff:0d:5e:a6:88:ad:c1:
        94:ed:13:2c:8a:b0:1e:8d
-----BEGIN CERTIFICATE-----
MIIF1jCCA76gAwIBAgIBAjANBgkqhkiG9w0BAQwFADBCMQswCQYDVQQGEwJDQTEN
MAsGA1UECgwEU0VMRjENMAsGA1UECwwEU0VMRjEVMBMGA1UEAwwMU0VMRiBSb290
IENBMB4XDTI0MTExODIwNDgwM1oXDTM0MTExODIwNDgwM1owRjELMAkGA1UEBhMC
Q0ExDTALBgNVBAoMBFNFTEYxDTALBgNVBAsMBFNFTEYxGTAXBgNVBAMMEFNFTEYg
SURFTlRJVFkgQ0EwggIiMA0GCSqGSIb3DQEBAQUAA4ICDwAwggIKAoICAQC6c8d5
5C7zEsJP6hf9wPR96TK1mFj6R7mOgtMk7+k4pPrOjcRKHc4R7Y+uGfFHxCRzg7TB
P4NEUrpI+0RaO4DHm5i8zRYQqpFV6cDvnWbF/alg4OKQknYumjqRayY1dlFFq+QG
Vnv0QdkbGDfhtqD88R33mBYv68opFNg30Za8DXxnsabjoJGErJsDRbJ3HWAaPNQL
YfCgmgF2I9S76IT1ApRxTY38pErWdPLOEINfaXi/4tgz7/joSTct/PLvvlKXD8/C
Bl8YYOwYe8216a1eJzrOhg1APDtQrxWmdADxdvauaF30eQQWPvYTyYRhiAJPCNzh
CvPHq9c1/t82oLZVofFcIGdbA/L5xIaxawtm8lRnrMLmlcMW6CzbKqLQi+D3R2vh
125COf6nHCJAUxHB/q3ZfjgzVhx+Xv6BOq5pWUpUQYieVcinkE5X6WwqqnNAzOu7
im8niMU1CWU5kacwNpLzKGUHKjECEdDLT7vF5K/xtbc3XgH5O5pHuCWO991rGLVp
f+MqUNPrhR8vvFInjIuvOr5yvXxXer3ysLhNeFsUQDh2jGhf87dX++ss0UQ9Dvpp
dbOuSOEdNHoTOShwwPycNs2K+anKT4wYUvFarF2QsuBc2xIqs64Ye+GJ5n2i/Fgk
mv73fU1K5Q7b9itdoSNzg/y6BRO5imYDcwpcwQIDAQABo4HSMIHPMA4GA1UdDwEB
/wQEAwIBBjASBgNVHRMBAf8ECDAGAQH/AgEAMB0GA1UdDgQWBBTVwENYbuEjTQ3R
kMYC4BsaQKKk8DAfBgNVHSMEGDAWgBQH96zPNIv4f4nUTvQO8ySwZzmmdjA5Bggr
BgEFBQcBAQQtMCswKQYIKwYBBQUHMAKGHWh0dHA6Ly9hYmIuYWJiL2NhL3Jvb3Qt
Y2EuY2VyMC4GA1UdHwQnMCUwI6AhoB+GHWh0dHA6Ly9hYmIuYWJiL2NhL3Jvb3Qt
Y2EuY3JsMA0GCSqGSIb3DQEBDAUAA4ICAQBYpeUu00WzDtX3UqoZTf1f710B7Tpd
yJJGq4YH7GIbImNv1g1Bb4uf1faGlkuJ63YatVgkK12hUxApc0qgJUBOOsJ+JMjK
QdIIxPumdOiOk5nwwW0HCeFShkOimXEBXW0FU6GiHg/IxpRSn593HgmAbduxdyUD
A2eatbNMHeQY8XzYga+HHGy2ONbCpWCczZFG7eiR0GV+ifAR2j+AVrh8kuEsGPYI
ND1behyhZiJ+i4k9M7wpG3I4SOjKq8kHrOsN1qndx3/wLZ1p1kwIsO7i32hNAfAM
uVLzmYUc75j0l6tXY2+YjIAxJ5xaHN5wOouCKtAhRMmlRqPaFliRDcwQF/gEFGEP
WnKBYycDaonDBzfa/tiS9woylN0Qqdr0Qsq4XmKnov/2SDQJ+vp2v4xWaf3j0c46
q/zmb4qculHj4Ebk6411HPZchRdon5mLTpvUiSaXGj46uhyrOM5YuG0FPrIhYAV2
0NWqF4dMxE/TtcO7PY9nljaWL8jM7mQtbqA0S8Mdohv4enoIt2u3sRafYnMJU8mM
CqqqaYJFxK25azZ6Qbqok4hkJpLQzzLCqYxyXU5ML49jhtMXeK31mqZMiSu2iM94
tj6O6DrmemVw5pL0fGEaRnnuOKWELp/QiNjSw3fnAhjW/O8DOLQDKQGd2/8NXqaI
rcGU7RMsirAejQ==
-----END CERTIFICATE-----
