Certificate:
    Data:
        Version: 3 (0x2)
        Serial Number: 3 (0x3)
        Signature Algorithm: ecdsa-with-SHA384
        Issuer: C=CA, O=SELF, OU=SELF, CN=SELF Root CA
        Validity
            Not Before: Sep 18 19:56:19 2024 GMT
            Not After : Sep 18 19:56:19 2034 GMT
        Subject: C=CA, O=SELF, OU=SELF, CN=SELF AUTH CA
        Subject Public Key Info:
            Public Key Algorithm: id-ecPublicKey
                Public-Key: (112 bit)
                pub:
                    04:b4:69:43:5f:a9:c4:7b:04:9b:93:0d:42:de:2e:
                    c1:21:7f:e3:ff:d6:8e:86:8c:b4:22:29:63:e1
                ASN1 OID: secp112r1
        X509v3 extensions:
            X509v3 Key Usage: critical
                Certificate Sign, CRL Sign
            X509v3 Basic Constraints: critical
                CA:TRUE, pathlen:0
            X509v3 Subject Key Identifier: 
                A7:9E:5B:D1:BF:A4:33:A6:69:AE:56:7C:95:3C:B2:45:58:D6:AC:3E
            X509v3 Authority Key Identifier: 
                CD:55:B4:9E:F1:24:2E:8E:85:2B:68:F2:94:26:21:82:44:D2:0A:C7
            Authority Information Access: 
                CA Issuers - URI:http://abb.abb/ca/root-ca.cer
            X509v3 CRL Distribution Points: 
                Full Name:
                  URI:http://abb.abb/ca/root-ca.crl
    Signature Algorithm: ecdsa-with-SHA384
    Signature Value:
        30:20:02:0e:6c:6f:47:d6:59:26:0a:ef:2f:5e:1b:67:92:fb:
        02:0e:37:88:a8:b5:ea:a8:07:f6:ab:c3:7c:9a:3a:0b
-----BEGIN CERTIFICATE-----
MIIB+jCCAcWgAwIBAgIBAzAKBggqhkjOPQQDAzBCMQswCQYDVQQGEwJDQTENMAsG
A1UECgwEU0VMRjENMAsGA1UECwwEU0VMRjEVMBMGA1UEAwwMU0VMRiBSb290IENB
MB4XDTI0MDkxODE5NTYxOVoXDTM0MDkxODE5NTYxOVowQjELMAkGA1UEBhMCQ0Ex
DTALBgNVBAoMBFNFTEYxDTALBgNVBAsMBFNFTEYxFTATBgNVBAMMDFNFTEYgQVVU
SCBDQTAyMBAGByqGSM49AgEGBSuBBAAGAx4ABLRpQ1+pxHsEm5MNQt4uwSF/4//W
joaMtCIpY+GjgdIwgc8wDgYDVR0PAQH/BAQDAgEGMBIGA1UdEwEB/wQIMAYBAf8C
AQAwHQYDVR0OBBYEFKeeW9G/pDOmaa5WfJU8skVY1qw+MB8GA1UdIwQYMBaAFM1V
tJ7xJC6OhSto8pQmIYJE0grHMDkGCCsGAQUFBwEBBC0wKzApBggrBgEFBQcwAoYd
aHR0cDovL2FiYi5hYmIvY2Evcm9vdC1jYS5jZXIwLgYDVR0fBCcwJTAjoCGgH4Yd
aHR0cDovL2FiYi5hYmIvY2Evcm9vdC1jYS5jcmwwCgYIKoZIzj0EAwMDIwAwIAIO
bG9H1lkmCu8vXhtnkvsCDjeIqLXqqAf2q8N8mjoL
-----END CERTIFICATE-----
