Certificate:
    Data:
        Version: 3 (0x2)
        Serial Number: 1 (0x1)
        Signature Algorithm: sha384WithRSAEncryption
        Issuer: C=CA, O=SELF, OU=SELF, CN=SELF AUTH CA
        Validity
            Not Before: Nov 18 20:48:05 2024 GMT
            Not After : Nov 18 20:48:05 2029 GMT
        Subject: C=CA, ST=PAMA, L=Quebec, O=SELF, OU=SELF unit, CN=as leaf certificate
        Subject Public Key Info:
            Public Key Algorithm: rsaEncryption
                Public-Key: (4096 bit)
                Modulus:
                    00:98:c5:60:e3:8a:8f:33:d6:4c:fb:b4:f4:dc:7e:
                    00:ec:a4:8c:51:ac:e7:e7:d6:52:dc:86:cc:ce:ac:
                    7c:33:21:09:90:fa:39:02:aa:48:b2:de:13:fc:b2:
                    b8:cd:f6:92:ef:79:7c:bb:af:24:74:e2:69:27:f7:
                    09:9f:44:68:a7:c8:89:5c:7d:1f:33:4f:ab:13:af:
                    09:61:ef:9b:17:b1:14:94:1a:23:9b:4a:32:b2:94:
                    d6:97:2b:46:c9:f9:51:b4:d5:1e:5e:63:ea:7d:e6:
                    a5:30:58:cf:cc:ce:38:a9:fe:b9:ab:5d:a2:97:bd:
                    49:90:c9:70:13:15:43:9f:98:8f:53:5d:8a:2e:d5:
                    6d:09:f6:3f:f8:8c:ce:d5:67:44:99:28:40:d8:a4:
                    9a:62:07:7b:6b:7c:09:c6:39:77:a6:ad:8d:40:dc:
                    7e:c5:79:5e:2a:7f:54:a9:f6:d7:61:08:95:1f:98:
                    98:cc:92:82:83:ba:20:fa:a0:aa:85:38:6f:2c:f4:
                    32:a7:27:f6:27:36:8c:1f:ac:36:61:07:64:49:9a:
                    9f:71:fb:52:84:0b:8f:09:36:47:6f:92:e4:11:5f:
                    11:46:7c:2f:f1:e3:44:fd:69:9c:f7:71:31:5e:a1:
                    57:81:df:00:35:bd:7c:03:b6:f9:21:ef:24:fd:61:
                    27:6e:41:d9:ec:13:02:63:44:d1:83:e3:db:e3:54:
                    f8:50:b1:cc:cd:d2:d7:25:b9:8f:cf:49:83:de:8e:
                    a4:58:39:a5:d9:e6:12:4e:a0:95:3d:c6:08:8d:a3:
                    de:7d:b9:c0:43:1c:bb:44:8d:42:a8:e3:1d:0f:87:
                    dc:33:b2:11:7a:40:1d:9a:a0:81:ad:2e:de:80:72:
                    ab:7a:ba:02:10:9f:37:77:f5:35:24:cd:26:2c:48:
                    32:3d:d9:0f:e0:4d:2e:00:6b:0d:21:33:e0:9d:55:
                    9d:8f:14:59:f3:f8:0d:a5:c3:02:4a:3c:0e:ce:df:
                    30:bc:67:37:0c:73:31:28:4b:db:4c:81:e6:36:36:
                    c5:bd:7d:87:b2:1b:e3:5c:e3:b2:d3:71:81:77:b4:
                    3d:d7:77:f2:60:22:19:6a:93:fc:05:67:ef:ba:28:
                    eb:2c:55:d7:24:a9:e0:ef:25:13:19:c7:e6:88:c0:
                    ea:3f:3a:ca:8d:cd:e7:15:f1:41:3e:e9:7c:f6:58:
                    a1:c2:31:9f:02:26:d5:65:2d:86:d6:3e:66:87:12:
                    63:4f:ae:ef:6a:19:67:c4:da:01:fe:5f:ab:cd:a1:
                    5a:76:e0:c2:8f:2c:da:71:ab:25:b0:ab:47:b8:7d:
                    66:3a:aa:c7:c3:af:ee:e6:a7:1f:62:ec:be:d2:36:
                    01:36:0b
                Exponent: 65537 (0x10001)
        X509v3 extensions:
            X509v3 Key Usage: critical
                Digital Signature, Non Repudiation, Key Encipherment
            X509v3 Basic Constraints: critical
                CA:FALSE
            X509v3 Extended Key Usage: critical
                Code Signing
            X509v3 Subject Key Identifier: 
                8E:E2:5B:F2:53:D4:46:C5:67:73:D0:1C:9F:19:F2:71:CB:94:1E:55
            X509v3 Authority Key Identifier: 
                E2:2C:F3:D4:15:49:4F:E7:3D:6F:CA:1A:F1:6B:56:8D:2B:2C:F2:F7
            Authority Information Access: 
                CA Issuers - URI:http://abb.abb/ca/as-ca.cer
            X509v3 CRL Distribution Points: 
                Full Name:
                  URI:http://abb.abb/ca/as-ca.crl
    Signature Algorithm: sha384WithRSAEncryption
    Signature Value:
        46:3c:2d:69:d9:f8:c5:9d:32:a8:83:5f:f3:1a:7e:54:7a:bb:
        9d:e7:0a:d1:ff:e8:f7:64:a7:3d:93:f4:c1:54:e1:4a:3b:43:
        e9:51:6f:f1:70:f1:cb:6f:7d:23:d3:2e:02:20:1c:f6:f8:58:
        01:5d:16:0f:0c:10:f4:d1:b9:4a:96:3f:16:cb:5b:e8:41:39:
        e9:2f:a3:35:84:0e:3c:27:9b:41:fa:bd:d0:90:75:e6:c1:59:
        56:7e:b1:05:6f:42:b5:5c:f2:78:a2:e6:ec:0f:fc:37:0d:95:
        b7:c6:21:37:04:7d:93:f6:89:23:a4:3c:31:e1:a9:5c:75:69:
        c4:2f:49:4e:68:a8:66:20:e5:06:4f:58:33:32:d7:d2:2f:66:
        aa:a8:cf:0c:07:28:90:36:0f:81:ad:d3:d5:fb:a6:77:7f:9b:
        0b:c3:1a:8a:6b:d6:f9:d6:ea:9c:72:73:18:43:7b:6a:27:b4:
        2f:e8:24:d0:e3:d3:82:26:9e:2a:4a:9d:e0:ed:b0:85:e7:c9:
        64:6d:cf:7b:c2:ba:0b:26:5f:70:c9:fa:05:e5:ce:9d:2b:3f:
        7e:62:1f:2a:7a:0c:1e:51:8f:b5:36:fc:89:20:16:94:77:34:
        c6:4a:1f:82:38:a3:29:91:ea:39:8c:7c:a8:7d:9b:42:a1:48:
        c9:b8:1e:f9:c4:91:6a:ed:c3:d4:39:17:1d:46:c7:d9:41:a1:
        bf:bd:ed:dd:f0:ec:5a:01:82:a6:e3:d0:c4:f4:df:72:1c:85:
        f6:e7:c2:07:8f:57:55:f3:e2:fa:ef:8a:83:7e:09:0d:eb:bf:
        5b:38:35:5c:54:90:fb:cf:ee:47:0c:bb:85:c9:84:50:5a:40:
        04:92:ce:67:83:6f:5a:ea:51:5e:c5:23:a8:7e:d7:df:91:06:
        f1:c7:49:57:d6:ca:ac:f1:54:57:d6:4a:cd:a5:06:97:b1:ae:
        a3:5b:ec:6f:04:92:8c:bd:c6:fb:f4:56:da:8b:91:bb:65:ba:
        c7:4c:4d:a1:a7:b9:f0:98:89:93:24:5a:99:fe:47:45:1e:70:
        36:e9:07:45:97:b4:44:cc:61:07:06:6c:b7:c8:fc:9b:8a:b3:
        29:7c:f2:0e:ab:44:a2:23:c0:e3:a5:a7:b2:97:3e:5b:65:3c:
        f4:6b:38:f7:12:89:c2:6b:6e:30:53:f9:a8:b6:08:9c:3c:54:
        27:f3:c8:70:d7:da:5e:86:e0:3b:04:35:c5:38:58:ce:c3:f8:
        7e:91:af:b7:ab:df:1e:2b:ef:fa:89:95:bd:ca:ae:db:e3:27:
        46:83:c5:cb:b9:56:07:32:f2:f3:b2:bf:d6:69:6b:ae:a6:bd:
        c6:6d:a3:01:3c:09:7c:a2
-----BEGIN CERTIFICATE-----
MIIGDDCCA/SgAwIBAgIBATANBgkqhkiG9w0BAQwFADBCMQswCQYDVQQGEwJDQTEN
MAsGA1UECgwEU0VMRjENMAsGA1UECwwEU0VMRjEVMBMGA1UEAwwMU0VMRiBBVVRI
IENBMB4XDTI0MTExODIwNDgwNVoXDTI5MTExODIwNDgwNVowbjELMAkGA1UEBhMC
Q0ExDTALBgNVBAgMBFBBTUExDzANBgNVBAcMBlF1ZWJlYzENMAsGA1UECgwEU0VM
RjESMBAGA1UECwwJU0VMRiB1bml0MRwwGgYDVQQDDBNhcyBsZWFmIGNlcnRpZmlj
YXRlMIICIjANBgkqhkiG9w0BAQEFAAOCAg8AMIICCgKCAgEAmMVg44qPM9ZM+7T0
3H4A7KSMUazn59ZS3IbMzqx8MyEJkPo5AqpIst4T/LK4zfaS73l8u68kdOJpJ/cJ
n0Rop8iJXH0fM0+rE68JYe+bF7EUlBojm0oyspTWlytGyflRtNUeXmPqfealMFjP
zM44qf65q12il71JkMlwExVDn5iPU12KLtVtCfY/+IzO1WdEmShA2KSaYgd7a3wJ
xjl3pq2NQNx+xXleKn9UqfbXYQiVH5iYzJKCg7og+qCqhThvLPQypyf2JzaMH6w2
YQdkSZqfcftShAuPCTZHb5LkEV8RRnwv8eNE/Wmc93ExXqFXgd8ANb18A7b5Ie8k
/WEnbkHZ7BMCY0TRg+Pb41T4ULHMzdLXJbmPz0mD3o6kWDml2eYSTqCVPcYIjaPe
fbnAQxy7RI1CqOMdD4fcM7IRekAdmqCBrS7egHKreroCEJ83d/U1JM0mLEgyPdkP
4E0uAGsNITPgnVWdjxRZ8/gNpcMCSjwOzt8wvGc3DHMxKEvbTIHmNjbFvX2Hshvj
XOOy03GBd7Q913fyYCIZapP8BWfvuijrLFXXJKng7yUTGcfmiMDqPzrKjc3nFfFB
Pul89lihwjGfAibVZS2G1j5mhxJjT67vahlnxNoB/l+rzaFaduDCjyzacaslsKtH
uH1mOqrHw6/u5qcfYuy+0jYBNgsCAwEAAaOB4DCB3TAOBgNVHQ8BAf8EBAMCBeAw
DAYDVR0TAQH/BAIwADAWBgNVHSUBAf8EDDAKBggrBgEFBQcDAzAdBgNVHQ4EFgQU
juJb8lPURsVnc9AcnxnyccuUHlUwHwYDVR0jBBgwFoAU4izz1BVJT+c9b8oa8WtW
jSss8vcwNwYIKwYBBQUHAQEEKzApMCcGCCsGAQUFBzAChhtodHRwOi8vYWJiLmFi
Yi9jYS9hcy1jYS5jZXIwLAYDVR0fBCUwIzAhoB+gHYYbaHR0cDovL2FiYi5hYmIv
Y2EvYXMtY2EuY3JsMA0GCSqGSIb3DQEBDAUAA4ICAQBGPC1p2fjFnTKog1/zGn5U
erud5wrR/+j3ZKc9k/TBVOFKO0PpUW/xcPHLb30j0y4CIBz2+FgBXRYPDBD00blK
lj8Wy1voQTnpL6M1hA48J5tB+r3QkHXmwVlWfrEFb0K1XPJ4oubsD/w3DZW3xiE3
BH2T9okjpDwx4alcdWnEL0lOaKhmIOUGT1gzMtfSL2aqqM8MByiQNg+BrdPV+6Z3
f5sLwxqKa9b51uqccnMYQ3tqJ7Qv6CTQ49OCJp4qSp3g7bCF58lkbc97wroLJl9w
yfoF5c6dKz9+Yh8qegweUY+1NvyJIBaUdzTGSh+COKMpkeo5jHyofZtCoUjJuB75
xJFq7cPUORcdRsfZQaG/ve3d8OxaAYKm49DE9N9yHIX258IHj1dV8+L674qDfgkN
679bODVcVJD7z+5HDLuFyYRQWkAEks5ng29a6lFexSOoftffkQbxx0lX1sqs8VRX
1krNpQaXsa6jW+xvBJKMvcb79Fbai5G7ZbrHTE2hp7nwmImTJFqZ/kdFHnA26QdF
l7REzGEHBmy3yPybirMpfPIOq0SiI8Djpaeylz5bZTz0azj3EonCa24wU/motgic
PFQn88hw19pehuA7BDXFOFjOw/h+ka+3q98eK+/6iZW9yq7b4ydGg8XLuVYHMvLz
sr/WaWuupr3GbaMBPAl8og==
-----END CERTIFICATE-----
