Certificate:
    Data:
        Version: 3 (0x2)
        Serial Number: 1 (0x1)
        Signature Algorithm: sha384WithRSAEncryption
        Issuer: C=CA, O=SELF, OU=SELF, CN=SELF IDENTITY CA
        Validity
            Not Before: Sep  8 18:09:18 2024 GMT
            Not After : Sep  8 18:09:18 2029 GMT
        Subject: C=CA, ST=PAMA, L=Quebec, O=SELF, OU=SELF unit, CN=is leaf certificate
        Subject Public Key Info:
            Public Key Algorithm: rsaEncryption
                Public-Key: (4096 bit)
                Modulus:
                    00:d9:47:a8:ee:48:88:df:a1:f9:f6:d4:0e:f4:dc:
                    a0:c5:aa:54:93:cb:10:1a:fe:32:61:c0:cc:ac:b3:
                    9d:90:36:66:a4:7e:70:6f:91:91:47:f7:c8:37:16:
                    e5:09:b6:aa:75:c9:4f:c6:e3:fa:68:b0:d5:6f:88:
                    94:73:58:35:6e:4d:7d:fa:50:3e:6f:4f:e2:b9:9d:
                    0f:69:4b:8d:76:fb:99:6a:6a:9c:f1:c1:43:c1:28:
                    f0:69:0c:8a:99:a2:5c:3d:11:50:28:4e:a9:61:63:
                    37:5b:0a:a1:93:b4:b1:4c:48:42:bb:4c:96:51:ab:
                    dc:f1:87:c3:d8:15:1a:04:cc:d6:b3:6b:a7:b5:14:
                    92:d5:8a:f1:a7:ee:27:0b:16:79:ae:86:44:cb:74:
                    cc:a1:74:6d:8b:c6:0f:e3:61:89:fe:73:d5:71:4b:
                    18:a2:22:2b:9b:24:dd:e3:c3:97:fa:23:53:26:df:
                    80:e6:b6:d4:fc:e1:b3:86:5c:44:bc:cb:16:72:00:
                    41:6e:16:dd:08:e6:2f:af:b9:85:36:6f:50:c2:35:
                    ff:93:c4:b4:ff:6a:f5:37:f5:c8:e3:5f:bc:55:5b:
                    1c:2b:1d:6c:9c:37:4f:bd:d3:86:ff:1f:f5:0b:cc:
                    69:05:01:43:6d:3f:ac:9f:e1:5e:5b:d8:35:3c:5f:
                    07:95:7c:e7:64:ea:2d:c3:c0:75:5f:4d:53:56:80:
                    1c:cc:24:5b:b2:34:07:71:a0:46:b6:29:31:4b:2f:
                    ed:97:4c:81:ad:2c:31:da:4c:62:83:1f:b5:f1:36:
                    d9:c2:a0:b4:10:41:cd:9b:ea:a5:51:3e:66:8d:fa:
                    13:78:8f:22:cd:80:33:0b:01:7c:61:30:d6:a8:b8:
                    8d:3f:4f:ed:cc:d8:bc:85:7e:2c:7d:83:89:02:ff:
                    54:ae:00:d8:ca:23:45:ce:5e:f8:82:52:d4:65:2f:
                    e0:74:97:ce:5e:c1:35:f2:84:3f:86:a8:c1:0a:6d:
                    a2:a3:f0:72:95:3d:13:7c:9e:ac:70:50:87:ee:61:
                    8f:75:0f:86:5f:39:bd:e8:52:ba:ab:3e:7e:de:f7:
                    15:42:77:b7:5a:a8:33:5f:ca:a6:8d:6a:23:25:1d:
                    33:36:4f:dc:33:fc:61:87:53:83:6a:8a:82:2b:85:
                    3d:7c:e7:f5:b1:42:dc:9e:6e:c3:14:56:fa:6e:f0:
                    01:78:df:e4:91:2e:ef:ad:cc:08:45:e4:ce:2c:5e:
                    fb:72:89:90:b8:76:ae:85:cd:29:2e:bd:1c:49:ed:
                    14:29:c8:e6:9d:c9:4b:91:7a:5d:8a:07:ba:a4:53:
                    62:83:39:1e:15:f1:cf:aa:98:ea:69:d1:73:f0:21:
                    6a:5b:8f
                Exponent: 65537 (0x10001)
        X509v3 extensions:
            X509v3 Key Usage: critical
                Digital Signature, Non Repudiation, Key Encipherment
            X509v3 Basic Constraints: critical
                CA:FALSE
            X509v3 Extended Key Usage: critical
                Code Signing, TLS Web Client Authentication
            X509v3 Subject Key Identifier: 
                27:53:6D:C6:A7:C4:BC:1C:E7:AF:12:3C:EA:A1:3C:81:C8:98:BE:E7
            X509v3 Authority Key Identifier: 
                97:6E:F5:B1:38:A0:FA:55:28:0D:D5:CC:E2:C3:41:F9:6F:F7:2E:57
            Authority Information Access: 
                CA Issuers - URI:http://abb.abb/ca/is-ca.cer
            X509v3 CRL Distribution Points: 
                Full Name:
                  URI:http://abb.abb/ca/is-ca.crl
    Signature Algorithm: sha384WithRSAEncryption
    Signature Value:
        1e:4b:b4:e0:86:3a:b9:ba:79:e9:c1:3f:93:3c:99:68:7e:58:
        6f:1c:30:5c:4a:a2:6b:f4:15:2b:03:ba:cb:ef:b2:2d:e8:fb:
        a5:1d:f6:2a:57:1e:0b:95:30:e8:82:30:98:7d:a9:77:94:06:
        92:2a:da:58:89:71:ce:d2:f5:7d:87:6e:aa:8a:3a:ae:4f:49:
        4a:4f:60:3e:a8:1c:1d:2b:8f:fb:e5:79:94:68:80:6e:0c:84:
        73:7a:df:28:fa:7d:99:94:49:4f:b7:5d:41:03:af:14:1c:75:
        86:81:d9:11:92:b6:02:ad:c4:8c:18:2e:92:d1:ad:2a:a6:7d:
        4f:e8:7c:3d:bc:a2:9b:66:1d:bd:f5:9e:d8:55:cf:a6:c7:83:
        eb:84:ba:7b:89:ca:c1:60:c0:74:f3:24:01:3f:33:90:b4:b9:
        81:1a:c3:a5:c5:37:69:23:93:30:b6:9c:2c:08:87:f0:81:bd:
        a9:cf:ff:a4:8c:df:1c:5d:9b:38:ec:b6:80:98:42:0f:77:95:
        f4:40:a3:38:b2:6c:47:d0:de:fa:08:57:9c:f7:ac:30:6f:99:
        56:3b:7c:e9:99:7a:46:e7:5f:46:10:4a:f7:7d:1d:a1:79:04:
        78:8a:27:65:29:05:22:c3:8e:6c:58:4b:75:1a:ed:17:d3:69:
        8f:47:7a:49:7e:3d:d0:71:1f:ab:af:8e:22:7a:fb:14:e6:37:
        aa:74:d3:35:48:7d:40:0e:98:eb:17:7c:82:0d:10:91:ba:06:
        18:9f:4c:59:34:12:d3:97:63:d3:56:9b:69:0c:c6:58:5a:e9:
        21:2d:6f:d5:39:1a:e6:eb:93:9e:06:83:c9:2a:6a:c3:4e:8b:
        e7:f6:d8:18:72:99:c6:d9:ed:bb:21:2c:c3:54:34:8f:d3:e2:
        6f:b6:7c:9b:0b:ee:10:73:41:3b:4c:01:4f:0c:ce:6c:07:f5:
        02:62:b5:34:db:d3:d5:5b:08:ea:6c:73:9a:08:c9:cd:2d:9c:
        9c:f0:9f:be:86:88:7f:6d:ab:04:c1:3e:eb:24:7b:9a:14:c3:
        ac:a7:64:2e:2e:da:95:6b:d9:1e:a2:cc:49:84:68:78:71:81:
        4c:d2:43:21:7e:f1:50:dc:70:0d:f2:46:ae:70:1a:b7:5e:fb:
        f8:83:b8:37:30:a6:9c:9f:81:2d:9d:ca:a7:7c:cd:52:ba:f2:
        7e:34:9a:43:57:1c:22:62:55:16:e9:b2:ef:1a:94:74:11:e9:
        be:bc:1c:c4:12:7e:4f:93:17:93:d7:9f:68:fd:22:b8:a5:08:
        a3:86:86:67:32:6c:d4:df:e2:b6:33:0c:bb:53:16:93:60:9f:
        05:d7:0b:1f:86:1a:9d:09
-----BEGIN CERTIFICATE-----
MIIGGjCCBAKgAwIBAgIBATANBgkqhkiG9w0BAQwFADBGMQswCQYDVQQGEwJDQTEN
MAsGA1UECgwEU0VMRjENMAsGA1UECwwEU0VMRjEZMBcGA1UEAwwQU0VMRiBJREVO
VElUWSBDQTAeFw0yNDA5MDgxODA5MThaFw0yOTA5MDgxODA5MThaMG4xCzAJBgNV
BAYTAkNBMQ0wCwYDVQQIDARQQU1BMQ8wDQYDVQQHDAZRdWViZWMxDTALBgNVBAoM
BFNFTEYxEjAQBgNVBAsMCVNFTEYgdW5pdDEcMBoGA1UEAwwTaXMgbGVhZiBjZXJ0
aWZpY2F0ZTCCAiIwDQYJKoZIhvcNAQEBBQADggIPADCCAgoCggIBANlHqO5IiN+h
+fbUDvTcoMWqVJPLEBr+MmHAzKyznZA2ZqR+cG+RkUf3yDcW5Qm2qnXJT8bj+miw
1W+IlHNYNW5NffpQPm9P4rmdD2lLjXb7mWpqnPHBQ8Eo8GkMipmiXD0RUChOqWFj
N1sKoZO0sUxIQrtMllGr3PGHw9gVGgTM1rNrp7UUktWK8afuJwsWea6GRMt0zKF0
bYvGD+Nhif5z1XFLGKIiK5sk3ePDl/ojUybfgOa21Pzhs4ZcRLzLFnIAQW4W3Qjm
L6+5hTZvUMI1/5PEtP9q9Tf1yONfvFVbHCsdbJw3T73Thv8f9QvMaQUBQ20/rJ/h
XlvYNTxfB5V852TqLcPAdV9NU1aAHMwkW7I0B3GgRrYpMUsv7ZdMga0sMdpMYoMf
tfE22cKgtBBBzZvqpVE+Zo36E3iPIs2AMwsBfGEw1qi4jT9P7czYvIV+LH2DiQL/
VK4A2MojRc5e+IJS1GUv4HSXzl7BNfKEP4aowQptoqPwcpU9E3yerHBQh+5hj3UP
hl85vehSuqs+ft73FUJ3t1qoM1/Kpo1qIyUdMzZP3DP8YYdTg2qKgiuFPXzn9bFC
3J5uwxRW+m7wAXjf5JEu763MCEXkzixe+3KJkLh2roXNKS69HEntFCnI5p3JS5F6
XYoHuqRTYoM5HhXxz6qY6mnRc/AhaluPAgMBAAGjgeowgecwDgYDVR0PAQH/BAQD
AgXgMAwGA1UdEwEB/wQCMAAwIAYDVR0lAQH/BBYwFAYIKwYBBQUHAwMGCCsGAQUF
BwMCMB0GA1UdDgQWBBQnU23Gp8S8HOevEjzqoTyByJi+5zAfBgNVHSMEGDAWgBSX
bvWxOKD6VSgN1cziw0H5b/cuVzA3BggrBgEFBQcBAQQrMCkwJwYIKwYBBQUHMAKG
G2h0dHA6Ly9hYmIuYWJiL2NhL2lzLWNhLmNlcjAsBgNVHR8EJTAjMCGgH6Adhhto
dHRwOi8vYWJiLmFiYi9jYS9pcy1jYS5jcmwwDQYJKoZIhvcNAQEMBQADggIBAB5L
tOCGOrm6eenBP5M8mWh+WG8cMFxKomv0FSsDusvvsi3o+6Ud9ipXHguVMOiCMJh9
qXeUBpIq2liJcc7S9X2HbqqKOq5PSUpPYD6oHB0rj/vleZRogG4MhHN63yj6fZmU
SU+3XUEDrxQcdYaB2RGStgKtxIwYLpLRrSqmfU/ofD28optmHb31nthVz6bHg+uE
unuJysFgwHTzJAE/M5C0uYEaw6XFN2kjkzC2nCwIh/CBvanP/6SM3xxdmzjstoCY
Qg93lfRAoziybEfQ3voIV5z3rDBvmVY7fOmZekbnX0YQSvd9HaF5BHiKJ2UpBSLD
jmxYS3Ua7RfTaY9Hekl+PdBxH6uvjiJ6+xTmN6p00zVIfUAOmOsXfIINEJG6Bhif
TFk0EtOXY9NWm2kMxlha6SEtb9U5Gubrk54Gg8kqasNOi+f22BhymcbZ7bshLMNU
NI/T4m+2fJsL7hBzQTtMAU8MzmwH9QJitTTb09VbCOpsc5oIyc0tnJzwn76GiH9t
qwTBPuske5oUw6ynZC4u2pVr2R6izEmEaHhxgUzSQyF+8VDccA3yRq5wGrde+/iD
uDcwppyfgS2dyqd8zVK68n40mkNXHCJiVRbpsu8alHQR6b68HMQSfk+TF5PXn2j9
IrilCKOGhmcybNTf4rYzDLtTFpNgnwXXCx+GGp0J
-----END CERTIFICATE-----
