Certificate:
    Data:
        Version: 3 (0x2)
        Serial Number: 1 (0x1)
        Signature Algorithm: ecdsa-with-SHA384
        Issuer: C=CA, O=SELF, OU=SELF, CN=SELF IDENTITY CA
        Validity
            Not Before: Sep 18 19:56:24 2024 GMT
            Not After : Sep 18 19:56:24 2029 GMT
        Subject: C=CA, ST=PAMA, L=Quebec, O=SELF, OU=SELF unit, CN=is leaf certificate
        Subject Public Key Info:
            Public Key Algorithm: rsaEncryption
                Public-Key: (4096 bit)
                Modulus:
                    00:d7:02:59:2f:10:29:c5:c8:3c:92:19:d3:47:6d:
                    39:ef:c0:79:7f:56:1d:53:6c:f6:a2:1e:d9:b5:d4:
                    fb:eb:a6:4f:33:98:fb:2e:e5:09:30:30:67:d5:c7:
                    c2:14:2f:3e:09:94:50:54:b6:ef:0e:cb:9f:9f:d5:
                    2e:99:0e:85:98:0c:84:01:86:6e:20:6e:19:fc:17:
                    d7:b7:e4:83:5d:31:88:96:59:b6:73:61:79:a7:80:
                    8b:1b:9a:e4:86:a1:5a:da:cf:0d:66:eb:e8:e3:6f:
                    f9:62:92:67:f4:83:96:b5:5f:d0:d4:4d:94:b2:cf:
                    a7:06:9f:0b:de:1f:7a:f8:ed:f6:d0:26:1c:b0:f4:
                    45:41:f2:89:6e:d9:1a:69:85:45:eb:74:da:c0:a2:
                    8d:ea:06:bf:4c:1e:ce:01:0c:97:1e:c5:9b:f7:39:
                    d1:82:e0:59:d3:5c:3c:65:8c:b3:b0:9b:b0:e6:c4:
                    22:66:a1:ab:79:1f:60:26:50:50:11:b8:04:67:e4:
                    b8:a4:3b:c2:56:05:8e:d3:ad:ab:2d:e9:7a:b8:9a:
                    9f:e6:2f:5d:aa:e9:1a:41:dd:6b:44:c5:06:c5:85:
                    e4:e2:43:87:8e:b5:76:c5:8d:60:34:b9:30:20:ee:
                    64:ab:94:f9:da:ea:12:de:d5:a6:eb:81:f9:f1:d8:
                    f1:06:d8:bd:4d:84:57:9c:1b:31:64:b2:23:f8:cb:
                    06:43:33:1c:86:a6:2c:fd:31:bd:d5:e7:2e:87:c8:
                    54:93:9d:fd:24:23:d7:e7:0e:75:0d:4d:e8:f6:bd:
                    77:b1:bc:62:a7:ea:e0:67:f0:62:7f:2e:57:ce:58:
                    7f:3b:58:a2:cf:b0:e1:22:75:7d:41:62:b1:f1:bf:
                    17:8a:53:16:30:90:99:86:dc:99:7b:c5:f9:3a:59:
                    a0:cb:06:8b:66:92:de:ef:53:0f:6a:c4:c3:73:0a:
                    7a:4a:5b:53:8d:34:8f:cc:4a:86:b1:fc:10:e5:30:
                    35:cd:6e:1a:cc:4f:4b:82:3a:79:1f:e6:90:a5:57:
                    c4:0b:01:12:6b:95:8a:2e:f0:7a:6d:01:82:cb:4d:
                    f9:e7:49:dd:04:31:c5:d8:da:c5:0d:64:16:1d:b2:
                    52:1c:ed:bb:7c:89:08:32:ca:57:0c:f7:76:c1:52:
                    ee:d9:c8:70:d7:17:a6:11:d2:65:a7:d6:e4:94:bf:
                    25:08:80:44:11:cb:90:95:0d:4f:2b:db:8e:47:11:
                    0b:c9:12:ec:36:41:4f:d0:aa:3f:fa:7b:a3:52:e6:
                    c6:e6:ec:e0:15:d4:a3:a5:45:fb:e6:22:cf:89:08:
                    13:c8:2d:45:ea:dd:7b:1c:f1:9f:34:76:2d:f6:cb:
                    03:78:8f
                Exponent: 65537 (0x10001)
        X509v3 extensions:
            X509v3 Key Usage: critical
                Digital Signature, Non Repudiation, Key Encipherment
            X509v3 Basic Constraints: critical
                CA:FALSE
            X509v3 Extended Key Usage: critical
                Code Signing, TLS Web Client Authentication
            X509v3 Subject Key Identifier: 
                84:2A:26:9C:DE:C6:67:76:8E:F1:F4:42:2C:22:17:D2:46:BD:92:08
            X509v3 Authority Key Identifier: 
                E3:0C:8A:D7:0E:D8:81:08:23:47:EF:78:EF:56:72:3C:F1:DE:3B:70
            Authority Information Access: 
                CA Issuers - URI:http://abb.abb/ca/is-ca.cer
            X509v3 CRL Distribution Points: 
                Full Name:
                  URI:http://abb.abb/ca/is-ca.crl
    Signature Algorithm: ecdsa-with-SHA384
    Signature Value:
        30:21:02:0e:02:3e:7a:86:99:93:a5:bf:78:8a:89:7c:c8:d2:
        02:0f:00:bb:9c:e0:18:4f:04:ff:b0:d3:09:04:09:d8:ed
-----BEGIN CERTIFICATE-----
MIIENTCCA/+gAwIBAgIBATAKBggqhkjOPQQDAzBGMQswCQYDVQQGEwJDQTENMAsG
A1UECgwEU0VMRjENMAsGA1UECwwEU0VMRjEZMBcGA1UEAwwQU0VMRiBJREVOVElU
WSBDQTAeFw0yNDA5MTgxOTU2MjRaFw0yOTA5MTgxOTU2MjRaMG4xCzAJBgNVBAYT
AkNBMQ0wCwYDVQQIDARQQU1BMQ8wDQYDVQQHDAZRdWViZWMxDTALBgNVBAoMBFNF
TEYxEjAQBgNVBAsMCVNFTEYgdW5pdDEcMBoGA1UEAwwTaXMgbGVhZiBjZXJ0aWZp
Y2F0ZTCCAiIwDQYJKoZIhvcNAQEBBQADggIPADCCAgoCggIBANcCWS8QKcXIPJIZ
00dtOe/AeX9WHVNs9qIe2bXU++umTzOY+y7lCTAwZ9XHwhQvPgmUUFS27w7Ln5/V
LpkOhZgMhAGGbiBuGfwX17fkg10xiJZZtnNheaeAixua5IahWtrPDWbr6ONv+WKS
Z/SDlrVf0NRNlLLPpwafC94fevjt9tAmHLD0RUHyiW7ZGmmFRet02sCijeoGv0we
zgEMlx7Fm/c50YLgWdNcPGWMs7CbsObEImahq3kfYCZQUBG4BGfkuKQ7wlYFjtOt
qy3perian+YvXarpGkHda0TFBsWF5OJDh461dsWNYDS5MCDuZKuU+drqEt7VpuuB
+fHY8QbYvU2EV5wbMWSyI/jLBkMzHIamLP0xvdXnLofIVJOd/SQj1+cOdQ1N6Pa9
d7G8Yqfq4GfwYn8uV85YfztYos+w4SJ1fUFisfG/F4pTFjCQmYbcmXvF+TpZoMsG
i2aS3u9TD2rEw3MKekpbU400j8xKhrH8EOUwNc1uGsxPS4I6eR/mkKVXxAsBEmuV
ii7wem0BgstN+edJ3QQxxdjaxQ1kFh2yUhztu3yJCDLKVwz3dsFS7tnIcNcXphHS
ZafW5JS/JQiARBHLkJUNTyvbjkcRC8kS7DZBT9CqP/p7o1Lmxubs4BXUo6VF++Yi
z4kIE8gtRerdexzxnzR2LfbLA3iPAgMBAAGjgeowgecwDgYDVR0PAQH/BAQDAgXg
MAwGA1UdEwEB/wQCMAAwIAYDVR0lAQH/BBYwFAYIKwYBBQUHAwMGCCsGAQUFBwMC
MB0GA1UdDgQWBBSEKiac3sZndo7x9EIsIhfSRr2SCDAfBgNVHSMEGDAWgBTjDIrX
DtiBCCNH73jvVnI88d47cDA3BggrBgEFBQcBAQQrMCkwJwYIKwYBBQUHMAKGG2h0
dHA6Ly9hYmIuYWJiL2NhL2lzLWNhLmNlcjAsBgNVHR8EJTAjMCGgH6AdhhtodHRw
Oi8vYWJiLmFiYi9jYS9pcy1jYS5jcmwwCgYIKoZIzj0EAwMDJAAwIQIOAj56hpmT
pb94iol8yNICDwC7nOAYTwT/sNMJBAnY7Q==
-----END CERTIFICATE-----
