Certificate:
    Data:
        Version: 3 (0x2)
        Serial Number: 1 (0x1)
        Signature Algorithm: ecdsa-with-SHA384
        Issuer: C=CA, O=SELF, OU=SELF, CN=SELF IDENTITY CA
        Validity
            Not Before: Sep 18 21:13:23 2024 GMT
            Not After : Sep 18 21:13:23 2029 GMT
        Subject: C=CA, ST=PAMA, L=Quebec, O=SELF, OU=SELF unit, CN=is leaf certificate
        Subject Public Key Info:
            Public Key Algorithm: rsaEncryption
                Public-Key: (4096 bit)
                Modulus:
                    00:ab:d5:7e:83:23:ab:73:4e:41:9e:c9:5d:71:61:
                    24:e1:03:de:fe:71:9e:9a:2a:0b:0e:5c:0d:f1:b9:
                    f1:ce:29:d9:1c:76:9e:87:16:61:60:22:4e:e1:c2:
                    9b:38:fd:c7:2a:9c:35:33:ad:e4:57:7b:d7:6b:14:
                    f3:ab:28:a9:57:41:27:c0:43:17:4e:a6:25:cf:17:
                    b4:04:f9:6d:b0:fa:6d:72:a4:04:73:54:e5:ee:c6:
                    a2:9f:e4:8b:83:91:d4:6f:81:12:33:82:9b:ce:4a:
                    6d:ab:e8:4c:b5:3e:d8:ef:6b:a8:6c:2f:c2:9f:bd:
                    14:d1:28:1a:26:dc:f6:45:01:cb:03:47:22:ed:5e:
                    4d:cf:cb:3f:c6:aa:94:64:85:66:7b:6e:18:4c:e3:
                    8c:9a:02:6e:e7:5d:04:33:e4:04:a8:70:4d:f8:0d:
                    bf:e9:77:48:24:c6:1b:38:87:ee:97:c5:6d:f9:21:
                    c6:0a:c0:6f:d0:86:8f:e5:63:81:dc:66:b0:4c:6f:
                    f8:02:f4:8e:ff:1e:91:9d:1e:c3:66:15:a0:e2:3b:
                    12:40:32:64:4e:c6:90:cd:19:e2:85:3e:73:98:56:
                    be:51:51:67:3f:04:f0:f1:a5:bd:f2:be:a4:1a:2a:
                    15:03:e1:de:2b:8a:9d:77:de:7f:fd:a1:a6:88:94:
                    84:3f:01:54:d9:91:c0:0b:fb:7f:1f:19:c2:79:9d:
                    68:df:35:c5:57:e3:d9:59:a5:7a:99:05:17:c3:dc:
                    59:ed:03:ff:e8:07:1b:8b:ab:32:9b:cd:03:1a:56:
                    a1:8f:51:dc:8e:f1:79:be:bb:ee:1c:27:13:64:b7:
                    8c:9c:01:63:c1:9a:52:7b:80:de:ad:b7:66:96:bc:
                    5d:a2:f2:31:09:df:fc:0a:2f:ec:e8:9d:63:23:14:
                    b8:e8:bd:54:fe:bd:8b:a0:8a:97:5b:d6:a0:83:77:
                    20:eb:12:2d:f1:12:fc:d4:d6:ca:af:af:95:b0:cb:
                    12:53:d4:37:73:6e:3a:5c:9e:66:fd:0b:79:d9:c8:
                    1a:7c:1f:a7:7b:c7:d0:e0:a2:b6:a2:e4:0d:89:20:
                    db:9b:21:bd:30:15:75:d1:c0:cb:69:56:70:63:1d:
                    21:f6:1e:7d:c7:7d:38:00:55:98:19:30:19:d3:8a:
                    11:33:9e:05:ee:6e:39:1a:45:7b:81:f9:6d:92:e3:
                    ac:75:0d:d8:71:b3:f5:1a:c5:9c:02:01:0d:56:8b:
                    81:9f:a4:6f:83:cc:72:37:0a:30:a8:e6:62:99:43:
                    aa:03:03:6a:d8:05:41:9d:04:b1:a5:24:96:57:a6:
                    b0:b7:39:4b:61:b7:ed:dd:09:70:ba:9d:04:94:87:
                    5c:a2:4b
                Exponent: 65537 (0x10001)
        X509v3 extensions:
            X509v3 Key Usage: critical
                Digital Signature, Non Repudiation, Key Encipherment
            X509v3 Basic Constraints: critical
                CA:FALSE
            X509v3 Extended Key Usage: critical
                Code Signing, TLS Web Client Authentication
            X509v3 Subject Key Identifier: 
                F6:21:D2:5F:17:4F:3D:DD:43:BD:2D:8E:75:01:D4:50:6D:1B:E7:FA
            X509v3 Authority Key Identifier: 
                95:5B:75:27:A8:25:E3:96:1D:55:F8:B1:CD:EA:DA:61:CE:7E:96:A9
            Authority Information Access: 
                CA Issuers - URI:http://abb.abb/ca/is-ca.cer
            X509v3 CRL Distribution Points: 
                Full Name:
                  URI:http://abb.abb/ca/is-ca.crl
    Signature Algorithm: ecdsa-with-SHA384
    Signature Value:
        30:21:02:0e:0d:df:e7:2c:cc:ac:cf:3c:c4:89:6c:25:3a:9a:
        02:0f:00:d3:a8:1b:ee:6e:f4:7e:f4:04:e7:0e:5b:26:38
-----BEGIN CERTIFICATE-----
MIIENTCCA/+gAwIBAgIBATAKBggqhkjOPQQDAzBGMQswCQYDVQQGEwJDQTENMAsG
A1UECgwEU0VMRjENMAsGA1UECwwEU0VMRjEZMBcGA1UEAwwQU0VMRiBJREVOVElU
WSBDQTAeFw0yNDA5MTgyMTEzMjNaFw0yOTA5MTgyMTEzMjNaMG4xCzAJBgNVBAYT
AkNBMQ0wCwYDVQQIDARQQU1BMQ8wDQYDVQQHDAZRdWViZWMxDTALBgNVBAoMBFNF
TEYxEjAQBgNVBAsMCVNFTEYgdW5pdDEcMBoGA1UEAwwTaXMgbGVhZiBjZXJ0aWZp
Y2F0ZTCCAiIwDQYJKoZIhvcNAQEBBQADggIPADCCAgoCggIBAKvVfoMjq3NOQZ7J
XXFhJOED3v5xnpoqCw5cDfG58c4p2Rx2nocWYWAiTuHCmzj9xyqcNTOt5Fd712sU
86soqVdBJ8BDF06mJc8XtAT5bbD6bXKkBHNU5e7Gop/ki4OR1G+BEjOCm85Kbavo
TLU+2O9rqGwvwp+9FNEoGibc9kUBywNHIu1eTc/LP8aqlGSFZntuGEzjjJoCbudd
BDPkBKhwTfgNv+l3SCTGGziH7pfFbfkhxgrAb9CGj+VjgdxmsExv+AL0jv8ekZ0e
w2YVoOI7EkAyZE7GkM0Z4oU+c5hWvlFRZz8E8PGlvfK+pBoqFQPh3iuKnXfef/2h
poiUhD8BVNmRwAv7fx8ZwnmdaN81xVfj2VmlepkFF8PcWe0D/+gHG4urMpvNAxpW
oY9R3I7xeb677hwnE2S3jJwBY8GaUnuA3q23Zpa8XaLyMQnf/Aov7OidYyMUuOi9
VP69i6CKl1vWoIN3IOsSLfES/NTWyq+vlbDLElPUN3NuOlyeZv0LednIGnwfp3vH
0OCitqLkDYkg25shvTAVddHAy2lWcGMdIfYefcd9OABVmBkwGdOKETOeBe5uORpF
e4H5bZLjrHUN2HGz9RrFnAIBDVaLgZ+kb4PMcjcKMKjmYplDqgMDatgFQZ0EsaUk
llemsLc5S2G37d0JcLqdBJSHXKJLAgMBAAGjgeowgecwDgYDVR0PAQH/BAQDAgXg
MAwGA1UdEwEB/wQCMAAwIAYDVR0lAQH/BBYwFAYIKwYBBQUHAwMGCCsGAQUFBwMC
MB0GA1UdDgQWBBT2IdJfF0893UO9LY51AdRQbRvn+jAfBgNVHSMEGDAWgBSVW3Un
qCXjlh1V+LHN6tphzn6WqTA3BggrBgEFBQcBAQQrMCkwJwYIKwYBBQUHMAKGG2h0
dHA6Ly9hYmIuYWJiL2NhL2lzLWNhLmNlcjAsBgNVHR8EJTAjMCGgH6AdhhtodHRw
Oi8vYWJiLmFiYi9jYS9pcy1jYS5jcmwwCgYIKoZIzj0EAwMDJAAwIQIODd/nLMys
zzzEiWwlOpoCDwDTqBvubvR+9ATnDlsmOA==
-----END CERTIFICATE-----
