Certificate:
    Data:
        Version: 3 (0x2)
        Serial Number: 1 (0x1)
        Signature Algorithm: sha256WithRSAEncryption
        Issuer: C=CA, ST=PAMA, L=Quebec, O=SELF, OU=SELF unit, CN=is leaf certificate
        Validity
            Not Before: Sep  8 18:34:47 2024 GMT
            Not After : Sep  8 18:34:47 2025 GMT
        Subject: C=CA, O=mbed TLS, CN=Cert
        Subject Public Key Info:
            Public Key Algorithm: rsaEncryption
                Public-Key: (2048 bit)
                Modulus:
                    00:a6:6f:65:8f:09:ea:5c:07:2d:bd:01:e6:0a:6d:
                    7f:85:22:af:63:93:b4:f5:3c:ef:2e:6a:f5:32:aa:
                    48:4f:88:cb:9f:f0:5f:80:f3:9b:fa:c3:38:a5:36:
                    53:82:e8:53:9e:15:cc:19:60:d2:5d:3a:24:7d:b5:
                    8f:ba:ef:cc:49:ce:7c:6e:11:1c:99:4b:55:fd:1d:
                    55:ff:d6:0f:ef:be:46:ad:b3:53:bd:d1:11:b1:01:
                    f3:81:d1:d2:10:29:e0:21:60:59:3e:de:c6:d7:03:
                    ac:cb:bd:fd:3c:10:de:07:04:8a:dd:fa:76:bb:e3:
                    0d:39:db:17:39:75:b4:57:1a:cd:4c:2b:81:ae:c4:
                    96:e4:09:84:01:79:04:a3:53:a7:1c:fc:4c:de:97:
                    a2:60:0c:18:01:20:43:af:9c:03:7a:0a:06:ef:f3:
                    1f:dd:2c:3c:1c:ab:24:f8:57:3e:b9:bd:8c:9b:f1:
                    72:e7:94:97:ff:1a:6d:13:3e:43:e0:8b:dd:8a:25:
                    51:c7:ec:2d:7e:10:51:89:66:ea:ad:c1:33:e6:c8:
                    6f:df:8a:21:04:56:0b:ae:8c:32:ba:2f:83:36:24:
                    bd:30:ea:f0:88:28:6d:83:e2:e6:b5:ae:5f:0f:96:
                    f9:e3:dd:a6:55:99:c6:9a:5b:5d:52:ba:50:46:18:
                    47:5d
                Exponent: 65537 (0x10001)
        X509v3 extensions:
            X509v3 Subject Key Identifier: 
                1C:B3:1F:0C:FD:A2:60:F3:D2:12:4B:E2:44:C9:3E:66:AA:D8:4D:37
            X509v3 Authority Key Identifier: 
                27:53:6D:C6:A7:C4:BC:1C:E7:AF:12:3C:EA:A1:3C:81:C8:98:BE:E7
            X509v3 Basic Constraints: 
                CA:FALSE
            X509v3 Key Usage: 
                Digital Signature, Key Encipherment
            Netscape Cert Type: 
                ...
    Signature Algorithm: sha256WithRSAEncryption
    Signature Value:
        be:f3:ae:2d:eb:f8:8f:b6:54:8b:d3:db:26:c7:8e:50:12:66:
        2b:7c:df:27:fd:68:1a:cd:b1:e9:35:4b:28:19:39:b8:db:25:
        c4:ea:76:3b:5d:39:ef:48:fa:31:31:0d:2e:f1:17:0b:5a:ab:
        46:60:c2:e1:38:41:10:33:33:66:e5:ed:18:ea:11:5a:38:58:
        ea:ec:11:e4:d8:c5:44:59:7c:3b:4f:cc:99:33:e0:d9:ab:9a:
        43:11:ff:b5:1a:57:a8:8d:f0:32:8e:64:7b:17:bf:65:4c:4a:
        f0:2a:d0:93:38:45:bd:a9:d1:e0:61:34:94:12:ed:0f:83:e1:
        98:f2:b3:dc:09:98:88:12:aa:df:af:71:94:d0:f4:4f:02:f4:
        86:ff:97:91:98:61:9e:75:c8:01:80:91:ca:70:63:06:89:e5:
        e9:ff:48:8a:92:f4:61:fb:bc:b5:89:52:ce:92:89:92:ec:f7:
        e0:a8:e0:2a:be:55:af:81:1f:76:a3:5b:98:ee:8a:6f:d2:37:
        c6:c5:3a:86:44:84:b6:a1:82:84:de:34:8e:3a:a9:4e:ac:24:
        a5:c1:7e:a2:e8:47:b8:26:94:e3:b3:36:dd:14:55:39:21:01:
        02:4c:ea:cc:f7:79:9d:0e:37:8e:f8:a2:f3:71:78:3b:5c:1a:
        7c:17:57:e4:48:5a:46:60:a4:d8:e9:10:80:92:d1:28:b9:f9:
        0f:ea:cc:63:ac:f8:ff:e9:26:d6:61:48:d8:a3:dd:ed:4a:55:
        19:12:d5:a2:e1:c6:18:55:44:6d:c8:d0:36:dc:53:f2:89:30:
        ca:45:5e:8c:85:b5:85:9a:0e:91:45:cc:ef:bb:0c:9d:1d:5e:
        81:1a:e7:7f:c3:38:c0:47:57:49:67:c5:df:78:83:60:ce:47:
        8b:f8:38:47:f3:4d:6b:a4:c1:79:83:5d:01:3d:96:01:18:3d:
        10:dd:10:49:cb:32:80:91:a4:85:15:fa:7f:de:d5:4d:b3:da:
        63:9d:6b:c3:9c:f9:ed:e6:7d:75:a8:98:7d:6a:8a:12:c8:48:
        0d:1d:95:c9:c5:ba:2a:88:21:24:57:70:f2:16:89:95:55:83:
        fa:b3:e0:7a:39:4d:49:ca:44:0f:e9:14:55:34:d7:21:99:de:
        9c:3a:b7:13:06:5d:00:04:2c:0e:91:1d:eb:32:dc:8a:f2:e9:
        1d:4f:2f:67:eb:fd:72:99:52:49:fb:d5:62:d2:e5:8c:fd:21:
        76:2e:38:cb:6c:ee:6e:98:8b:f0:5e:5a:07:6a:a6:76:69:0e:
        ce:34:69:46:87:3b:a4:5d:9d:8d:1c:a0:c8:47:e5:d4:bb:70:
        bd:93:55:62:51:d1:ed:da
-----BEGIN CERTIFICATE-----
MIIEhDCCAmygAwIBAgIBATANBgkqhkiG9w0BAQsFADBuMQswCQYDVQQGEwJDQTEN
MAsGA1UECAwEUEFNQTEPMA0GA1UEBwwGUXVlYmVjMQ0wCwYDVQQKDARTRUxGMRIw
EAYDVQQLDAlTRUxGIHVuaXQxHDAaBgNVBAMME2lzIGxlYWYgY2VydGlmaWNhdGUw
HhcNMjQwOTA4MTgzNDQ3WhcNMjUwOTA4MTgzNDQ3WjAvMQswCQYDVQQGEwJDQTER
MA8GA1UECgwIbWJlZCBUTFMxDTALBgNVBAMMBENlcnQwggEiMA0GCSqGSIb3DQEB
AQUAA4IBDwAwggEKAoIBAQCmb2WPCepcBy29AeYKbX+FIq9jk7T1PO8uavUyqkhP
iMuf8F+A85v6wzilNlOC6FOeFcwZYNJdOiR9tY+678xJznxuERyZS1X9HVX/1g/v
vkats1O90RGxAfOB0dIQKeAhYFk+3sbXA6zLvf08EN4HBIrd+na74w052xc5dbRX
Gs1MK4GuxJbkCYQBeQSjU6cc/Ezel6JgDBgBIEOvnAN6Cgbv8x/dLDwcqyT4Vz65
vYyb8XLnlJf/Gm0TPkPgi92KJVHH7C1+EFGJZuqtwTPmyG/fiiEEVguujDK6L4M2
JL0w6vCIKG2D4ua1rl8Plvnj3aZVmcaaW11SulBGGEddAgMBAAGjbDBqMB0GA1Ud
DgQWBBQcsx8M/aJg89ISS+JEyT5mqthNNzAfBgNVHSMEGDAWgBQnU23Gp8S8HOev
EjzqoTyByJi+5zAJBgNVHRMEAjAAMAsGA1UdDwQEAwIFoDAQBglghkgBhvhCAQEE
AwMBADANBgkqhkiG9w0BAQsFAAOCAgEAvvOuLev4j7ZUi9PbJseOUBJmK3zfJ/1o
Gs2x6TVLKBk5uNslxOp2O10570j6MTENLvEXC1qrRmDC4ThBEDMzZuXtGOoRWjhY
6uwR5NjFRFl8O0/MmTPg2auaQxH/tRpXqI3wMo5kexe/ZUxK8CrQkzhFvanR4GE0
lBLtD4PhmPKz3AmYiBKq369xlND0TwL0hv+XkZhhnnXIAYCRynBjBonl6f9IipL0
Yfu8tYlSzpKJkuz34KjgKr5Vr4EfdqNbmO6Kb9I3xsU6hkSEtqGChN40jjqpTqwk
pcF+ouhHuCaU47M23RRVOSEBAkzqzPd5nQ43jvii83F4O1wafBdX5EhaRmCk2OkQ
gJLRKLn5D+rMY6z4/+km1mFI2KPd7UpVGRLVouHGGFVEbcjQNtxT8okwykVejIW1
hZoOkUXM77sMnR1egRrnf8M4wEdXSWfF33iDYM5Hi/g4R/NNa6TBeYNdAT2WARg9
EN0QScsygJGkhRX6f97VTbPaY51rw5z57eZ9daiYfWqKEshIDR2VycW6KoghJFdw
8haJlVWD+rPgejlNScpED+kUVTTXIZnenDq3EwZdAAQsDpEd6zLcivLpHU8vZ+v9
cplSSfvVYtLljP0hdi44y2zubpiL8F5aB2qmdmkOzjRpRoc7pF2djRygyEfl1Ltw
vZNVYlHR7do=
-----END CERTIFICATE-----
