Certificate:
    Data:
        Version: 3 (0x2)
        Serial Number: 2 (0x2)
        Signature Algorithm: sha256WithRSAEncryption
        Issuer: C=CA, ST=PAMA, L=Quebec, O=SELF, OU=SELF unit, CN=is leaf certificate
        Validity
            Not Before: Sep  8 18:38:25 2024 GMT
            Not After : Aug 15 18:38:25 2124 GMT
        Subject: C=CA, O=mbed TLS, CN=Cert
        Subject Public Key Info:
            Public Key Algorithm: rsaEncryption
                Public-Key: (2048 bit)
                Modulus:
                    00:a6:6f:65:8f:09:ea:5c:07:2d:bd:01:e6:0a:6d:
                    7f:85:22:af:63:93:b4:f5:3c:ef:2e:6a:f5:32:aa:
                    48:4f:88:cb:9f:f0:5f:80:f3:9b:fa:c3:38:a5:36:
                    53:82:e8:53:9e:15:cc:19:60:d2:5d:3a:24:7d:b5:
                    8f:ba:ef:cc:49:ce:7c:6e:11:1c:99:4b:55:fd:1d:
                    55:ff:d6:0f:ef:be:46:ad:b3:53:bd:d1:11:b1:01:
                    f3:81:d1:d2:10:29:e0:21:60:59:3e:de:c6:d7:03:
                    ac:cb:bd:fd:3c:10:de:07:04:8a:dd:fa:76:bb:e3:
                    0d:39:db:17:39:75:b4:57:1a:cd:4c:2b:81:ae:c4:
                    96:e4:09:84:01:79:04:a3:53:a7:1c:fc:4c:de:97:
                    a2:60:0c:18:01:20:43:af:9c:03:7a:0a:06:ef:f3:
                    1f:dd:2c:3c:1c:ab:24:f8:57:3e:b9:bd:8c:9b:f1:
                    72:e7:94:97:ff:1a:6d:13:3e:43:e0:8b:dd:8a:25:
                    51:c7:ec:2d:7e:10:51:89:66:ea:ad:c1:33:e6:c8:
                    6f:df:8a:21:04:56:0b:ae:8c:32:ba:2f:83:36:24:
                    bd:30:ea:f0:88:28:6d:83:e2:e6:b5:ae:5f:0f:96:
                    f9:e3:dd:a6:55:99:c6:9a:5b:5d:52:ba:50:46:18:
                    47:5d
                Exponent: 65537 (0x10001)
        X509v3 extensions:
            X509v3 Subject Key Identifier: 
                1C:B3:1F:0C:FD:A2:60:F3:D2:12:4B:E2:44:C9:3E:66:AA:D8:4D:37
            X509v3 Authority Key Identifier: 
                27:53:6D:C6:A7:C4:BC:1C:E7:AF:12:3C:EA:A1:3C:81:C8:98:BE:E7
            X509v3 Basic Constraints: 
                CA:FALSE
            X509v3 Key Usage: 
                Digital Signature, Key Encipherment
            Netscape Cert Type: 
                ...
    Signature Algorithm: sha256WithRSAEncryption
    Signature Value:
        48:15:c0:b9:68:cf:89:93:82:9e:f1:37:e4:ff:c9:15:66:8b:
        b2:71:09:ad:a2:d9:d2:fd:c3:35:fa:5c:98:5c:4e:e5:8b:f8:
        ab:b3:24:38:c9:55:93:e5:c6:23:ec:33:f8:32:7a:40:a6:f8:
        b5:cb:06:21:7c:e1:a7:8c:cc:7d:68:74:21:37:80:6c:da:7e:
        b1:fe:4a:f7:d0:64:13:14:ed:97:a9:b9:0e:8d:1c:d7:03:74:
        f2:90:7a:e9:f4:fe:b5:3f:c8:8a:7a:bd:af:aa:24:af:ae:fd:
        0a:32:7f:28:56:f4:ef:8c:4c:b9:62:dc:5e:29:4f:00:f3:b8:
        30:e8:6a:1e:79:a9:b8:0d:98:51:6d:5b:14:61:fb:95:87:12:
        19:96:e0:46:7f:53:41:a0:83:d3:a8:6f:8b:87:ec:2d:64:f4:
        e3:e7:62:a0:a9:9a:4a:6e:22:7c:17:15:a4:25:4d:5f:b9:08:
        92:f8:84:51:f5:64:e5:40:fb:ea:82:ab:8f:cc:65:60:c7:8d:
        fe:aa:92:af:52:fa:5b:c8:8e:7e:0c:98:0b:35:cd:de:95:07:
        e2:bc:88:19:f3:19:c8:0d:b7:1e:10:67:0f:e1:02:c8:29:df:
        4c:02:b4:c2:1e:7e:77:be:f0:81:e4:58:3c:f8:a8:a4:08:0b:
        bd:cc:cf:c7:af:c0:03:ed:b8:f3:43:9d:8b:6c:59:24:81:00:
        63:9c:7c:56:fd:42:5a:21:bf:f7:1a:f2:bf:2d:9f:cf:7a:c7:
        62:8e:b7:0b:35:a2:3a:c7:cd:ae:96:c1:72:da:6e:1d:75:08:
        e8:cf:b6:b5:e4:e7:18:97:f6:51:11:46:b0:c1:c6:3b:c9:66:
        2d:28:79:53:54:74:09:53:30:54:0e:e3:e5:84:93:03:26:2e:
        e0:76:bc:93:00:a7:1e:c2:d6:f5:78:6e:f0:b8:73:82:7f:20:
        22:5b:ec:20:f9:0f:1f:d4:eb:28:38:30:de:46:a0:1c:c7:28:
        69:52:92:ba:28:72:3e:e3:ee:c5:2d:32:54:4c:d7:96:93:7e:
        89:aa:02:60:33:18:e9:32:61:e4:fb:d9:39:f4:92:cb:59:63:
        e1:ef:4b:0f:a0:9e:4b:97:7c:9c:74:8f:26:70:21:64:be:61:
        9e:7b:4a:32:c6:75:43:0c:4a:2f:3a:be:41:e7:86:11:47:a6:
        04:d3:4a:87:bb:19:18:9b:02:83:1c:a1:8f:7c:ed:6e:d8:c6:
        ad:8f:a8:90:f2:87:e4:fb:08:8c:23:df:92:72:8f:6f:d2:5b:
        f4:08:14:1e:29:3d:a3:3b:41:a3:42:00:5f:af:04:b2:c1:2e:
        92:38:19:df:ce:e3:27:4f
-----BEGIN CERTIFICATE-----
MIIEhjCCAm6gAwIBAgIBAjANBgkqhkiG9w0BAQsFADBuMQswCQYDVQQGEwJDQTEN
MAsGA1UECAwEUEFNQTEPMA0GA1UEBwwGUXVlYmVjMQ0wCwYDVQQKDARTRUxGMRIw
EAYDVQQLDAlTRUxGIHVuaXQxHDAaBgNVBAMME2lzIGxlYWYgY2VydGlmaWNhdGUw
IBcNMjQwOTA4MTgzODI1WhgPMjEyNDA4MTUxODM4MjVaMC8xCzAJBgNVBAYTAkNB
MREwDwYDVQQKDAhtYmVkIFRMUzENMAsGA1UEAwwEQ2VydDCCASIwDQYJKoZIhvcN
AQEBBQADggEPADCCAQoCggEBAKZvZY8J6lwHLb0B5gptf4Uir2OTtPU87y5q9TKq
SE+Iy5/wX4Dzm/rDOKU2U4LoU54VzBlg0l06JH21j7rvzEnOfG4RHJlLVf0dVf/W
D+++Rq2zU73REbEB84HR0hAp4CFgWT7extcDrMu9/TwQ3gcEit36drvjDTnbFzl1
tFcazUwrga7EluQJhAF5BKNTpxz8TN6XomAMGAEgQ6+cA3oKBu/zH90sPByrJPhX
Prm9jJvxcueUl/8abRM+Q+CL3YolUcfsLX4QUYlm6q3BM+bIb9+KIQRWC66MMrov
gzYkvTDq8IgobYPi5rWuXw+W+ePdplWZxppbXVK6UEYYR10CAwEAAaNsMGowHQYD
VR0OBBYEFByzHwz9omDz0hJL4kTJPmaq2E03MB8GA1UdIwQYMBaAFCdTbcanxLwc
568SPOqhPIHImL7nMAkGA1UdEwQCMAAwCwYDVR0PBAQDAgWgMBAGCWCGSAGG+EIB
AQQDAwEAMA0GCSqGSIb3DQEBCwUAA4ICAQBIFcC5aM+Jk4Ke8Tfk/8kVZouycQmt
otnS/cM1+lyYXE7li/irsyQ4yVWT5cYj7DP4MnpApvi1ywYhfOGnjMx9aHQhN4Bs
2n6x/kr30GQTFO2XqbkOjRzXA3TykHrp9P61P8iKer2vqiSvrv0KMn8oVvTvjEy5
YtxeKU8A87gw6Goeeam4DZhRbVsUYfuVhxIZluBGf1NBoIPTqG+Lh+wtZPTj52Kg
qZpKbiJ8FxWkJU1fuQiS+IRR9WTlQPvqgquPzGVgx43+qpKvUvpbyI5+DJgLNc3e
lQfivIgZ8xnIDbceEGcP4QLIKd9MArTCHn53vvCB5Fg8+KikCAu9zM/Hr8AD7bjz
Q52LbFkkgQBjnHxW/UJaIb/3GvK/LZ/PesdijrcLNaI6x82ulsFy2m4ddQjoz7a1
5OcYl/ZREUawwcY7yWYtKHlTVHQJUzBUDuPlhJMDJi7gdryTAKcewtb1eG7wuHOC
fyAiW+wg+Q8f1OsoODDeRqAcxyhpUpK6KHI+4+7FLTJUTNeWk36JqgJgMxjpMmHk
+9k59JLLWWPh70sPoJ5Ll3ycdI8mcCFkvmGee0oyxnVDDEovOr5B54YRR6YE00qH
uxkYmwKDHKGPfO1u2Matj6iQ8ofk+wiMI9+Sco9v0lv0CBQeKT2jO0GjQgBfrwSy
wS6SOBnfzuMnTw==
-----END CERTIFICATE-----
