Certificate:
    Data:
        Version: 3 (0x2)
        Serial Number: 3 (0x3)
        Signature Algorithm: sha256WithRSAEncryption
        Issuer: C=CA, ST=PAMA, L=Quebec, O=SELF, OU=SELF unit, CN=is leaf certificate
        Validity
            Not Before: Sep  8 21:22:57 2024 GMT
            Not After : Aug 15 21:22:57 2124 GMT
        Subject: C=CA, O=mbed TLS, CN=Cert
        Subject Public Key Info:
            Public Key Algorithm: rsaEncryption
                Public-Key: (2048 bit)
                Modulus:
                    00:d5:54:92:fe:02:b2:df:32:21:5b:2c:f2:31:f2:
                    1d:2b:70:04:d7:50:a5:86:48:ed:ee:56:72:0e:5d:
                    17:89:a5:d8:7b:f5:a5:53:9c:84:46:6c:d3:9d:d5:
                    0b:8f:cc:63:9b:67:27:3e:19:46:34:2c:43:bd:97:
                    00:fd:48:ab:58:5a:1f:4d:7c:87:0e:df:ea:63:f9:
                    53:ee:ce:92:48:26:2c:fe:67:92:64:2e:e9:d1:f7:
                    9f:b7:e7:40:87:cb:36:cb:e5:79:28:19:13:60:9c:
                    b9:97:b3:ae:c9:fb:04:1a:4d:16:7f:f8:dc:43:ef:
                    5b:ed:87:e4:dd:a2:33:10:ef:e9:da:30:d5:c7:f4:
                    c6:1c:d3:19:79:ba:fb:b1:67:3b:3d:60:05:33:72:
                    4a:a9:6b:94:8e:ad:8b:e9:2d:67:8b:a1:b6:64:17:
                    cf:fe:e9:61:72:50:90:74:38:96:93:b2:2e:d8:b5:
                    a0:a6:b3:6f:c2:fe:26:ae:fe:40:3b:aa:0a:44:3d:
                    28:f4:b4:00:65:b8:8b:53:c3:a1:81:4c:f8:69:af:
                    19:0a:37:af:32:44:6a:d4:5e:fe:cd:d1:a6:33:7d:
                    d0:1f:2a:4e:d5:c3:b4:99:09:65:14:b8:9d:4f:b5:
                    6c:92:1f:27:d5:69:41:1e:57:23:dc:61:a2:eb:f8:
                    69:97
                Exponent: 65537 (0x10001)
        X509v3 extensions:
            X509v3 Subject Key Identifier: 
                F9:6A:A4:AE:0B:C2:82:45:DD:38:2F:9C:DB:B1:D3:CB:46:36:81:18
            X509v3 Authority Key Identifier: 
                27:53:6D:C6:A7:C4:BC:1C:E7:AF:12:3C:EA:A1:3C:81:C8:98:BE:E7
            X509v3 Basic Constraints: 
                CA:FALSE
            X509v3 Key Usage: 
                Digital Signature, Key Encipherment
            Netscape Cert Type: 
                ...
    Signature Algorithm: sha256WithRSAEncryption
    Signature Value:
        c0:1d:eb:c7:70:ac:39:f0:71:0a:a8:85:3d:59:78:1e:56:bf:
        92:28:6b:a8:16:19:d4:47:1f:97:be:4c:32:e0:c3:b0:03:df:
        84:5b:c3:72:c4:2b:80:5f:35:45:14:4b:a6:c1:74:c8:59:cc:
        03:44:fe:38:e0:eb:0d:ce:94:03:f1:29:1e:88:0d:74:37:2c:
        9a:31:a9:9f:24:ec:8c:70:ec:7d:a4:78:e1:ae:c2:5d:d6:a2:
        4c:34:12:3c:57:65:f6:97:7e:95:a7:f8:5a:85:90:24:ec:72:
        79:e1:f7:71:13:f8:33:bb:92:63:53:1d:2a:98:df:c3:15:44:
        fb:1a:6d:5a:b9:61:5c:01:4a:ac:69:9a:57:ed:b5:dc:7b:88:
        62:97:4b:65:d4:61:60:f3:69:c0:96:a7:9e:98:12:fb:ad:2a:
        52:98:d9:c8:b4:d2:4f:6c:ab:02:a7:bf:09:b7:45:8e:69:08:
        a1:b0:7d:95:38:89:8a:e9:68:2c:f1:16:d1:85:ce:ee:61:98:
        b5:b1:cd:a1:cd:f4:e7:43:5f:84:79:46:4b:04:62:28:84:26:
        e6:f7:24:96:fb:bc:b4:e9:2f:57:72:f7:2b:42:02:cc:68:92:
        cd:5f:39:54:49:eb:90:3b:bc:be:01:84:36:87:42:51:67:8e:
        2e:c1:bd:ff:11:c1:cb:27:84:8a:68:ec:57:68:32:c0:7e:44:
        48:b5:c3:b9:f5:b4:5f:3d:39:3c:20:a3:b0:0e:f8:b5:32:95:
        d8:a4:59:31:14:ce:f1:c5:4f:35:0d:88:4d:a4:2f:96:a1:51:
        2a:33:6d:2f:17:2b:18:68:18:f5:ca:22:24:39:8a:a9:c0:97:
        4c:11:fb:4a:37:37:63:e5:79:e0:f1:ac:39:6c:c9:f2:c2:1d:
        ae:f9:28:0d:8c:42:22:ae:2a:26:5d:08:97:60:e2:d9:05:23:
        d3:0a:9c:f9:b2:9d:91:0a:1d:34:fb:5a:30:74:57:81:1f:ef:
        ef:bc:97:00:37:21:ad:42:f7:02:fe:43:f4:d3:0e:ca:55:f2:
        3c:31:97:38:b4:86:f9:7b:30:06:60:4d:45:8b:c7:32:ea:4e:
        d6:15:2e:14:51:1d:3f:06:ab:56:ba:da:9d:81:2e:12:e6:97:
        96:69:b5:9c:83:9e:39:d6:49:e6:25:2c:84:5a:c6:1b:28:12:
        1f:b5:9b:08:57:40:2d:82:3e:32:ec:0a:24:4e:dc:bc:bc:83:
        fa:e9:8b:9b:85:d7:20:42:e4:93:0f:a6:e1:90:3b:f4:c5:54:
        bc:f1:fc:d7:10:62:cc:8d:c7:43:6a:42:d2:aa:aa:0f:c0:9c:
        01:96:1d:50:04:94:84:a2
-----BEGIN CERTIFICATE-----
MIIEhjCCAm6gAwIBAgIBAzANBgkqhkiG9w0BAQsFADBuMQswCQYDVQQGEwJDQTEN
MAsGA1UECAwEUEFNQTEPMA0GA1UEBwwGUXVlYmVjMQ0wCwYDVQQKDARTRUxGMRIw
EAYDVQQLDAlTRUxGIHVuaXQxHDAaBgNVBAMME2lzIGxlYWYgY2VydGlmaWNhdGUw
IBcNMjQwOTA4MjEyMjU3WhgPMjEyNDA4MTUyMTIyNTdaMC8xCzAJBgNVBAYTAkNB
MREwDwYDVQQKDAhtYmVkIFRMUzENMAsGA1UEAwwEQ2VydDCCASIwDQYJKoZIhvcN
AQEBBQADggEPADCCAQoCggEBANVUkv4Cst8yIVss8jHyHStwBNdQpYZI7e5Wcg5d
F4ml2Hv1pVOchEZs053VC4/MY5tnJz4ZRjQsQ72XAP1Iq1haH018hw7f6mP5U+7O
kkgmLP5nkmQu6dH3n7fnQIfLNsvleSgZE2CcuZezrsn7BBpNFn/43EPvW+2H5N2i
MxDv6dow1cf0xhzTGXm6+7FnOz1gBTNySqlrlI6ti+ktZ4uhtmQXz/7pYXJQkHQ4
lpOyLti1oKazb8L+Jq7+QDuqCkQ9KPS0AGW4i1PDoYFM+GmvGQo3rzJEatRe/s3R
pjN90B8qTtXDtJkJZRS4nU+1bJIfJ9VpQR5XI9xhouv4aZcCAwEAAaNsMGowHQYD
VR0OBBYEFPlqpK4LwoJF3TgvnNux08tGNoEYMB8GA1UdIwQYMBaAFCdTbcanxLwc
568SPOqhPIHImL7nMAkGA1UdEwQCMAAwCwYDVR0PBAQDAgWgMBAGCWCGSAGG+EIB
AQQDAwEAMA0GCSqGSIb3DQEBCwUAA4ICAQDAHevHcKw58HEKqIU9WXgeVr+SKGuo
FhnURx+Xvkwy4MOwA9+EW8NyxCuAXzVFFEumwXTIWcwDRP444OsNzpQD8SkeiA10
NyyaMamfJOyMcOx9pHjhrsJd1qJMNBI8V2X2l36Vp/hahZAk7HJ54fdxE/gzu5Jj
Ux0qmN/DFUT7Gm1auWFcAUqsaZpX7bXce4hil0tl1GFg82nAlqeemBL7rSpSmNnI
tNJPbKsCp78Jt0WOaQihsH2VOImK6Wgs8RbRhc7uYZi1sc2hzfTnQ1+EeUZLBGIo
hCbm9ySW+7y06S9XcvcrQgLMaJLNXzlUSeuQO7y+AYQ2h0JRZ44uwb3/EcHLJ4SK
aOxXaDLAfkRItcO59bRfPTk8IKOwDvi1MpXYpFkxFM7xxU81DYhNpC+WoVEqM20v
FysYaBj1yiIkOYqpwJdMEftKNzdj5Xng8aw5bMnywh2u+SgNjEIiriomXQiXYOLZ
BSPTCpz5sp2RCh00+1owdFeBH+/vvJcANyGtQvcC/kP00w7KVfI8MZc4tIb5ezAG
YE1Fi8cy6k7WFS4UUR0/BqtWutqdgS4S5peWabWcg5451knmJSyEWsYbKBIftZsI
V0Atgj4y7AokTty8vIP66YubhdcgQuSTD6bhkDv0xVS88fzXEGLMjcdDakLSqqoP
wJwBlh1QBJSEog==
-----END CERTIFICATE-----
