Certificate:
    Data:
        Version: 3 (0x2)
        Serial Number: 4 (0x4)
        Signature Algorithm: sha256WithRSAEncryption
        Issuer: C=CA, O=SELF, OU=SELF, CN=SELF IDENTITY CA
        Validity
            Not Before: Sep  8 21:46:42 2024 GMT
            Not After : Aug 15 21:46:42 2124 GMT
        Subject: C=CA, O=mbed TLS, CN=Cert
        Subject Public Key Info:
            Public Key Algorithm: rsaEncryption
                Public-Key: (2048 bit)
                Modulus:
                    00:d5:54:92:fe:02:b2:df:32:21:5b:2c:f2:31:f2:
                    1d:2b:70:04:d7:50:a5:86:48:ed:ee:56:72:0e:5d:
                    17:89:a5:d8:7b:f5:a5:53:9c:84:46:6c:d3:9d:d5:
                    0b:8f:cc:63:9b:67:27:3e:19:46:34:2c:43:bd:97:
                    00:fd:48:ab:58:5a:1f:4d:7c:87:0e:df:ea:63:f9:
                    53:ee:ce:92:48:26:2c:fe:67:92:64:2e:e9:d1:f7:
                    9f:b7:e7:40:87:cb:36:cb:e5:79:28:19:13:60:9c:
                    b9:97:b3:ae:c9:fb:04:1a:4d:16:7f:f8:dc:43:ef:
                    5b:ed:87:e4:dd:a2:33:10:ef:e9:da:30:d5:c7:f4:
                    c6:1c:d3:19:79:ba:fb:b1:67:3b:3d:60:05:33:72:
                    4a:a9:6b:94:8e:ad:8b:e9:2d:67:8b:a1:b6:64:17:
                    cf:fe:e9:61:72:50:90:74:38:96:93:b2:2e:d8:b5:
                    a0:a6:b3:6f:c2:fe:26:ae:fe:40:3b:aa:0a:44:3d:
                    28:f4:b4:00:65:b8:8b:53:c3:a1:81:4c:f8:69:af:
                    19:0a:37:af:32:44:6a:d4:5e:fe:cd:d1:a6:33:7d:
                    d0:1f:2a:4e:d5:c3:b4:99:09:65:14:b8:9d:4f:b5:
                    6c:92:1f:27:d5:69:41:1e:57:23:dc:61:a2:eb:f8:
                    69:97
                Exponent: 65537 (0x10001)
        X509v3 extensions:
            X509v3 Subject Key Identifier: 
                F9:6A:A4:AE:0B:C2:82:45:DD:38:2F:9C:DB:B1:D3:CB:46:36:81:18
            X509v3 Authority Key Identifier: 
                97:6E:F5:B1:38:A0:FA:55:28:0D:D5:CC:E2:C3:41:F9:6F:F7:2E:57
            X509v3 Basic Constraints: 
                CA:FALSE
            X509v3 Key Usage: 
                Digital Signature, Key Encipherment
            Netscape Cert Type: 
                ...
    Signature Algorithm: sha256WithRSAEncryption
    Signature Value:
        73:c0:60:18:96:b5:97:bc:f1:b6:d9:f8:e3:08:65:78:02:bd:
        f8:c8:8c:04:9d:7b:6b:cc:e3:d3:3c:ad:2d:16:3f:75:f6:5b:
        b8:61:f5:13:01:88:7b:f3:5e:7c:b7:40:33:3f:6a:e4:22:df:
        d0:54:a5:17:ac:39:65:cd:1a:77:87:4b:d2:bf:94:c5:f5:e8:
        e3:e3:a9:87:af:15:d7:46:89:a5:49:a1:7d:e0:ea:29:f2:3e:
        9b:7c:f3:ea:76:ee:33:45:99:6c:c3:4f:54:a2:7a:5d:c7:e5:
        fc:e1:b9:59:37:04:fe:ac:23:80:bd:14:b4:f0:c4:d8:87:50:
        43:3c:a1:0b:74:05:9e:5c:88:df:21:aa:97:f4:72:62:4c:4a:
        0b:3b:5b:28:38:e2:7f:f2:be:f8:f1:a1:3c:f2:f3:38:45:8f:
        33:e2:55:a8:16:ae:57:81:d4:06:36:ec:3c:eb:df:51:d6:af:
        98:68:55:71:fe:cb:37:da:93:1a:3a:b5:28:c1:64:60:dd:08:
        18:14:91:a4:a8:0a:f8:6d:6c:ac:c0:a1:62:60:b5:34:b1:c6:
        81:0a:8b:ca:35:4d:cf:5b:66:e0:43:bd:c2:e6:1e:96:c7:e0:
        74:ad:54:15:d7:16:85:d5:8b:28:5a:95:0d:b4:d1:86:ad:a1:
        80:3c:4f:02:16:95:d9:d2:4b:f7:e9:1b:40:93:5c:f8:c9:8b:
        64:a6:46:6e:b4:77:50:92:48:be:7d:4d:09:fc:13:4e:52:8d:
        f5:5b:43:a0:f7:21:78:58:25:94:c6:64:b1:f5:2f:b5:55:2e:
        1a:80:3b:9f:85:90:e9:63:a5:20:ef:c1:9d:79:30:65:91:1b:
        f9:4b:18:16:20:b8:74:d4:19:2b:a2:81:6f:57:c6:05:10:d7:
        ff:e6:44:f8:f3:7d:da:79:b5:82:24:2b:c5:6e:be:29:a3:2d:
        0d:27:ea:ec:de:be:82:b7:82:fe:c6:62:bd:98:70:ba:ed:65:
        5f:91:6e:7a:78:ed:55:bf:4c:be:1d:ad:a1:4f:d5:3f:fd:f8:
        07:97:f6:f8:0f:6d:85:96:76:be:b8:5f:32:05:2e:92:4a:e2:
        f7:e8:e7:07:fa:b3:da:85:69:26:a0:bc:11:82:a1:4d:a7:8b:
        2a:93:b1:e6:76:35:06:84:89:0a:45:40:21:1a:7c:7e:c5:9f:
        05:71:da:b0:80:5d:70:90:19:b9:81:4f:4f:39:a5:40:f9:5c:
        92:fe:75:05:90:31:a6:ab:0c:b2:ae:fb:0e:59:1e:25:c1:32:
        31:33:df:43:33:3f:94:63:11:f6:a2:55:55:d6:ea:56:e1:1f:
        7a:03:df:b6:92:37:66:b6
-----BEGIN CERTIFICATE-----
MIIEXjCCAkagAwIBAgIBBDANBgkqhkiG9w0BAQsFADBGMQswCQYDVQQGEwJDQTEN
MAsGA1UECgwEU0VMRjENMAsGA1UECwwEU0VMRjEZMBcGA1UEAwwQU0VMRiBJREVO
VElUWSBDQTAgFw0yNDA5MDgyMTQ2NDJaGA8yMTI0MDgxNTIxNDY0MlowLzELMAkG
A1UEBhMCQ0ExETAPBgNVBAoMCG1iZWQgVExTMQ0wCwYDVQQDDARDZXJ0MIIBIjAN
BgkqhkiG9w0BAQEFAAOCAQ8AMIIBCgKCAQEA1VSS/gKy3zIhWyzyMfIdK3AE11Cl
hkjt7lZyDl0XiaXYe/WlU5yERmzTndULj8xjm2cnPhlGNCxDvZcA/UirWFofTXyH
Dt/qY/lT7s6SSCYs/meSZC7p0feft+dAh8s2y+V5KBkTYJy5l7OuyfsEGk0Wf/jc
Q+9b7Yfk3aIzEO/p2jDVx/TGHNMZebr7sWc7PWAFM3JKqWuUjq2L6S1ni6G2ZBfP
/ulhclCQdDiWk7Iu2LWgprNvwv4mrv5AO6oKRD0o9LQAZbiLU8OhgUz4aa8ZCjev
MkRq1F7+zdGmM33QHypO1cO0mQllFLidT7Vskh8n1WlBHlcj3GGi6/hplwIDAQAB
o2wwajAdBgNVHQ4EFgQU+WqkrgvCgkXdOC+c27HTy0Y2gRgwHwYDVR0jBBgwFoAU
l271sTig+lUoDdXM4sNB+W/3LlcwCQYDVR0TBAIwADALBgNVHQ8EBAMCBaAwEAYJ
YIZIAYb4QgEBBAMDAQAwDQYJKoZIhvcNAQELBQADggIBAHPAYBiWtZe88bbZ+OMI
ZXgCvfjIjASde2vM49M8rS0WP3X2W7hh9RMBiHvzXny3QDM/auQi39BUpResOWXN
GneHS9K/lMX16OPjqYevFddGiaVJoX3g6inyPpt88+p27jNFmWzDT1Siel3H5fzh
uVk3BP6sI4C9FLTwxNiHUEM8oQt0BZ5ciN8hqpf0cmJMSgs7Wyg44n/yvvjxoTzy
8zhFjzPiVagWrleB1AY27Dzr31HWr5hoVXH+yzfakxo6tSjBZGDdCBgUkaSoCvht
bKzAoWJgtTSxxoEKi8o1Tc9bZuBDvcLmHpbH4HStVBXXFoXViyhalQ200YatoYA8
TwIWldnSS/fpG0CTXPjJi2SmRm60d1CSSL59TQn8E05SjfVbQ6D3IXhYJZTGZLH1
L7VVLhqAO5+FkOljpSDvwZ15MGWRG/lLGBYguHTUGSuigW9XxgUQ1//mRPjzfdp5
tYIkK8VuvimjLQ0n6uzevoK3gv7GYr2YcLrtZV+Rbnp47VW/TL4draFP1T/9+AeX
9vgPbYWWdr64XzIFLpJK4vfo5wf6s9qFaSagvBGCoU2niyqTseZ2NQaEiQpFQCEa
fH7FnwVx2rCAXXCQGbmBT085pUD5XJL+dQWQMaarDLKu+w5ZHiXBMjEz30MzP5Rj
EfaiVVXW6lbhH3oD37aSN2a2
-----END CERTIFICATE-----
