Certificate:
    Data:
        Version: 3 (0x2)
        Serial Number: 5 (0x5)
        Signature Algorithm: sha256WithRSAEncryption
        Issuer: C=CA, O=SELF, OU=SELF, CN=SELF IDENTITY CA
        Validity
            Not Before: Sep  8 21:47:10 2024 GMT
            Not After : Aug 15 21:47:10 2124 GMT
        Subject: C=CA, O=mbed TLS, CN=Cert
        Subject Public Key Info:
            Public Key Algorithm: rsaEncryption
                Public-Key: (2048 bit)
                Modulus:
                    00:d5:54:92:fe:02:b2:df:32:21:5b:2c:f2:31:f2:
                    1d:2b:70:04:d7:50:a5:86:48:ed:ee:56:72:0e:5d:
                    17:89:a5:d8:7b:f5:a5:53:9c:84:46:6c:d3:9d:d5:
                    0b:8f:cc:63:9b:67:27:3e:19:46:34:2c:43:bd:97:
                    00:fd:48:ab:58:5a:1f:4d:7c:87:0e:df:ea:63:f9:
                    53:ee:ce:92:48:26:2c:fe:67:92:64:2e:e9:d1:f7:
                    9f:b7:e7:40:87:cb:36:cb:e5:79:28:19:13:60:9c:
                    b9:97:b3:ae:c9:fb:04:1a:4d:16:7f:f8:dc:43:ef:
                    5b:ed:87:e4:dd:a2:33:10:ef:e9:da:30:d5:c7:f4:
                    c6:1c:d3:19:79:ba:fb:b1:67:3b:3d:60:05:33:72:
                    4a:a9:6b:94:8e:ad:8b:e9:2d:67:8b:a1:b6:64:17:
                    cf:fe:e9:61:72:50:90:74:38:96:93:b2:2e:d8:b5:
                    a0:a6:b3:6f:c2:fe:26:ae:fe:40:3b:aa:0a:44:3d:
                    28:f4:b4:00:65:b8:8b:53:c3:a1:81:4c:f8:69:af:
                    19:0a:37:af:32:44:6a:d4:5e:fe:cd:d1:a6:33:7d:
                    d0:1f:2a:4e:d5:c3:b4:99:09:65:14:b8:9d:4f:b5:
                    6c:92:1f:27:d5:69:41:1e:57:23:dc:61:a2:eb:f8:
                    69:97
                Exponent: 65537 (0x10001)
        X509v3 extensions:
            X509v3 Subject Key Identifier: 
                F9:6A:A4:AE:0B:C2:82:45:DD:38:2F:9C:DB:B1:D3:CB:46:36:81:18
            X509v3 Authority Key Identifier: 
                97:6E:F5:B1:38:A0:FA:55:28:0D:D5:CC:E2:C3:41:F9:6F:F7:2E:57
            X509v3 Basic Constraints: 
                CA:FALSE
            X509v3 Key Usage: 
                Digital Signature, Key Encipherment
            Netscape Cert Type: 
                ...
    Signature Algorithm: sha256WithRSAEncryption
    Signature Value:
        28:7d:23:74:bb:4b:0d:3d:27:fb:37:9e:92:0c:e1:b1:a7:74:
        74:29:1e:6a:58:a3:e0:9a:c4:22:45:e6:da:5a:44:c6:41:54:
        51:25:10:07:eb:51:fc:87:14:b8:86:9c:6d:17:57:47:9e:e7:
        a2:b3:db:45:5b:cb:76:fc:52:0e:a1:27:65:32:9a:87:9d:31:
        db:8f:7b:49:c1:66:7a:4d:bc:1c:23:e6:ae:bc:60:63:52:25:
        49:1c:d7:b7:ed:80:35:50:e2:b4:b0:55:e2:d3:83:93:86:b4:
        23:5f:f7:20:2d:cc:7c:88:87:f8:1f:88:59:0e:75:0d:21:69:
        ac:a3:d9:66:d6:5b:d5:8c:9a:00:68:8f:7d:a6:3e:0f:2c:17:
        2e:94:d1:58:88:b9:c0:15:78:9b:d9:4d:60:86:04:cf:54:29:
        be:c9:73:50:d9:61:61:ed:1e:61:d3:d5:8f:7d:9e:a9:e7:31:
        19:59:c5:ca:8a:f5:c5:0f:ab:dc:bc:6e:41:29:36:ec:d5:77:
        3d:fe:32:2a:e6:40:fd:e6:f3:47:13:7f:f0:35:87:14:60:d9:
        e7:8a:14:e8:b8:4f:3f:b8:7c:7d:fb:f1:f0:62:b7:a2:89:8f:
        e6:e2:55:4a:88:73:d5:31:83:9f:02:73:bf:e6:ca:96:2b:5d:
        d2:35:99:a8:21:4d:2f:b1:93:93:4c:bb:69:cb:84:68:63:35:
        b0:6a:6a:19:dd:96:80:d9:fd:8f:13:9e:b8:7d:83:5a:a2:de:
        b4:f3:03:29:1b:0d:be:39:06:02:6c:8e:fa:47:76:7c:59:48:
        96:e8:a4:dc:9d:63:65:cf:4f:50:16:e1:9f:5b:5a:cf:3c:30:
        d4:10:4c:9c:22:ed:8b:ed:59:62:16:fa:6e:ce:16:56:46:22:
        17:bc:86:d6:17:7b:85:8b:23:0b:b1:10:8c:d1:9b:5c:b1:c8:
        d1:15:d6:0d:92:aa:86:93:1c:4a:ac:be:f6:3e:55:dd:d8:4b:
        fa:38:b1:af:f3:e1:43:55:04:f0:71:e5:b8:76:e7:bb:2f:ef:
        31:dd:b5:f1:bb:8c:7d:4c:30:e5:fd:9e:3f:eb:45:92:21:30:
        da:56:1e:56:e6:2d:62:5a:33:f2:6b:9a:56:cf:82:8c:50:ae:
        17:d2:c9:78:5b:8e:88:2c:0f:a4:d4:e1:00:84:7c:e8:4f:6f:
        7a:d4:22:cf:0e:52:83:d9:24:d1:41:7f:65:32:20:f6:e1:e6:
        7c:64:b6:92:0e:ed:d8:31:c7:28:2e:1f:de:62:e4:76:b2:76:
        15:8d:5f:a1:a2:b3:eb:1e:6b:a2:41:43:f3:a6:c8:7c:af:bc:
        0e:2d:ba:1d:bf:89:d7:ad
-----BEGIN CERTIFICATE-----
MIIEXjCCAkagAwIBAgIBBTANBgkqhkiG9w0BAQsFADBGMQswCQYDVQQGEwJDQTEN
MAsGA1UECgwEU0VMRjENMAsGA1UECwwEU0VMRjEZMBcGA1UEAwwQU0VMRiBJREVO
VElUWSBDQTAgFw0yNDA5MDgyMTQ3MTBaGA8yMTI0MDgxNTIxNDcxMFowLzELMAkG
A1UEBhMCQ0ExETAPBgNVBAoMCG1iZWQgVExTMQ0wCwYDVQQDDARDZXJ0MIIBIjAN
BgkqhkiG9w0BAQEFAAOCAQ8AMIIBCgKCAQEA1VSS/gKy3zIhWyzyMfIdK3AE11Cl
hkjt7lZyDl0XiaXYe/WlU5yERmzTndULj8xjm2cnPhlGNCxDvZcA/UirWFofTXyH
Dt/qY/lT7s6SSCYs/meSZC7p0feft+dAh8s2y+V5KBkTYJy5l7OuyfsEGk0Wf/jc
Q+9b7Yfk3aIzEO/p2jDVx/TGHNMZebr7sWc7PWAFM3JKqWuUjq2L6S1ni6G2ZBfP
/ulhclCQdDiWk7Iu2LWgprNvwv4mrv5AO6oKRD0o9LQAZbiLU8OhgUz4aa8ZCjev
MkRq1F7+zdGmM33QHypO1cO0mQllFLidT7Vskh8n1WlBHlcj3GGi6/hplwIDAQAB
o2wwajAdBgNVHQ4EFgQU+WqkrgvCgkXdOC+c27HTy0Y2gRgwHwYDVR0jBBgwFoAU
l271sTig+lUoDdXM4sNB+W/3LlcwCQYDVR0TBAIwADALBgNVHQ8EBAMCBaAwEAYJ
YIZIAYb4QgEBBAMDAQAwDQYJKoZIhvcNAQELBQADggIBACh9I3S7Sw09J/s3npIM
4bGndHQpHmpYo+CaxCJF5tpaRMZBVFElEAfrUfyHFLiGnG0XV0ee56Kz20Vby3b8
Ug6hJ2UymoedMduPe0nBZnpNvBwj5q68YGNSJUkc17ftgDVQ4rSwVeLTg5OGtCNf
9yAtzHyIh/gfiFkOdQ0haayj2WbWW9WMmgBoj32mPg8sFy6U0ViIucAVeJvZTWCG
BM9UKb7Jc1DZYWHtHmHT1Y99nqnnMRlZxcqK9cUPq9y8bkEpNuzVdz3+MirmQP3m
80cTf/A1hxRg2eeKFOi4Tz+4fH378fBit6KJj+biVUqIc9Uxg58Cc7/mypYrXdI1
maghTS+xk5NMu2nLhGhjNbBqahndloDZ/Y8Tnrh9g1qi3rTzAykbDb45BgJsjvpH
dnxZSJbopNydY2XPT1AW4Z9bWs88MNQQTJwi7YvtWWIW+m7OFlZGIhe8htYXe4WL
IwuxEIzRm1yxyNEV1g2SqoaTHEqsvvY+Vd3YS/o4sa/z4UNVBPBx5bh257sv7zHd
tfG7jH1MMOX9nj/rRZIhMNpWHlbmLWJaM/JrmlbPgoxQrhfSyXhbjogsD6TU4QCE
fOhPb3rUIs8OUoPZJNFBf2UyIPbh5nxktpIO7dgxxyguH95i5HaydhWNX6Gis+se
a6JBQ/OmyHyvvA4tuh2/idet
-----END CERTIFICATE-----
