Certificate:
    Data:
        Version: 3 (0x2)
        Serial Number: 6 (0x6)
        Signature Algorithm: sha256WithRSAEncryption
        Issuer: C=CA, O=SELF, OU=SELF, CN=SELF IDENTITY CA
        Validity
            Not Before: Sep  8 21:53:33 2024 GMT
            Not After : Aug 15 21:53:33 2124 GMT
        Subject: C=CA, O=mbed TLS, CN=Cert
        Subject Public Key Info:
            Public Key Algorithm: rsaEncryption
                Public-Key: (2048 bit)
                Modulus:
                    00:d5:54:92:fe:02:b2:df:32:21:5b:2c:f2:31:f2:
                    1d:2b:70:04:d7:50:a5:86:48:ed:ee:56:72:0e:5d:
                    17:89:a5:d8:7b:f5:a5:53:9c:84:46:6c:d3:9d:d5:
                    0b:8f:cc:63:9b:67:27:3e:19:46:34:2c:43:bd:97:
                    00:fd:48:ab:58:5a:1f:4d:7c:87:0e:df:ea:63:f9:
                    53:ee:ce:92:48:26:2c:fe:67:92:64:2e:e9:d1:f7:
                    9f:b7:e7:40:87:cb:36:cb:e5:79:28:19:13:60:9c:
                    b9:97:b3:ae:c9:fb:04:1a:4d:16:7f:f8:dc:43:ef:
                    5b:ed:87:e4:dd:a2:33:10:ef:e9:da:30:d5:c7:f4:
                    c6:1c:d3:19:79:ba:fb:b1:67:3b:3d:60:05:33:72:
                    4a:a9:6b:94:8e:ad:8b:e9:2d:67:8b:a1:b6:64:17:
                    cf:fe:e9:61:72:50:90:74:38:96:93:b2:2e:d8:b5:
                    a0:a6:b3:6f:c2:fe:26:ae:fe:40:3b:aa:0a:44:3d:
                    28:f4:b4:00:65:b8:8b:53:c3:a1:81:4c:f8:69:af:
                    19:0a:37:af:32:44:6a:d4:5e:fe:cd:d1:a6:33:7d:
                    d0:1f:2a:4e:d5:c3:b4:99:09:65:14:b8:9d:4f:b5:
                    6c:92:1f:27:d5:69:41:1e:57:23:dc:61:a2:eb:f8:
                    69:97
                Exponent: 65537 (0x10001)
        X509v3 extensions:
            X509v3 Subject Key Identifier: 
                F9:6A:A4:AE:0B:C2:82:45:DD:38:2F:9C:DB:B1:D3:CB:46:36:81:18
            X509v3 Authority Key Identifier: 
                97:6E:F5:B1:38:A0:FA:55:28:0D:D5:CC:E2:C3:41:F9:6F:F7:2E:57
            X509v3 Basic Constraints: 
                CA:FALSE
            X509v3 Key Usage: 
                Digital Signature, Key Encipherment
            Netscape Cert Type: 
                ...
    Signature Algorithm: sha256WithRSAEncryption
    Signature Value:
        23:6c:fc:c0:8f:92:a8:45:24:3f:64:80:31:3b:7e:3e:c9:e8:
        59:77:3c:dc:fc:9c:7e:21:de:ab:af:d2:07:01:5a:45:73:f9:
        1b:db:03:27:59:af:1d:1d:df:c5:45:a4:8e:6c:2d:1f:3d:70:
        c7:f9:c6:53:4e:93:37:2f:c6:80:fd:1b:f8:33:e9:b0:72:2d:
        39:d3:1a:5b:3f:dd:2f:e5:16:8d:1b:17:89:ba:b4:02:51:8c:
        f2:f2:d2:22:81:37:02:2e:01:db:81:7d:1b:db:58:a1:0b:a3:
        ce:43:fb:ae:2b:21:97:2c:de:0b:cf:16:4c:73:cf:2c:69:f0:
        a4:ca:18:97:13:75:a1:14:94:f0:70:45:9d:0e:9b:d0:ff:18:
        ce:a0:28:01:a8:88:a0:65:b3:3b:b4:8b:eb:49:29:be:1b:43:
        64:bc:98:c3:f7:bc:ba:ed:9e:0c:51:17:72:34:70:09:8c:5d:
        5f:71:b6:b8:2f:c8:a8:bb:fb:c8:ce:b1:23:e8:8c:54:21:e5:
        a7:89:86:eb:db:a6:3c:69:cd:db:fc:17:9f:28:39:ff:52:48:
        f7:d4:d1:8c:7e:0b:b4:c1:d4:a4:ae:ac:6d:34:6e:f9:e1:56:
        d3:40:c6:dc:38:68:01:a4:2f:90:ac:ba:54:8a:c1:c0:34:e6:
        38:c2:89:8b:f5:e2:25:24:3d:b1:5d:14:8e:e1:cb:aa:d4:e7:
        42:27:33:95:ae:1a:69:3f:20:ed:9b:d2:40:14:7d:23:a9:5d:
        69:8e:32:76:a0:dd:11:0a:e6:e3:0c:f9:16:39:06:e0:17:4c:
        8e:6b:5a:43:12:a6:4c:32:45:d5:c3:db:8d:d1:06:b4:5f:87:
        5f:8e:ac:82:b0:48:b2:3f:6f:87:01:22:46:f2:27:c0:83:bb:
        94:b5:2e:99:27:cf:3e:09:96:a3:d8:d7:ce:91:b2:2f:a2:85:
        78:ab:ee:f7:23:59:6d:a5:8d:86:bf:89:0c:9f:a7:61:ec:98:
        98:ee:1b:ef:94:06:0e:9c:9f:9d:6a:9b:4c:da:98:35:0b:cb:
        2e:2f:ef:43:18:f1:69:22:06:94:06:65:95:b9:7c:24:a2:69:
        a0:95:21:d5:fc:63:f2:d7:94:4b:44:75:a0:68:53:94:c0:62:
        24:47:41:7d:f9:ea:4e:c8:ef:5b:d4:3b:d5:0b:ee:8d:ff:9b:
        f1:a4:fb:81:d0:52:f3:d4:29:44:0a:f6:18:6d:96:ae:66:0f:
        86:55:91:4b:30:4d:03:7e:b1:e4:c5:3d:64:82:8e:3a:63:b8:
        52:a9:b2:a9:7b:68:da:b3:a3:53:9a:50:dc:a5:56:23:81:c3:
        9a:b3:66:4e:78:68:ae:02
-----BEGIN CERTIFICATE-----
MIIEXjCCAkagAwIBAgIBBjANBgkqhkiG9w0BAQsFADBGMQswCQYDVQQGEwJDQTEN
MAsGA1UECgwEU0VMRjENMAsGA1UECwwEU0VMRjEZMBcGA1UEAwwQU0VMRiBJREVO
VElUWSBDQTAgFw0yNDA5MDgyMTUzMzNaGA8yMTI0MDgxNTIxNTMzM1owLzELMAkG
A1UEBhMCQ0ExETAPBgNVBAoMCG1iZWQgVExTMQ0wCwYDVQQDDARDZXJ0MIIBIjAN
BgkqhkiG9w0BAQEFAAOCAQ8AMIIBCgKCAQEA1VSS/gKy3zIhWyzyMfIdK3AE11Cl
hkjt7lZyDl0XiaXYe/WlU5yERmzTndULj8xjm2cnPhlGNCxDvZcA/UirWFofTXyH
Dt/qY/lT7s6SSCYs/meSZC7p0feft+dAh8s2y+V5KBkTYJy5l7OuyfsEGk0Wf/jc
Q+9b7Yfk3aIzEO/p2jDVx/TGHNMZebr7sWc7PWAFM3JKqWuUjq2L6S1ni6G2ZBfP
/ulhclCQdDiWk7Iu2LWgprNvwv4mrv5AO6oKRD0o9LQAZbiLU8OhgUz4aa8ZCjev
MkRq1F7+zdGmM33QHypO1cO0mQllFLidT7Vskh8n1WlBHlcj3GGi6/hplwIDAQAB
o2wwajAdBgNVHQ4EFgQU+WqkrgvCgkXdOC+c27HTy0Y2gRgwHwYDVR0jBBgwFoAU
l271sTig+lUoDdXM4sNB+W/3LlcwCQYDVR0TBAIwADALBgNVHQ8EBAMCBaAwEAYJ
YIZIAYb4QgEBBAMDAQAwDQYJKoZIhvcNAQELBQADggIBACNs/MCPkqhFJD9kgDE7
fj7J6Fl3PNz8nH4h3quv0gcBWkVz+RvbAydZrx0d38VFpI5sLR89cMf5xlNOkzcv
xoD9G/gz6bByLTnTGls/3S/lFo0bF4m6tAJRjPLy0iKBNwIuAduBfRvbWKELo85D
+64rIZcs3gvPFkxzzyxp8KTKGJcTdaEUlPBwRZ0Om9D/GM6gKAGoiKBlszu0i+tJ
Kb4bQ2S8mMP3vLrtngxRF3I0cAmMXV9xtrgvyKi7+8jOsSPojFQh5aeJhuvbpjxp
zdv8F58oOf9SSPfU0Yx+C7TB1KSurG00bvnhVtNAxtw4aAGkL5CsulSKwcA05jjC
iYv14iUkPbFdFI7hy6rU50InM5WuGmk/IO2b0kAUfSOpXWmOMnag3REK5uMM+RY5
BuAXTI5rWkMSpkwyRdXD243RBrRfh1+OrIKwSLI/b4cBIkbyJ8CDu5S1Lpknzz4J
lqPY186Rsi+ihXir7vcjWW2ljYa/iQyfp2HsmJjuG++UBg6cn51qm0zamDULyy4v
70MY8WkiBpQGZZW5fCSiaaCVIdX8Y/LXlEtEdaBoU5TAYiRHQX356k7I71vUO9UL
7o3/m/Gk+4HQUvPUKUQK9hhtlq5mD4ZVkUswTQN+seTFPWSCjjpjuFKpsql7aNqz
o1OaUNylViOBw5qzZk54aK4C
-----END CERTIFICATE-----
