Certificate:
    Data:
        Version: 3 (0x2)
        Serial Number: 7 (0x7)
        Signature Algorithm: sha256WithRSAEncryption
        Issuer: C=CA, O=SELF, OU=SELF, CN=SELF IDENTITY CA
        Validity
            Not Before: Sep  8 22:28:17 2024 GMT
            Not After : Aug 15 22:28:17 2124 GMT
        Subject: C=CA, O=mbed TLS, CN=Cert
        Subject Public Key Info:
            Public Key Algorithm: rsaEncryption
                Public-Key: (2048 bit)
                Modulus:
                    00:d5:54:92:fe:02:b2:df:32:21:5b:2c:f2:31:f2:
                    1d:2b:70:04:d7:50:a5:86:48:ed:ee:56:72:0e:5d:
                    17:89:a5:d8:7b:f5:a5:53:9c:84:46:6c:d3:9d:d5:
                    0b:8f:cc:63:9b:67:27:3e:19:46:34:2c:43:bd:97:
                    00:fd:48:ab:58:5a:1f:4d:7c:87:0e:df:ea:63:f9:
                    53:ee:ce:92:48:26:2c:fe:67:92:64:2e:e9:d1:f7:
                    9f:b7:e7:40:87:cb:36:cb:e5:79:28:19:13:60:9c:
                    b9:97:b3:ae:c9:fb:04:1a:4d:16:7f:f8:dc:43:ef:
                    5b:ed:87:e4:dd:a2:33:10:ef:e9:da:30:d5:c7:f4:
                    c6:1c:d3:19:79:ba:fb:b1:67:3b:3d:60:05:33:72:
                    4a:a9:6b:94:8e:ad:8b:e9:2d:67:8b:a1:b6:64:17:
                    cf:fe:e9:61:72:50:90:74:38:96:93:b2:2e:d8:b5:
                    a0:a6:b3:6f:c2:fe:26:ae:fe:40:3b:aa:0a:44:3d:
                    28:f4:b4:00:65:b8:8b:53:c3:a1:81:4c:f8:69:af:
                    19:0a:37:af:32:44:6a:d4:5e:fe:cd:d1:a6:33:7d:
                    d0:1f:2a:4e:d5:c3:b4:99:09:65:14:b8:9d:4f:b5:
                    6c:92:1f:27:d5:69:41:1e:57:23:dc:61:a2:eb:f8:
                    69:97
                Exponent: 65537 (0x10001)
        X509v3 extensions:
            X509v3 Subject Key Identifier: 
                F9:6A:A4:AE:0B:C2:82:45:DD:38:2F:9C:DB:B1:D3:CB:46:36:81:18
            X509v3 Authority Key Identifier: 
                97:6E:F5:B1:38:A0:FA:55:28:0D:D5:CC:E2:C3:41:F9:6F:F7:2E:57
            X509v3 Basic Constraints: 
                CA:FALSE
            X509v3 Key Usage: 
                Digital Signature, Key Encipherment
            Netscape Cert Type: 
                ...
    Signature Algorithm: sha256WithRSAEncryption
    Signature Value:
        05:28:f1:0f:2f:09:64:8f:3a:47:b3:2d:da:bd:a4:d5:5f:96:
        ff:e7:1c:62:29:08:39:3f:da:b0:08:a2:5d:f9:b2:f1:3e:d0:
        d1:8d:d0:31:c3:5f:e0:47:a6:b6:f3:4e:d8:55:9f:9c:e1:fe:
        71:88:a2:b8:d3:3c:13:da:0a:ab:45:24:32:60:ca:07:d0:ee:
        11:28:69:97:d7:68:19:5b:da:08:83:98:36:7c:5f:2e:01:40:
        3e:c8:0f:68:b9:58:41:85:ae:10:35:54:e4:8b:c3:18:66:53:
        01:b2:af:8b:c8:26:d8:90:24:02:31:f8:85:85:21:34:66:61:
        c7:f7:61:98:ab:dc:63:cf:8f:ee:f3:21:2a:1d:47:e5:ec:d2:
        41:4b:17:be:4d:b9:e9:ad:9a:0a:72:0a:11:67:bd:01:7f:cb:
        35:ca:04:c6:80:50:93:73:5c:56:c9:92:0d:cd:42:8b:0d:4c:
        00:5d:a5:d0:eb:ea:3d:31:fa:c4:4e:3d:95:c8:e1:85:e5:5b:
        fe:77:e4:1e:dd:b4:04:e9:2a:c8:ad:4e:05:ff:81:10:95:b0:
        26:29:16:d2:2a:50:e7:ba:54:15:7a:9d:af:3d:e5:3c:ed:87:
        d6:ad:45:2b:de:65:09:e8:64:25:09:5d:d5:7e:09:f3:4e:ee:
        e1:79:15:ee:80:b7:22:b6:70:2a:25:e0:1c:e1:2c:14:97:c3:
        db:4f:3d:0d:54:48:ed:67:8c:7f:6c:40:4a:3f:80:62:6e:d0:
        48:c4:45:a3:0f:bd:18:07:b5:22:ce:5e:72:6e:fe:4a:68:f9:
        8c:7f:a0:5b:61:77:d8:24:43:66:8d:f8:3f:7b:86:1b:99:42:
        c7:2d:04:a6:9c:05:57:19:c8:a4:aa:b1:d6:b0:99:44:41:b2:
        57:6f:12:90:cd:4e:d0:fe:2d:41:1f:92:60:9a:b3:67:79:dd:
        01:73:d8:92:93:33:58:6a:69:1f:a9:f5:9f:d1:19:6d:6b:65:
        f3:8d:78:00:e6:d1:53:a3:53:ba:2f:cf:df:70:c1:2f:46:08:
        d1:25:41:86:29:0f:66:4e:44:8e:83:3f:df:6b:b4:9e:2a:8c:
        f3:9b:02:42:e8:d8:c5:65:b5:02:69:07:af:02:c0:91:04:53:
        93:de:02:14:da:17:52:55:27:95:c1:10:ac:50:eb:97:7b:ef:
        fa:6f:b7:be:f5:51:d1:00:66:a2:f0:64:5a:dd:f1:3b:27:52:
        be:4f:79:10:31:04:f1:f4:43:e4:52:c3:ed:2a:6e:44:7d:d9:
        13:19:18:e4:ad:a4:88:be:8c:81:83:6f:4d:35:af:0d:5e:13:
        02:dd:ec:fc:61:44:e8:48
-----BEGIN CERTIFICATE-----
MIIEXjCCAkagAwIBAgIBBzANBgkqhkiG9w0BAQsFADBGMQswCQYDVQQGEwJDQTEN
MAsGA1UECgwEU0VMRjENMAsGA1UECwwEU0VMRjEZMBcGA1UEAwwQU0VMRiBJREVO
VElUWSBDQTAgFw0yNDA5MDgyMjI4MTdaGA8yMTI0MDgxNTIyMjgxN1owLzELMAkG
A1UEBhMCQ0ExETAPBgNVBAoMCG1iZWQgVExTMQ0wCwYDVQQDDARDZXJ0MIIBIjAN
BgkqhkiG9w0BAQEFAAOCAQ8AMIIBCgKCAQEA1VSS/gKy3zIhWyzyMfIdK3AE11Cl
hkjt7lZyDl0XiaXYe/WlU5yERmzTndULj8xjm2cnPhlGNCxDvZcA/UirWFofTXyH
Dt/qY/lT7s6SSCYs/meSZC7p0feft+dAh8s2y+V5KBkTYJy5l7OuyfsEGk0Wf/jc
Q+9b7Yfk3aIzEO/p2jDVx/TGHNMZebr7sWc7PWAFM3JKqWuUjq2L6S1ni6G2ZBfP
/ulhclCQdDiWk7Iu2LWgprNvwv4mrv5AO6oKRD0o9LQAZbiLU8OhgUz4aa8ZCjev
MkRq1F7+zdGmM33QHypO1cO0mQllFLidT7Vskh8n1WlBHlcj3GGi6/hplwIDAQAB
o2wwajAdBgNVHQ4EFgQU+WqkrgvCgkXdOC+c27HTy0Y2gRgwHwYDVR0jBBgwFoAU
l271sTig+lUoDdXM4sNB+W/3LlcwCQYDVR0TBAIwADALBgNVHQ8EBAMCBaAwEAYJ
YIZIAYb4QgEBBAMDAQAwDQYJKoZIhvcNAQELBQADggIBAAUo8Q8vCWSPOkezLdq9
pNVflv/nHGIpCDk/2rAIol35svE+0NGN0DHDX+BHprbzTthVn5zh/nGIorjTPBPa
CqtFJDJgygfQ7hEoaZfXaBlb2giDmDZ8Xy4BQD7ID2i5WEGFrhA1VOSLwxhmUwGy
r4vIJtiQJAIx+IWFITRmYcf3YZir3GPPj+7zISodR+Xs0kFLF75NuemtmgpyChFn
vQF/yzXKBMaAUJNzXFbJkg3NQosNTABdpdDr6j0x+sROPZXI4YXlW/535B7dtATp
KsitTgX/gRCVsCYpFtIqUOe6VBV6na895Tzth9atRSveZQnoZCUJXdV+CfNO7uF5
Fe6AtyK2cCol4BzhLBSXw9tPPQ1USO1njH9sQEo/gGJu0EjERaMPvRgHtSLOXnJu
/kpo+Yx/oFthd9gkQ2aN+D97hhuZQsctBKacBVcZyKSqsdawmURBsldvEpDNTtD+
LUEfkmCas2d53QFz2JKTM1hqaR+p9Z/RGW1rZfONeADm0VOjU7ovz99wwS9GCNEl
QYYpD2ZORI6DP99rtJ4qjPObAkLo2MVltQJpB68CwJEEU5PeAhTaF1JVJ5XBEKxQ
65d77/pvt771UdEAZqLwZFrd8TsnUr5PeRAxBPH0Q+RSw+0qbkR92RMZGOStpIi+
jIGDb001rw1eEwLd7PxhROhI
-----END CERTIFICATE-----
