Certificate:
    Data:
        Version: 3 (0x2)
        Serial Number: 8 (0x8)
        Signature Algorithm: sha256WithRSAEncryption
        Issuer: C=CA, O=SELF, OU=SELF, CN=SELF IDENTITY CA
        Validity
            Not Before: Sep  8 22:34:23 2024 GMT
            Not After : Aug 15 22:34:23 2124 GMT
        Subject: C=CA, O=mbed TLS, CN=Cert
        Subject Public Key Info:
            Public Key Algorithm: rsaEncryption
                Public-Key: (2048 bit)
                Modulus:
                    00:d5:54:92:fe:02:b2:df:32:21:5b:2c:f2:31:f2:
                    1d:2b:70:04:d7:50:a5:86:48:ed:ee:56:72:0e:5d:
                    17:89:a5:d8:7b:f5:a5:53:9c:84:46:6c:d3:9d:d5:
                    0b:8f:cc:63:9b:67:27:3e:19:46:34:2c:43:bd:97:
                    00:fd:48:ab:58:5a:1f:4d:7c:87:0e:df:ea:63:f9:
                    53:ee:ce:92:48:26:2c:fe:67:92:64:2e:e9:d1:f7:
                    9f:b7:e7:40:87:cb:36:cb:e5:79:28:19:13:60:9c:
                    b9:97:b3:ae:c9:fb:04:1a:4d:16:7f:f8:dc:43:ef:
                    5b:ed:87:e4:dd:a2:33:10:ef:e9:da:30:d5:c7:f4:
                    c6:1c:d3:19:79:ba:fb:b1:67:3b:3d:60:05:33:72:
                    4a:a9:6b:94:8e:ad:8b:e9:2d:67:8b:a1:b6:64:17:
                    cf:fe:e9:61:72:50:90:74:38:96:93:b2:2e:d8:b5:
                    a0:a6:b3:6f:c2:fe:26:ae:fe:40:3b:aa:0a:44:3d:
                    28:f4:b4:00:65:b8:8b:53:c3:a1:81:4c:f8:69:af:
                    19:0a:37:af:32:44:6a:d4:5e:fe:cd:d1:a6:33:7d:
                    d0:1f:2a:4e:d5:c3:b4:99:09:65:14:b8:9d:4f:b5:
                    6c:92:1f:27:d5:69:41:1e:57:23:dc:61:a2:eb:f8:
                    69:97
                Exponent: 65537 (0x10001)
        X509v3 extensions:
            X509v3 Subject Key Identifier: 
                F9:6A:A4:AE:0B:C2:82:45:DD:38:2F:9C:DB:B1:D3:CB:46:36:81:18
            X509v3 Authority Key Identifier: 
                97:6E:F5:B1:38:A0:FA:55:28:0D:D5:CC:E2:C3:41:F9:6F:F7:2E:57
            X509v3 Basic Constraints: 
                CA:FALSE
            X509v3 Key Usage: 
                Digital Signature, Key Encipherment
            Netscape Cert Type: 
                ...
    Signature Algorithm: sha256WithRSAEncryption
    Signature Value:
        97:96:56:7e:35:7d:2f:55:43:18:23:66:c9:05:6a:f2:0d:e5:
        d2:92:0a:c1:f4:e5:c6:c5:f5:60:87:19:3b:bc:8e:bc:3b:9d:
        83:86:3a:d1:96:b1:12:27:33:3a:bb:36:d8:fe:fe:44:fe:53:
        4c:df:26:36:2c:30:cc:4a:41:53:c4:2f:7d:12:4e:d7:04:e2:
        f2:07:ba:ea:16:ed:d9:27:44:b8:b2:75:64:e1:a0:f1:e8:27:
        76:a7:7c:9d:d8:b7:aa:aa:a1:67:b8:e0:42:07:0f:02:10:b3:
        1b:35:c8:a9:67:53:0c:1f:02:57:4b:74:ad:28:fc:4f:6b:9d:
        c6:5a:50:5d:c5:e1:a1:c3:a3:9b:07:cc:1b:cf:db:33:90:a0:
        38:f8:0e:b2:46:97:74:69:19:ca:fb:f9:4d:58:51:da:fd:f3:
        57:ef:89:31:27:25:6b:a7:01:c4:34:3d:00:1d:50:62:15:e3:
        b8:3d:96:df:71:68:0d:44:c9:81:bd:48:e4:e0:e5:63:4b:44:
        dc:a1:ff:4b:df:03:e6:82:cc:23:0a:00:ad:72:73:22:4b:5c:
        14:e1:c2:19:75:0a:c0:5f:d5:9c:bb:99:d4:19:fa:d6:63:11:
        76:1e:27:ee:eb:08:aa:6a:28:c8:65:03:db:03:1d:d4:c1:e2:
        8d:e8:f1:80:53:2a:9b:03:43:b2:1a:22:f1:56:cc:01:e9:8d:
        11:27:7e:8c:6f:ff:a8:05:3e:30:b8:35:96:3a:32:62:22:f6:
        c3:ee:f0:9d:c2:88:7c:03:b6:72:4d:10:b9:46:32:54:d9:26:
        ec:2e:04:6a:47:88:40:69:05:ec:24:6f:05:45:a2:25:ba:bf:
        c2:04:30:2c:15:db:54:1e:69:f6:76:93:08:da:fa:bb:aa:2d:
        a5:04:16:63:07:b1:9a:25:ab:06:78:10:92:28:e6:03:50:c9:
        a8:03:81:42:ac:39:d5:ee:d2:b6:0d:ca:95:84:70:8f:d4:95:
        20:56:bf:6a:13:d6:77:ba:b9:cf:35:46:32:78:ef:41:e2:f4:
        a1:12:30:3c:7f:7c:a3:1c:ee:a9:ef:42:5b:64:df:6a:d7:7e:
        42:15:bf:e4:be:6e:82:9b:b0:40:b5:94:49:ce:1a:c1:2f:51:
        8d:e2:1b:99:42:b1:a0:f3:8e:c5:87:66:1e:06:dc:fc:14:e0:
        c0:36:69:d6:92:cd:c6:77:ce:91:5b:97:49:90:17:c6:9a:d4:
        1a:32:98:71:84:25:a4:15:f7:b5:95:c7:cd:a9:02:75:61:d7:
        9b:3a:26:92:14:ff:0d:56:f2:8e:c6:dc:de:a4:ed:f7:00:6c:
        23:a6:0e:0c:a9:64:e7:1e
-----BEGIN CERTIFICATE-----
MIIEXjCCAkagAwIBAgIBCDANBgkqhkiG9w0BAQsFADBGMQswCQYDVQQGEwJDQTEN
MAsGA1UECgwEU0VMRjENMAsGA1UECwwEU0VMRjEZMBcGA1UEAwwQU0VMRiBJREVO
VElUWSBDQTAgFw0yNDA5MDgyMjM0MjNaGA8yMTI0MDgxNTIyMzQyM1owLzELMAkG
A1UEBhMCQ0ExETAPBgNVBAoMCG1iZWQgVExTMQ0wCwYDVQQDDARDZXJ0MIIBIjAN
BgkqhkiG9w0BAQEFAAOCAQ8AMIIBCgKCAQEA1VSS/gKy3zIhWyzyMfIdK3AE11Cl
hkjt7lZyDl0XiaXYe/WlU5yERmzTndULj8xjm2cnPhlGNCxDvZcA/UirWFofTXyH
Dt/qY/lT7s6SSCYs/meSZC7p0feft+dAh8s2y+V5KBkTYJy5l7OuyfsEGk0Wf/jc
Q+9b7Yfk3aIzEO/p2jDVx/TGHNMZebr7sWc7PWAFM3JKqWuUjq2L6S1ni6G2ZBfP
/ulhclCQdDiWk7Iu2LWgprNvwv4mrv5AO6oKRD0o9LQAZbiLU8OhgUz4aa8ZCjev
MkRq1F7+zdGmM33QHypO1cO0mQllFLidT7Vskh8n1WlBHlcj3GGi6/hplwIDAQAB
o2wwajAdBgNVHQ4EFgQU+WqkrgvCgkXdOC+c27HTy0Y2gRgwHwYDVR0jBBgwFoAU
l271sTig+lUoDdXM4sNB+W/3LlcwCQYDVR0TBAIwADALBgNVHQ8EBAMCBaAwEAYJ
YIZIAYb4QgEBBAMDAQAwDQYJKoZIhvcNAQELBQADggIBAJeWVn41fS9VQxgjZskF
avIN5dKSCsH05cbF9WCHGTu8jrw7nYOGOtGWsRInMzq7Ntj+/kT+U0zfJjYsMMxK
QVPEL30STtcE4vIHuuoW7dknRLiydWThoPHoJ3anfJ3Yt6qqoWe44EIHDwIQsxs1
yKlnUwwfAldLdK0o/E9rncZaUF3F4aHDo5sHzBvP2zOQoDj4DrJGl3RpGcr7+U1Y
Udr981fviTEnJWunAcQ0PQAdUGIV47g9lt9xaA1EyYG9SOTg5WNLRNyh/0vfA+aC
zCMKAK1ycyJLXBThwhl1CsBf1Zy7mdQZ+tZjEXYeJ+7rCKpqKMhlA9sDHdTB4o3o
8YBTKpsDQ7IaIvFWzAHpjREnfoxv/6gFPjC4NZY6MmIi9sPu8J3CiHwDtnJNELlG
MlTZJuwuBGpHiEBpBewkbwVFoiW6v8IEMCwV21QeafZ2kwja+ruqLaUEFmMHsZol
qwZ4EJIo5gNQyagDgUKsOdXu0rYNypWEcI/UlSBWv2oT1ne6uc81RjJ470Hi9KES
MDx/fKMc7qnvQltk32rXfkIVv+S+boKbsEC1lEnOGsEvUY3iG5lCsaDzjsWHZh4G
3PwU4MA2adaSzcZ3zpFbl0mQF8aa1BoymHGEJaQV97WVx82pAnVh15s6JpIU/w1W
8o7G3N6k7fcAbCOmDgypZOce
-----END CERTIFICATE-----
