Certificate:
    Data:
        Version: 3 (0x2)
        Serial Number: 9 (0x9)
        Signature Algorithm: sha256WithRSAEncryption
        Issuer: C=CA, O=SELF, OU=SELF, CN=SELF IDENTITY CA
        Validity
            Not Before: Sep  8 22:34:51 2024 GMT
            Not After : Aug 15 22:34:51 2124 GMT
        Subject: C=CA, O=mbed TLS, CN=Cert
        Subject Public Key Info:
            Public Key Algorithm: rsaEncryption
                Public-Key: (2048 bit)
                Modulus:
                    00:d5:54:92:fe:02:b2:df:32:21:5b:2c:f2:31:f2:
                    1d:2b:70:04:d7:50:a5:86:48:ed:ee:56:72:0e:5d:
                    17:89:a5:d8:7b:f5:a5:53:9c:84:46:6c:d3:9d:d5:
                    0b:8f:cc:63:9b:67:27:3e:19:46:34:2c:43:bd:97:
                    00:fd:48:ab:58:5a:1f:4d:7c:87:0e:df:ea:63:f9:
                    53:ee:ce:92:48:26:2c:fe:67:92:64:2e:e9:d1:f7:
                    9f:b7:e7:40:87:cb:36:cb:e5:79:28:19:13:60:9c:
                    b9:97:b3:ae:c9:fb:04:1a:4d:16:7f:f8:dc:43:ef:
                    5b:ed:87:e4:dd:a2:33:10:ef:e9:da:30:d5:c7:f4:
                    c6:1c:d3:19:79:ba:fb:b1:67:3b:3d:60:05:33:72:
                    4a:a9:6b:94:8e:ad:8b:e9:2d:67:8b:a1:b6:64:17:
                    cf:fe:e9:61:72:50:90:74:38:96:93:b2:2e:d8:b5:
                    a0:a6:b3:6f:c2:fe:26:ae:fe:40:3b:aa:0a:44:3d:
                    28:f4:b4:00:65:b8:8b:53:c3:a1:81:4c:f8:69:af:
                    19:0a:37:af:32:44:6a:d4:5e:fe:cd:d1:a6:33:7d:
                    d0:1f:2a:4e:d5:c3:b4:99:09:65:14:b8:9d:4f:b5:
                    6c:92:1f:27:d5:69:41:1e:57:23:dc:61:a2:eb:f8:
                    69:97
                Exponent: 65537 (0x10001)
        X509v3 extensions:
            X509v3 Subject Key Identifier: 
                F9:6A:A4:AE:0B:C2:82:45:DD:38:2F:9C:DB:B1:D3:CB:46:36:81:18
            X509v3 Authority Key Identifier: 
                97:6E:F5:B1:38:A0:FA:55:28:0D:D5:CC:E2:C3:41:F9:6F:F7:2E:57
            X509v3 Basic Constraints: 
                CA:FALSE
            X509v3 Key Usage: 
                Digital Signature, Key Encipherment
            Netscape Cert Type: 
                ...
    Signature Algorithm: sha256WithRSAEncryption
    Signature Value:
        86:9b:ca:dd:e2:0f:50:5e:d9:09:54:b0:2d:36:2e:18:1b:39:
        52:e6:7c:c2:a2:1b:0f:c3:f6:b8:53:2a:f4:51:e7:cf:35:c2:
        ab:c2:f6:62:66:37:a2:9f:21:2b:47:6a:4c:a4:e6:2c:b5:59:
        9d:ff:bf:6a:1d:6c:d2:41:a1:4f:1a:01:e2:42:06:5c:b2:58:
        62:8b:15:0e:7a:da:be:0b:21:c3:b6:a0:88:fd:9c:8d:5c:9f:
        b2:7a:9e:a8:64:8c:6d:09:5e:a8:bf:17:2d:69:32:e7:35:85:
        9c:26:73:7a:c3:49:04:62:a1:59:1d:bb:23:f2:d8:cd:7b:7d:
        07:a1:8b:72:9e:be:76:9c:a9:b6:89:d9:98:e3:76:3a:e5:c5:
        b4:17:f6:10:30:fe:81:c1:3a:73:ee:fe:c6:29:68:b1:2e:73:
        6c:5a:dd:17:91:cd:0c:e4:36:1c:f7:c1:56:b1:8a:6f:ec:9d:
        6c:73:cd:93:72:33:77:16:7d:f4:7a:72:b1:ad:74:f1:59:58:
        b0:67:2a:9d:7b:c9:fa:d4:c7:4f:3c:89:5e:ba:1f:5e:9b:c8:
        e0:0f:2c:bb:49:1f:75:97:9d:8f:85:3f:c0:43:06:7d:ba:77:
        ab:4f:bf:27:ee:db:df:64:05:5e:cb:de:76:ba:22:95:28:ef:
        30:be:d5:13:74:9e:5b:23:6b:0d:77:70:3c:2e:39:c1:49:ac:
        02:ce:96:0d:23:66:4a:91:30:bb:bc:a7:23:c8:3a:82:65:ad:
        67:dc:2a:03:c5:26:06:dd:9f:00:cf:95:8d:4d:83:2b:10:ac:
        b4:56:0d:21:ab:0d:f3:b0:2e:0a:c6:5c:a8:4e:8e:a7:ea:16:
        47:19:b6:ff:62:93:c5:c5:d7:38:19:cf:c9:6b:de:3c:9c:05:
        b3:33:7d:5f:81:5f:f5:73:c5:ce:4c:a3:27:93:cb:31:22:89:
        ed:79:8c:ea:39:8e:11:83:3c:19:1f:ee:ec:0d:3b:3f:b4:f7:
        69:b4:fd:d2:41:d8:a4:7e:a7:7c:28:75:09:7d:69:76:7b:04:
        a6:8d:d8:a6:a1:3e:7c:7d:2b:cf:44:3c:62:eb:0f:80:f3:b6:
        dd:99:2e:9a:91:65:67:e9:c3:ae:6a:0a:33:78:e6:33:47:23:
        9c:65:66:8d:0a:2c:ba:ee:72:2c:de:ed:cb:83:9c:ec:d2:93:
        41:d5:e4:d7:33:f1:68:f9:2e:90:f1:2a:cc:19:21:ab:d1:85:
        cc:9a:33:a6:ff:b1:d0:53:bb:da:fd:2b:0d:ea:fe:dc:b9:44:
        20:d9:93:16:f2:64:fa:18:0d:e5:7a:97:82:e6:52:94:0c:b5:
        88:2a:61:1a:cc:91:a4:d4
-----BEGIN CERTIFICATE-----
MIIEXjCCAkagAwIBAgIBCTANBgkqhkiG9w0BAQsFADBGMQswCQYDVQQGEwJDQTEN
MAsGA1UECgwEU0VMRjENMAsGA1UECwwEU0VMRjEZMBcGA1UEAwwQU0VMRiBJREVO
VElUWSBDQTAgFw0yNDA5MDgyMjM0NTFaGA8yMTI0MDgxNTIyMzQ1MVowLzELMAkG
A1UEBhMCQ0ExETAPBgNVBAoMCG1iZWQgVExTMQ0wCwYDVQQDDARDZXJ0MIIBIjAN
BgkqhkiG9w0BAQEFAAOCAQ8AMIIBCgKCAQEA1VSS/gKy3zIhWyzyMfIdK3AE11Cl
hkjt7lZyDl0XiaXYe/WlU5yERmzTndULj8xjm2cnPhlGNCxDvZcA/UirWFofTXyH
Dt/qY/lT7s6SSCYs/meSZC7p0feft+dAh8s2y+V5KBkTYJy5l7OuyfsEGk0Wf/jc
Q+9b7Yfk3aIzEO/p2jDVx/TGHNMZebr7sWc7PWAFM3JKqWuUjq2L6S1ni6G2ZBfP
/ulhclCQdDiWk7Iu2LWgprNvwv4mrv5AO6oKRD0o9LQAZbiLU8OhgUz4aa8ZCjev
MkRq1F7+zdGmM33QHypO1cO0mQllFLidT7Vskh8n1WlBHlcj3GGi6/hplwIDAQAB
o2wwajAdBgNVHQ4EFgQU+WqkrgvCgkXdOC+c27HTy0Y2gRgwHwYDVR0jBBgwFoAU
l271sTig+lUoDdXM4sNB+W/3LlcwCQYDVR0TBAIwADALBgNVHQ8EBAMCBaAwEAYJ
YIZIAYb4QgEBBAMDAQAwDQYJKoZIhvcNAQELBQADggIBAIabyt3iD1Be2QlUsC02
LhgbOVLmfMKiGw/D9rhTKvRR5881wqvC9mJmN6KfIStHakyk5iy1WZ3/v2odbNJB
oU8aAeJCBlyyWGKLFQ562r4LIcO2oIj9nI1cn7J6nqhkjG0JXqi/Fy1pMuc1hZwm
c3rDSQRioVkduyPy2M17fQehi3KevnacqbaJ2ZjjdjrlxbQX9hAw/oHBOnPu/sYp
aLEuc2xa3ReRzQzkNhz3wVaxim/snWxzzZNyM3cWffR6crGtdPFZWLBnKp17yfrU
x088iV66H16byOAPLLtJH3WXnY+FP8BDBn26d6tPvyfu299kBV7L3na6IpUo7zC+
1RN0nlsjaw13cDwuOcFJrALOlg0jZkqRMLu8pyPIOoJlrWfcKgPFJgbdnwDPlY1N
gysQrLRWDSGrDfOwLgrGXKhOjqfqFkcZtv9ik8XF1zgZz8lr3jycBbMzfV+BX/Vz
xc5MoyeTyzEiie15jOo5jhGDPBkf7uwNOz+092m0/dJB2KR+p3wodQl9aXZ7BKaN
2KahPnx9K89EPGLrD4Dztt2ZLpqRZWfpw65qCjN45jNHI5xlZo0KLLrucize7cuD
nOzSk0HV5Ncz8Wj5LpDxKswZIavRhcyaM6b/sdBTu9r9Kw3q/ty5RCDZkxbyZPoY
DeV6l4LmUpQMtYgqYRrMkaTU
-----END CERTIFICATE-----
