Certificate:
    Data:
        Version: 3 (0x2)
        Serial Number: 10 (0xa)
        Signature Algorithm: sha256WithRSAEncryption
        Issuer: C=CA, O=SELF, OU=SELF, CN=SELF IDENTITY CA
        Validity
            Not Before: Sep  8 22:35:05 2024 GMT
            Not After : Aug 15 22:35:05 2124 GMT
        Subject: C=CA, O=mbed TLS, CN=Cert
        Subject Public Key Info:
            Public Key Algorithm: rsaEncryption
                Public-Key: (2048 bit)
                Modulus:
                    00:d5:54:92:fe:02:b2:df:32:21:5b:2c:f2:31:f2:
                    1d:2b:70:04:d7:50:a5:86:48:ed:ee:56:72:0e:5d:
                    17:89:a5:d8:7b:f5:a5:53:9c:84:46:6c:d3:9d:d5:
                    0b:8f:cc:63:9b:67:27:3e:19:46:34:2c:43:bd:97:
                    00:fd:48:ab:58:5a:1f:4d:7c:87:0e:df:ea:63:f9:
                    53:ee:ce:92:48:26:2c:fe:67:92:64:2e:e9:d1:f7:
                    9f:b7:e7:40:87:cb:36:cb:e5:79:28:19:13:60:9c:
                    b9:97:b3:ae:c9:fb:04:1a:4d:16:7f:f8:dc:43:ef:
                    5b:ed:87:e4:dd:a2:33:10:ef:e9:da:30:d5:c7:f4:
                    c6:1c:d3:19:79:ba:fb:b1:67:3b:3d:60:05:33:72:
                    4a:a9:6b:94:8e:ad:8b:e9:2d:67:8b:a1:b6:64:17:
                    cf:fe:e9:61:72:50:90:74:38:96:93:b2:2e:d8:b5:
                    a0:a6:b3:6f:c2:fe:26:ae:fe:40:3b:aa:0a:44:3d:
                    28:f4:b4:00:65:b8:8b:53:c3:a1:81:4c:f8:69:af:
                    19:0a:37:af:32:44:6a:d4:5e:fe:cd:d1:a6:33:7d:
                    d0:1f:2a:4e:d5:c3:b4:99:09:65:14:b8:9d:4f:b5:
                    6c:92:1f:27:d5:69:41:1e:57:23:dc:61:a2:eb:f8:
                    69:97
                Exponent: 65537 (0x10001)
        X509v3 extensions:
            X509v3 Subject Key Identifier: 
                F9:6A:A4:AE:0B:C2:82:45:DD:38:2F:9C:DB:B1:D3:CB:46:36:81:18
            X509v3 Authority Key Identifier: 
                97:6E:F5:B1:38:A0:FA:55:28:0D:D5:CC:E2:C3:41:F9:6F:F7:2E:57
            X509v3 Basic Constraints: 
                CA:FALSE
            X509v3 Key Usage: 
                Digital Signature, Key Encipherment
            Netscape Cert Type: 
                ...
    Signature Algorithm: sha256WithRSAEncryption
    Signature Value:
        09:91:a9:98:94:bf:35:e4:b2:30:6c:65:f4:fb:98:cd:88:7a:
        92:5f:30:fc:7f:39:54:b8:d1:c0:ad:05:3c:50:b9:18:4d:60:
        d3:ee:8c:c7:7e:19:ad:76:56:66:f1:fd:78:ab:ab:9b:a6:dd:
        a6:1e:77:2a:71:63:69:2d:8a:9f:ea:24:3d:81:8d:26:1f:22:
        9b:79:61:78:84:16:96:e0:38:72:4b:c2:78:b0:57:78:37:0c:
        ad:7a:90:cc:b5:d7:b6:0c:88:6d:6c:c5:52:f4:3b:d3:62:f2:
        74:9b:47:fe:23:c0:90:66:0b:64:63:27:c8:38:79:ce:c0:2f:
        8f:6b:7e:8f:30:45:da:23:a7:e3:58:a1:cd:9d:1d:3b:26:66:
        e0:fe:5b:42:f9:89:5b:a7:48:08:a3:13:a6:e2:69:9d:66:b4:
        e8:cc:08:49:8f:5a:45:ec:7c:ff:e9:87:a3:dc:2f:8e:7b:70:
        36:35:b5:60:4f:56:fe:2d:26:2f:66:fc:ff:93:62:d9:7d:69:
        f5:a7:e6:36:b3:bd:f3:c0:cc:e7:38:2d:14:5f:f6:81:c3:e7:
        ed:30:ee:29:e8:6a:9b:d2:cb:9a:8e:21:70:b6:9f:d9:d3:21:
        ef:15:ce:0c:ff:4d:8d:56:a3:30:8d:90:87:c5:82:6d:26:61:
        fc:de:95:83:d0:db:76:db:8f:b2:6f:48:92:5a:bc:0f:bd:ae:
        79:0b:f3:c3:6a:16:5a:ab:35:c5:d7:5f:67:7b:88:4e:e2:f2:
        76:7a:66:e3:77:4b:7a:73:7b:5b:23:71:72:27:fe:d9:de:9a:
        49:7b:48:e7:d0:f8:ee:61:49:3a:4b:17:f3:44:1d:67:de:3f:
        08:aa:a8:23:b9:17:09:86:bf:b4:74:42:19:4b:b9:1b:35:58:
        60:a4:e1:24:20:92:01:74:ff:95:26:7b:84:38:33:3e:b9:38:
        28:d9:6b:c2:3b:15:95:e8:6a:32:15:b2:d7:84:a3:0f:d3:12:
        5a:10:35:c0:2d:f5:73:c2:fd:a0:66:12:7a:c0:83:e9:3f:b6:
        d0:02:ff:75:23:4c:fa:24:c8:6a:93:7a:01:5a:d8:f3:54:64:
        98:d1:19:09:e8:80:0c:d2:7a:23:71:54:ec:58:ba:a8:07:66:
        97:6b:6e:08:96:f6:5e:00:df:d1:cd:b2:51:65:5e:e1:96:00:
        d7:b6:0f:89:07:06:45:25:c0:61:8e:a3:8f:88:b8:0e:4f:23:
        88:e9:54:41:61:35:81:c0:8f:87:8a:b0:b6:f2:51:21:90:5f:
        24:be:0a:50:5c:03:d4:46:fb:6f:82:c3:82:06:0f:7b:01:4d:
        83:a4:b5:3f:8d:89:8f:0f
-----BEGIN CERTIFICATE-----
MIIEXjCCAkagAwIBAgIBCjANBgkqhkiG9w0BAQsFADBGMQswCQYDVQQGEwJDQTEN
MAsGA1UECgwEU0VMRjENMAsGA1UECwwEU0VMRjEZMBcGA1UEAwwQU0VMRiBJREVO
VElUWSBDQTAgFw0yNDA5MDgyMjM1MDVaGA8yMTI0MDgxNTIyMzUwNVowLzELMAkG
A1UEBhMCQ0ExETAPBgNVBAoMCG1iZWQgVExTMQ0wCwYDVQQDDARDZXJ0MIIBIjAN
BgkqhkiG9w0BAQEFAAOCAQ8AMIIBCgKCAQEA1VSS/gKy3zIhWyzyMfIdK3AE11Cl
hkjt7lZyDl0XiaXYe/WlU5yERmzTndULj8xjm2cnPhlGNCxDvZcA/UirWFofTXyH
Dt/qY/lT7s6SSCYs/meSZC7p0feft+dAh8s2y+V5KBkTYJy5l7OuyfsEGk0Wf/jc
Q+9b7Yfk3aIzEO/p2jDVx/TGHNMZebr7sWc7PWAFM3JKqWuUjq2L6S1ni6G2ZBfP
/ulhclCQdDiWk7Iu2LWgprNvwv4mrv5AO6oKRD0o9LQAZbiLU8OhgUz4aa8ZCjev
MkRq1F7+zdGmM33QHypO1cO0mQllFLidT7Vskh8n1WlBHlcj3GGi6/hplwIDAQAB
o2wwajAdBgNVHQ4EFgQU+WqkrgvCgkXdOC+c27HTy0Y2gRgwHwYDVR0jBBgwFoAU
l271sTig+lUoDdXM4sNB+W/3LlcwCQYDVR0TBAIwADALBgNVHQ8EBAMCBaAwEAYJ
YIZIAYb4QgEBBAMDAQAwDQYJKoZIhvcNAQELBQADggIBAAmRqZiUvzXksjBsZfT7
mM2IepJfMPx/OVS40cCtBTxQuRhNYNPujMd+Ga12Vmbx/Xirq5um3aYedypxY2kt
ip/qJD2BjSYfIpt5YXiEFpbgOHJLwniwV3g3DK16kMy117YMiG1sxVL0O9Ni8nSb
R/4jwJBmC2RjJ8g4ec7AL49rfo8wRdojp+NYoc2dHTsmZuD+W0L5iVunSAijE6bi
aZ1mtOjMCEmPWkXsfP/ph6PcL457cDY1tWBPVv4tJi9m/P+TYtl9afWn5jazvfPA
zOc4LRRf9oHD5+0w7inoapvSy5qOIXC2n9nTIe8Vzgz/TY1WozCNkIfFgm0mYfze
lYPQ23bbj7JvSJJavA+9rnkL88NqFlqrNcXXX2d7iE7i8nZ6ZuN3S3pze1sjcXIn
/tnemkl7SOfQ+O5hSTpLF/NEHWfePwiqqCO5FwmGv7R0QhlLuRs1WGCk4SQgkgF0
/5Ume4Q4Mz65OCjZa8I7FZXoajIVsteEow/TEloQNcAt9XPC/aBmEnrAg+k/ttAC
/3UjTPokyGqTegFa2PNUZJjRGQnogAzSeiNxVOxYuqgHZpdrbgiW9l4A39HNslFl
XuGWANe2D4kHBkUlwGGOo4+IuA5PI4jpVEFhNYHAj4eKsLbyUSGQXyS+ClBcA9RG
+2+Cw4IGD3sBTYOktT+NiY8P
-----END CERTIFICATE-----
