Certificate:
    Data:
        Version: 3 (0x2)
        Serial Number: 39 (0x27)
        Signature Algorithm: sha256WithRSAEncryption
        Issuer: C=CA, O=SELF, OU=SELF, CN=SELF IDENTITY CA
        Validity
            Not Before: Sep  9 11:35:28 2024 GMT
            Not After : Aug 16 11:35:28 2124 GMT
        Subject: C=CA, O=mbed TLS, CN=Cert
        Subject Public Key Info:
            Public Key Algorithm: rsaEncryption
                Public-Key: (2048 bit)
                Modulus:
                    00:d5:54:92:fe:02:b2:df:32:21:5b:2c:f2:31:f2:
                    1d:2b:70:04:d7:50:a5:86:48:ed:ee:56:72:0e:5d:
                    17:89:a5:d8:7b:f5:a5:53:9c:84:46:6c:d3:9d:d5:
                    0b:8f:cc:63:9b:67:27:3e:19:46:34:2c:43:bd:97:
                    00:fd:48:ab:58:5a:1f:4d:7c:87:0e:df:ea:63:f9:
                    53:ee:ce:92:48:26:2c:fe:67:92:64:2e:e9:d1:f7:
                    9f:b7:e7:40:87:cb:36:cb:e5:79:28:19:13:60:9c:
                    b9:97:b3:ae:c9:fb:04:1a:4d:16:7f:f8:dc:43:ef:
                    5b:ed:87:e4:dd:a2:33:10:ef:e9:da:30:d5:c7:f4:
                    c6:1c:d3:19:79:ba:fb:b1:67:3b:3d:60:05:33:72:
                    4a:a9:6b:94:8e:ad:8b:e9:2d:67:8b:a1:b6:64:17:
                    cf:fe:e9:61:72:50:90:74:38:96:93:b2:2e:d8:b5:
                    a0:a6:b3:6f:c2:fe:26:ae:fe:40:3b:aa:0a:44:3d:
                    28:f4:b4:00:65:b8:8b:53:c3:a1:81:4c:f8:69:af:
                    19:0a:37:af:32:44:6a:d4:5e:fe:cd:d1:a6:33:7d:
                    d0:1f:2a:4e:d5:c3:b4:99:09:65:14:b8:9d:4f:b5:
                    6c:92:1f:27:d5:69:41:1e:57:23:dc:61:a2:eb:f8:
                    69:97
                Exponent: 65537 (0x10001)
        X509v3 extensions:
            X509v3 Subject Key Identifier: 
                F9:6A:A4:AE:0B:C2:82:45:DD:38:2F:9C:DB:B1:D3:CB:46:36:81:18
            X509v3 Authority Key Identifier: 
                97:6E:F5:B1:38:A0:FA:55:28:0D:D5:CC:E2:C3:41:F9:6F:F7:2E:57
            X509v3 Basic Constraints: 
                CA:FALSE
            X509v3 Key Usage: 
                Digital Signature, Key Encipherment
            Netscape Cert Type: 
                ...
    Signature Algorithm: sha256WithRSAEncryption
    Signature Value:
        18:db:20:f9:ab:d4:69:55:82:06:b3:d9:db:c2:f0:1b:b6:a6:
        7c:54:90:a1:6d:d5:89:d1:fa:30:65:3b:74:f9:5e:f1:6e:73:
        50:c6:7a:19:29:fa:5d:44:0e:0e:78:98:79:ee:75:4a:ed:93:
        a1:59:ad:bb:29:07:80:60:a4:9d:bd:ec:8b:0a:8d:a7:86:fe:
        f4:c7:ee:f7:2e:1e:bc:69:5c:c2:97:26:df:27:69:52:a8:e9:
        a2:46:8e:ee:dd:a7:6e:00:39:d2:86:c7:6e:ae:2b:f4:be:46:
        c4:ea:7e:73:91:75:73:fe:95:76:3b:fe:c6:6e:72:5a:16:13:
        14:eb:61:84:97:fd:bb:b5:56:37:a7:1d:a5:e9:06:9c:81:be:
        6a:2c:fc:9f:96:d5:35:ab:7b:ce:6b:56:b6:85:77:51:ef:50:
        17:8c:d7:b0:38:bb:a3:99:0c:8e:93:96:2c:29:f3:40:25:0f:
        b0:28:bd:f0:f3:4a:01:25:04:70:9c:a8:00:7a:5f:92:08:98:
        27:ee:41:19:d6:6a:d6:62:9c:58:ea:9f:98:02:81:c4:84:bc:
        0c:bb:ce:93:4f:2f:c6:70:fc:49:ec:f8:8a:7b:ff:f9:81:00:
        22:0c:66:8c:83:bd:68:ec:5d:56:46:32:39:81:fd:38:cb:02:
        89:99:c4:03:24:d7:5a:eb:c2:04:b6:0c:33:11:55:dc:75:af:
        fd:77:16:d1:85:8c:ed:37:6e:0f:7e:41:a8:f2:23:ec:c8:6f:
        38:d3:ab:a0:ef:ed:d9:27:6c:47:73:12:f6:df:85:72:b6:ba:
        32:cb:01:45:7d:cd:47:ee:ed:e6:36:74:be:35:7d:f2:1f:e9:
        3b:b6:17:32:51:ff:82:c5:68:04:ee:70:8c:78:dc:8d:30:73:
        1c:44:39:df:c2:f3:a0:3f:b9:8d:71:37:55:4f:61:5c:89:94:
        98:ba:00:e2:5d:c6:44:42:c2:06:1f:8a:99:04:d2:e3:e1:b8:
        31:5d:7d:ba:8b:6f:b0:78:c3:77:fc:c3:dd:c3:3c:69:ce:56:
        71:9c:c5:c2:6b:f4:0f:a9:4e:e6:df:39:c7:5a:13:59:00:7d:
        8a:54:31:8c:75:42:80:d5:85:25:a3:5f:5c:a6:07:33:d2:99:
        5a:51:b6:c7:6e:45:91:a0:94:0d:f9:d2:1b:64:a9:30:ad:8f:
        00:fb:b6:25:53:eb:71:96:2a:68:00:e6:b0:6c:d3:5b:0e:b8:
        3f:0b:c3:5b:d2:9b:c8:ae:77:e7:e2:07:71:73:dd:ee:d5:1f:
        a0:f8:b3:de:a3:d4:ea:6e:5e:91:f2:f8:f5:53:fc:7a:fe:22:
        9f:ac:58:ec:4e:89:de:96
-----BEGIN CERTIFICATE-----
MIIEXjCCAkagAwIBAgIBJzANBgkqhkiG9w0BAQsFADBGMQswCQYDVQQGEwJDQTEN
MAsGA1UECgwEU0VMRjENMAsGA1UECwwEU0VMRjEZMBcGA1UEAwwQU0VMRiBJREVO
VElUWSBDQTAgFw0yNDA5MDkxMTM1MjhaGA8yMTI0MDgxNjExMzUyOFowLzELMAkG
A1UEBhMCQ0ExETAPBgNVBAoMCG1iZWQgVExTMQ0wCwYDVQQDDARDZXJ0MIIBIjAN
BgkqhkiG9w0BAQEFAAOCAQ8AMIIBCgKCAQEA1VSS/gKy3zIhWyzyMfIdK3AE11Cl
hkjt7lZyDl0XiaXYe/WlU5yERmzTndULj8xjm2cnPhlGNCxDvZcA/UirWFofTXyH
Dt/qY/lT7s6SSCYs/meSZC7p0feft+dAh8s2y+V5KBkTYJy5l7OuyfsEGk0Wf/jc
Q+9b7Yfk3aIzEO/p2jDVx/TGHNMZebr7sWc7PWAFM3JKqWuUjq2L6S1ni6G2ZBfP
/ulhclCQdDiWk7Iu2LWgprNvwv4mrv5AO6oKRD0o9LQAZbiLU8OhgUz4aa8ZCjev
MkRq1F7+zdGmM33QHypO1cO0mQllFLidT7Vskh8n1WlBHlcj3GGi6/hplwIDAQAB
o2wwajAdBgNVHQ4EFgQU+WqkrgvCgkXdOC+c27HTy0Y2gRgwHwYDVR0jBBgwFoAU
l271sTig+lUoDdXM4sNB+W/3LlcwCQYDVR0TBAIwADALBgNVHQ8EBAMCBaAwEAYJ
YIZIAYb4QgEBBAMDAQAwDQYJKoZIhvcNAQELBQADggIBABjbIPmr1GlVggaz2dvC
8Bu2pnxUkKFt1YnR+jBlO3T5XvFuc1DGehkp+l1EDg54mHnudUrtk6FZrbspB4Bg
pJ297IsKjaeG/vTH7vcuHrxpXMKXJt8naVKo6aJGju7dp24AOdKGx26uK/S+RsTq
fnORdXP+lXY7/sZucloWExTrYYSX/bu1VjenHaXpBpyBvmos/J+W1TWre85rVraF
d1HvUBeM17A4u6OZDI6Tliwp80AlD7AovfDzSgElBHCcqAB6X5IImCfuQRnWatZi
nFjqn5gCgcSEvAy7zpNPL8Zw/Ens+Ip7//mBACIMZoyDvWjsXVZGMjmB/TjLAomZ
xAMk11rrwgS2DDMRVdx1r/13FtGFjO03bg9+QajyI+zIbzjTq6Dv7dknbEdzEvbf
hXK2ujLLAUV9zUfu7eY2dL41ffIf6Tu2FzJR/4LFaATucIx43I0wcxxEOd/C86A/
uY1xN1VPYVyJlJi6AOJdxkRCwgYfipkE0uPhuDFdfbqLb7B4w3f8w93DPGnOVnGc
xcJr9A+pTubfOcdaE1kAfYpUMYx1QoDVhSWjX1ymBzPSmVpRtsduRZGglA350htk
qTCtjwD7tiVT63GWKmgA5rBs01sOuD8Lw1vSm8iud+fiB3Fz3e7VH6D4s96j1Opu
XpHy+PVT/Hr+Ip+sWOxOid6W
-----END CERTIFICATE-----
