Certificate:
    Data:
        Version: 3 (0x2)
        Serial Number: 40 (0x28)
        Signature Algorithm: sha256WithRSAEncryption
        Issuer: C=CA, O=SELF, OU=SELF, CN=SELF IDENTITY CA
        Validity
            Not Before: Sep  9 11:37:33 2024 GMT
            Not After : Aug 16 11:37:33 2124 GMT
        Subject: C=CA, O=mbed TLS, CN=Cert
        Subject Public Key Info:
            Public Key Algorithm: rsaEncryption
                Public-Key: (2048 bit)
                Modulus:
                    00:d5:54:92:fe:02:b2:df:32:21:5b:2c:f2:31:f2:
                    1d:2b:70:04:d7:50:a5:86:48:ed:ee:56:72:0e:5d:
                    17:89:a5:d8:7b:f5:a5:53:9c:84:46:6c:d3:9d:d5:
                    0b:8f:cc:63:9b:67:27:3e:19:46:34:2c:43:bd:97:
                    00:fd:48:ab:58:5a:1f:4d:7c:87:0e:df:ea:63:f9:
                    53:ee:ce:92:48:26:2c:fe:67:92:64:2e:e9:d1:f7:
                    9f:b7:e7:40:87:cb:36:cb:e5:79:28:19:13:60:9c:
                    b9:97:b3:ae:c9:fb:04:1a:4d:16:7f:f8:dc:43:ef:
                    5b:ed:87:e4:dd:a2:33:10:ef:e9:da:30:d5:c7:f4:
                    c6:1c:d3:19:79:ba:fb:b1:67:3b:3d:60:05:33:72:
                    4a:a9:6b:94:8e:ad:8b:e9:2d:67:8b:a1:b6:64:17:
                    cf:fe:e9:61:72:50:90:74:38:96:93:b2:2e:d8:b5:
                    a0:a6:b3:6f:c2:fe:26:ae:fe:40:3b:aa:0a:44:3d:
                    28:f4:b4:00:65:b8:8b:53:c3:a1:81:4c:f8:69:af:
                    19:0a:37:af:32:44:6a:d4:5e:fe:cd:d1:a6:33:7d:
                    d0:1f:2a:4e:d5:c3:b4:99:09:65:14:b8:9d:4f:b5:
                    6c:92:1f:27:d5:69:41:1e:57:23:dc:61:a2:eb:f8:
                    69:97
                Exponent: 65537 (0x10001)
        X509v3 extensions:
            X509v3 Subject Key Identifier: 
                F9:6A:A4:AE:0B:C2:82:45:DD:38:2F:9C:DB:B1:D3:CB:46:36:81:18
            X509v3 Authority Key Identifier: 
                97:6E:F5:B1:38:A0:FA:55:28:0D:D5:CC:E2:C3:41:F9:6F:F7:2E:57
            X509v3 Basic Constraints: 
                CA:FALSE
            X509v3 Key Usage: 
                Digital Signature, Key Encipherment
            Netscape Cert Type: 
                ...
    Signature Algorithm: sha256WithRSAEncryption
    Signature Value:
        78:32:a2:5d:0f:a6:62:7b:da:27:a5:71:9a:b5:34:f8:28:82:
        41:05:d2:be:e9:e7:e7:85:28:84:c0:fc:a9:cd:07:73:91:99:
        7a:39:2a:6a:e4:2e:9b:00:de:27:56:8a:7f:32:fd:c1:dc:67:
        f2:16:10:d3:93:86:60:5a:4f:46:74:88:59:c4:ab:a5:e7:a0:
        b9:d4:fc:4d:65:01:d3:1c:64:a9:e4:66:45:0b:1a:22:2f:45:
        6d:16:90:93:d0:e1:09:15:e5:1b:bb:b3:3f:2e:c9:55:82:5f:
        b2:9b:f7:82:76:32:e0:d5:d7:38:de:0a:85:2e:14:ec:a0:94:
        ae:c6:15:91:ad:64:8e:3b:d6:a6:03:fe:e7:a0:dc:d4:04:41:
        bf:0f:dc:64:a1:67:d5:e9:a7:15:05:3e:dd:85:33:26:71:02:
        39:a4:db:03:56:a5:c4:1b:5f:d6:e8:bd:8c:5c:6d:db:c8:07:
        7b:4a:94:3c:e9:5e:60:28:08:16:84:21:45:21:ce:9a:a3:26:
        68:98:7b:56:40:93:1f:d4:2b:c0:6f:ee:ee:04:36:bd:72:e9:
        f9:d2:be:52:d0:0f:4c:7e:e1:5e:b4:1d:c8:cb:6e:f6:03:e6:
        7f:e7:62:f9:99:d2:9f:52:ec:c7:11:26:5a:28:1c:4b:89:41:
        6c:49:71:cd:f6:28:a7:33:91:ba:c9:11:71:fe:b2:d9:9d:b6:
        ef:2c:86:a3:69:a8:63:cd:af:6c:16:95:46:de:5d:1f:b7:81:
        3f:35:ec:e1:75:13:95:e5:9f:a0:af:25:19:bc:b0:26:d6:8c:
        ab:b5:25:a1:e6:e4:a7:e8:bd:b1:03:fe:ad:0c:14:ef:a3:c4:
        05:44:4a:c6:33:43:34:da:47:58:06:4d:b0:55:76:d4:30:9e:
        d6:c2:9d:9c:5a:23:62:b3:e4:0a:ac:6a:39:7c:ad:18:ce:d0:
        6e:05:84:2d:49:15:22:88:2e:93:fd:ac:ea:d3:8d:c7:f7:59:
        df:b7:fb:51:cd:ed:3d:25:68:0c:38:18:e0:2f:ba:e1:56:44:
        06:2a:1b:0b:db:58:db:df:81:a3:a4:54:0b:79:f9:9d:6a:55:
        d8:7d:7b:c7:b1:2b:8a:b5:16:f9:1a:e2:f7:c2:31:6c:68:83:
        b1:7b:b7:c0:eb:ba:ce:91:41:f6:be:e0:3e:09:4c:fa:ab:88:
        b9:75:2e:db:5f:e9:19:d1:ff:af:e4:28:a1:5f:7e:1e:05:dc:
        39:19:d2:4e:92:d6:59:a9:d7:9d:b1:65:d0:65:8e:bb:ee:3a:
        08:2a:b0:18:bc:81:8a:b1:79:de:01:bd:39:8d:3c:8e:2c:a0:
        4d:75:a3:b6:00:32:74:63
-----BEGIN CERTIFICATE-----
MIIEXjCCAkagAwIBAgIBKDANBgkqhkiG9w0BAQsFADBGMQswCQYDVQQGEwJDQTEN
MAsGA1UECgwEU0VMRjENMAsGA1UECwwEU0VMRjEZMBcGA1UEAwwQU0VMRiBJREVO
VElUWSBDQTAgFw0yNDA5MDkxMTM3MzNaGA8yMTI0MDgxNjExMzczM1owLzELMAkG
A1UEBhMCQ0ExETAPBgNVBAoMCG1iZWQgVExTMQ0wCwYDVQQDDARDZXJ0MIIBIjAN
BgkqhkiG9w0BAQEFAAOCAQ8AMIIBCgKCAQEA1VSS/gKy3zIhWyzyMfIdK3AE11Cl
hkjt7lZyDl0XiaXYe/WlU5yERmzTndULj8xjm2cnPhlGNCxDvZcA/UirWFofTXyH
Dt/qY/lT7s6SSCYs/meSZC7p0feft+dAh8s2y+V5KBkTYJy5l7OuyfsEGk0Wf/jc
Q+9b7Yfk3aIzEO/p2jDVx/TGHNMZebr7sWc7PWAFM3JKqWuUjq2L6S1ni6G2ZBfP
/ulhclCQdDiWk7Iu2LWgprNvwv4mrv5AO6oKRD0o9LQAZbiLU8OhgUz4aa8ZCjev
MkRq1F7+zdGmM33QHypO1cO0mQllFLidT7Vskh8n1WlBHlcj3GGi6/hplwIDAQAB
o2wwajAdBgNVHQ4EFgQU+WqkrgvCgkXdOC+c27HTy0Y2gRgwHwYDVR0jBBgwFoAU
l271sTig+lUoDdXM4sNB+W/3LlcwCQYDVR0TBAIwADALBgNVHQ8EBAMCBaAwEAYJ
YIZIAYb4QgEBBAMDAQAwDQYJKoZIhvcNAQELBQADggIBAHgyol0PpmJ72ielcZq1
NPgogkEF0r7p5+eFKITA/KnNB3ORmXo5KmrkLpsA3idWin8y/cHcZ/IWENOThmBa
T0Z0iFnEq6XnoLnU/E1lAdMcZKnkZkULGiIvRW0WkJPQ4QkV5Ru7sz8uyVWCX7Kb
94J2MuDV1zjeCoUuFOyglK7GFZGtZI471qYD/ueg3NQEQb8P3GShZ9XppxUFPt2F
MyZxAjmk2wNWpcQbX9bovYxcbdvIB3tKlDzpXmAoCBaEIUUhzpqjJmiYe1ZAkx/U
K8Bv7u4ENr1y6fnSvlLQD0x+4V60HcjLbvYD5n/nYvmZ0p9S7McRJlooHEuJQWxJ
cc32KKczkbrJEXH+stmdtu8shqNpqGPNr2wWlUbeXR+3gT817OF1E5Xln6CvJRm8
sCbWjKu1JaHm5KfovbED/q0MFO+jxAVESsYzQzTaR1gGTbBVdtQwntbCnZxaI2Kz
5Aqsajl8rRjO0G4FhC1JFSKILpP9rOrTjcf3Wd+3+1HN7T0laAw4GOAvuuFWRAYq
GwvbWNvfgaOkVAt5+Z1qVdh9e8exK4q1Fvka4vfCMWxog7F7t8Drus6RQfa+4D4J
TPqriLl1Lttf6RnR/6/kKKFffh4F3DkZ0k6S1lmp152xZdBljrvuOggqsBi8gYqx
ed4BvTmNPI4soE11o7YAMnRj
-----END CERTIFICATE-----
