Certificate:
    Data:
        Version: 3 (0x2)
        Serial Number: 41 (0x29)
        Signature Algorithm: sha256WithRSAEncryption
        Issuer: C=CA, O=SELF, OU=SELF, CN=SELF IDENTITY CA
        Validity
            Not Before: Sep  9 11:38:17 2024 GMT
            Not After : Aug 16 11:38:17 2124 GMT
        Subject: C=CA, O=mbed TLS, CN=Cert
        Subject Public Key Info:
            Public Key Algorithm: rsaEncryption
                Public-Key: (2048 bit)
                Modulus:
                    00:d5:54:92:fe:02:b2:df:32:21:5b:2c:f2:31:f2:
                    1d:2b:70:04:d7:50:a5:86:48:ed:ee:56:72:0e:5d:
                    17:89:a5:d8:7b:f5:a5:53:9c:84:46:6c:d3:9d:d5:
                    0b:8f:cc:63:9b:67:27:3e:19:46:34:2c:43:bd:97:
                    00:fd:48:ab:58:5a:1f:4d:7c:87:0e:df:ea:63:f9:
                    53:ee:ce:92:48:26:2c:fe:67:92:64:2e:e9:d1:f7:
                    9f:b7:e7:40:87:cb:36:cb:e5:79:28:19:13:60:9c:
                    b9:97:b3:ae:c9:fb:04:1a:4d:16:7f:f8:dc:43:ef:
                    5b:ed:87:e4:dd:a2:33:10:ef:e9:da:30:d5:c7:f4:
                    c6:1c:d3:19:79:ba:fb:b1:67:3b:3d:60:05:33:72:
                    4a:a9:6b:94:8e:ad:8b:e9:2d:67:8b:a1:b6:64:17:
                    cf:fe:e9:61:72:50:90:74:38:96:93:b2:2e:d8:b5:
                    a0:a6:b3:6f:c2:fe:26:ae:fe:40:3b:aa:0a:44:3d:
                    28:f4:b4:00:65:b8:8b:53:c3:a1:81:4c:f8:69:af:
                    19:0a:37:af:32:44:6a:d4:5e:fe:cd:d1:a6:33:7d:
                    d0:1f:2a:4e:d5:c3:b4:99:09:65:14:b8:9d:4f:b5:
                    6c:92:1f:27:d5:69:41:1e:57:23:dc:61:a2:eb:f8:
                    69:97
                Exponent: 65537 (0x10001)
        X509v3 extensions:
            X509v3 Subject Key Identifier: 
                F9:6A:A4:AE:0B:C2:82:45:DD:38:2F:9C:DB:B1:D3:CB:46:36:81:18
            X509v3 Authority Key Identifier: 
                97:6E:F5:B1:38:A0:FA:55:28:0D:D5:CC:E2:C3:41:F9:6F:F7:2E:57
            X509v3 Basic Constraints: 
                CA:FALSE
            X509v3 Key Usage: 
                Digital Signature, Key Encipherment
            Netscape Cert Type: 
                ...
    Signature Algorithm: sha256WithRSAEncryption
    Signature Value:
        5d:4d:43:dc:01:5b:dc:ea:89:9b:bd:fd:4c:03:37:7b:d7:59:
        18:46:7e:82:d1:db:86:b1:b3:15:70:8f:e6:ca:9f:42:50:cc:
        10:e4:3b:5e:6b:ae:c0:37:30:68:8a:ee:b6:8c:0a:89:04:4e:
        3f:d1:28:43:52:94:4e:56:85:1f:b6:78:24:44:91:99:09:85:
        38:e3:dc:16:64:1f:b7:a4:b1:68:48:55:6f:b5:4d:1c:21:bc:
        99:87:90:5c:5f:64:a7:5d:25:49:75:28:bd:f3:f3:90:2a:c8:
        ff:65:c1:f4:c3:37:19:0e:22:05:67:77:af:13:e1:3c:c3:38:
        83:8f:3b:06:b7:ad:cf:38:06:68:a4:98:e6:5e:bf:0c:85:73:
        6b:1d:1c:b2:26:f3:70:1b:aa:c9:39:a9:5a:39:29:9f:25:e7:
        d0:da:83:29:d9:2b:44:ac:18:87:b7:49:65:87:2a:bf:f5:ab:
        40:c4:2f:94:1c:5d:f5:bf:93:2a:68:24:cb:65:57:be:46:c9:
        2d:2d:71:7e:1c:07:95:8c:09:30:3c:29:b0:9c:eb:13:12:90:
        0e:c6:d2:40:b5:4d:a9:46:ce:a4:26:ce:ec:b9:c4:76:94:16:
        07:c6:13:16:cb:88:e6:90:aa:c7:8b:d5:53:ed:38:a0:5c:4e:
        cf:64:d9:18:c1:ee:2f:80:f7:05:aa:3c:f8:d0:9b:41:f3:9b:
        eb:42:36:ca:4c:be:2a:ac:fc:ef:84:79:4f:23:89:a6:3f:f8:
        a9:2a:4a:65:88:41:2c:1a:12:8e:ac:0b:66:65:39:79:85:3e:
        a5:b5:f0:9d:c6:3b:df:24:de:15:a9:99:ba:6b:bc:65:aa:f1:
        f8:e6:15:73:31:25:87:f5:33:ce:2f:c7:a1:39:46:b8:6a:cc:
        94:67:0f:ee:ce:b6:6e:f2:cc:81:76:5c:9b:66:de:8e:aa:17:
        4b:d9:04:c7:63:12:89:35:23:53:76:6e:6e:50:ae:a7:0c:c7:
        c4:a2:65:23:73:10:ef:b2:c4:34:43:eb:44:cf:1e:50:8a:b3:
        65:42:db:8f:11:73:5b:3e:9e:6e:85:84:8f:c9:9a:dd:fb:91:
        22:14:f7:f2:d0:c7:bb:f3:4f:70:ae:c6:28:4c:e4:96:ed:f0:
        55:9a:5e:1f:0b:c2:47:7c:51:c0:83:25:0e:10:a3:9c:2c:28:
        d0:a9:00:92:01:bf:90:5a:39:96:0b:3c:27:64:b2:e7:61:a3:
        30:73:fa:41:71:4b:60:24:6c:7b:c5:dc:3d:d1:a0:17:a9:ae:
        60:78:e7:13:0f:b0:7e:97:f3:24:52:8f:18:eb:cf:58:54:62:
        a3:b1:23:b3:70:3f:27:e9
-----BEGIN CERTIFICATE-----
MIIEXjCCAkagAwIBAgIBKTANBgkqhkiG9w0BAQsFADBGMQswCQYDVQQGEwJDQTEN
MAsGA1UECgwEU0VMRjENMAsGA1UECwwEU0VMRjEZMBcGA1UEAwwQU0VMRiBJREVO
VElUWSBDQTAgFw0yNDA5MDkxMTM4MTdaGA8yMTI0MDgxNjExMzgxN1owLzELMAkG
A1UEBhMCQ0ExETAPBgNVBAoMCG1iZWQgVExTMQ0wCwYDVQQDDARDZXJ0MIIBIjAN
BgkqhkiG9w0BAQEFAAOCAQ8AMIIBCgKCAQEA1VSS/gKy3zIhWyzyMfIdK3AE11Cl
hkjt7lZyDl0XiaXYe/WlU5yERmzTndULj8xjm2cnPhlGNCxDvZcA/UirWFofTXyH
Dt/qY/lT7s6SSCYs/meSZC7p0feft+dAh8s2y+V5KBkTYJy5l7OuyfsEGk0Wf/jc
Q+9b7Yfk3aIzEO/p2jDVx/TGHNMZebr7sWc7PWAFM3JKqWuUjq2L6S1ni6G2ZBfP
/ulhclCQdDiWk7Iu2LWgprNvwv4mrv5AO6oKRD0o9LQAZbiLU8OhgUz4aa8ZCjev
MkRq1F7+zdGmM33QHypO1cO0mQllFLidT7Vskh8n1WlBHlcj3GGi6/hplwIDAQAB
o2wwajAdBgNVHQ4EFgQU+WqkrgvCgkXdOC+c27HTy0Y2gRgwHwYDVR0jBBgwFoAU
l271sTig+lUoDdXM4sNB+W/3LlcwCQYDVR0TBAIwADALBgNVHQ8EBAMCBaAwEAYJ
YIZIAYb4QgEBBAMDAQAwDQYJKoZIhvcNAQELBQADggIBAF1NQ9wBW9zqiZu9/UwD
N3vXWRhGfoLR24axsxVwj+bKn0JQzBDkO15rrsA3MGiK7raMCokETj/RKENSlE5W
hR+2eCREkZkJhTjj3BZkH7eksWhIVW+1TRwhvJmHkFxfZKddJUl1KL3z85AqyP9l
wfTDNxkOIgVnd68T4TzDOIOPOwa3rc84BmikmOZevwyFc2sdHLIm83Abqsk5qVo5
KZ8l59DagynZK0SsGIe3SWWHKr/1q0DEL5QcXfW/kypoJMtlV75GyS0tcX4cB5WM
CTA8KbCc6xMSkA7G0kC1TalGzqQmzuy5xHaUFgfGExbLiOaQqseL1VPtOKBcTs9k
2RjB7i+A9wWqPPjQm0Hzm+tCNspMviqs/O+EeU8jiaY/+KkqSmWIQSwaEo6sC2Zl
OXmFPqW18J3GO98k3hWpmbprvGWq8fjmFXMxJYf1M84vx6E5RrhqzJRnD+7Otm7y
zIF2XJtm3o6qF0vZBMdjEok1I1N2bm5QrqcMx8SiZSNzEO+yxDRD60TPHlCKs2VC
248Rc1s+nm6FhI/Jmt37kSIU9/LQx7vzT3CuxihM5Jbt8FWaXh8Lwkd8UcCDJQ4Q
o5wsKNCpAJIBv5BaOZYLPCdksudhozBz+kFxS2AkbHvF3D3RoBeprmB45xMPsH6X
8yRSjxjrz1hUYqOxI7NwPyfp
-----END CERTIFICATE-----
