Certificate:
    Data:
        Version: 3 (0x2)
        Serial Number: 42 (0x2a)
        Signature Algorithm: sha256WithRSAEncryption
        Issuer: C=CA, O=SELF, OU=SELF, CN=SELF IDENTITY CA
        Validity
            Not Before: Sep  9 11:40:22 2024 GMT
            Not After : Aug 16 11:40:22 2124 GMT
        Subject: C=CA, O=mbed TLS, CN=Cert
        Subject Public Key Info:
            Public Key Algorithm: rsaEncryption
                Public-Key: (2048 bit)
                Modulus:
                    00:d5:54:92:fe:02:b2:df:32:21:5b:2c:f2:31:f2:
                    1d:2b:70:04:d7:50:a5:86:48:ed:ee:56:72:0e:5d:
                    17:89:a5:d8:7b:f5:a5:53:9c:84:46:6c:d3:9d:d5:
                    0b:8f:cc:63:9b:67:27:3e:19:46:34:2c:43:bd:97:
                    00:fd:48:ab:58:5a:1f:4d:7c:87:0e:df:ea:63:f9:
                    53:ee:ce:92:48:26:2c:fe:67:92:64:2e:e9:d1:f7:
                    9f:b7:e7:40:87:cb:36:cb:e5:79:28:19:13:60:9c:
                    b9:97:b3:ae:c9:fb:04:1a:4d:16:7f:f8:dc:43:ef:
                    5b:ed:87:e4:dd:a2:33:10:ef:e9:da:30:d5:c7:f4:
                    c6:1c:d3:19:79:ba:fb:b1:67:3b:3d:60:05:33:72:
                    4a:a9:6b:94:8e:ad:8b:e9:2d:67:8b:a1:b6:64:17:
                    cf:fe:e9:61:72:50:90:74:38:96:93:b2:2e:d8:b5:
                    a0:a6:b3:6f:c2:fe:26:ae:fe:40:3b:aa:0a:44:3d:
                    28:f4:b4:00:65:b8:8b:53:c3:a1:81:4c:f8:69:af:
                    19:0a:37:af:32:44:6a:d4:5e:fe:cd:d1:a6:33:7d:
                    d0:1f:2a:4e:d5:c3:b4:99:09:65:14:b8:9d:4f:b5:
                    6c:92:1f:27:d5:69:41:1e:57:23:dc:61:a2:eb:f8:
                    69:97
                Exponent: 65537 (0x10001)
        X509v3 extensions:
            X509v3 Subject Key Identifier: 
                F9:6A:A4:AE:0B:C2:82:45:DD:38:2F:9C:DB:B1:D3:CB:46:36:81:18
            X509v3 Authority Key Identifier: 
                97:6E:F5:B1:38:A0:FA:55:28:0D:D5:CC:E2:C3:41:F9:6F:F7:2E:57
            X509v3 Basic Constraints: 
                CA:FALSE
            X509v3 Key Usage: 
                Digital Signature, Key Encipherment
            Netscape Cert Type: 
                ...
    Signature Algorithm: sha256WithRSAEncryption
    Signature Value:
        7a:f3:31:86:a6:24:2b:cb:05:19:27:86:69:cc:26:d4:58:42:
        ac:0b:12:a2:cd:6a:89:79:b1:8e:7d:28:a0:db:eb:07:62:86:
        d5:a1:b9:1d:d2:98:6c:99:fa:97:fc:5d:51:e5:20:3a:d6:87:
        52:8f:4f:82:e0:3c:72:4d:0b:af:af:a2:96:e0:ae:37:38:5c:
        68:d6:2b:a2:f8:35:f1:a6:67:3e:f0:f3:db:29:18:07:d4:d5:
        ec:4e:23:ed:8b:0a:b7:b9:22:2a:ea:08:cb:cd:34:ea:e0:9b:
        5f:b0:f1:d6:d0:a6:b8:15:92:d5:39:b4:36:b2:8e:6d:de:fd:
        0e:1a:78:c5:15:45:aa:91:a9:77:b1:61:bf:66:75:24:b6:27:
        16:d3:54:26:77:46:11:81:4d:9e:42:ca:c2:45:35:5d:e1:95:
        65:94:cd:80:c6:9d:a5:88:a8:f3:16:30:71:62:34:f2:62:f0:
        69:15:ac:d9:73:13:78:ff:83:48:5f:e0:a4:fc:54:3f:0a:40:
        8c:b5:a5:08:b4:7e:ae:94:a0:00:5e:b4:6e:22:15:08:c8:bd:
        c1:d0:59:1a:30:d0:b3:fd:1c:1a:46:7d:d3:24:77:35:19:bf:
        8c:e6:c7:85:b6:a5:76:fc:71:65:82:5e:96:a1:9d:19:10:c7:
        ea:24:08:29:51:e9:85:4d:a1:af:ca:20:b1:a8:60:4f:70:75:
        5a:fc:73:ff:6f:12:ea:92:f1:e5:46:e7:a9:18:67:ce:5d:d4:
        27:95:91:f5:38:77:ac:96:b1:07:90:87:2f:61:f6:19:7e:84:
        e3:8c:b2:f5:e4:89:27:bc:25:05:5a:81:7e:5e:be:fb:62:df:
        b7:67:06:57:3f:7b:4b:12:26:03:57:91:d2:cd:d4:ab:a4:2a:
        80:74:31:a6:f3:65:38:7b:f9:37:e7:58:b8:37:1e:14:75:fa:
        02:6b:16:67:98:4b:88:d2:89:76:dc:94:0f:ce:1d:2d:4a:6d:
        6a:d7:d9:0b:65:1b:04:c1:34:70:03:81:f9:1c:13:ce:39:0d:
        a8:67:4d:fc:c4:8f:c9:e0:e3:1e:af:c2:40:1b:31:4d:ea:a1:
        76:8c:1d:a2:71:9b:85:7c:02:8a:d8:f7:b5:98:6f:fb:33:4b:
        75:a4:0b:9c:31:c0:73:4e:dd:8a:b7:9f:49:b5:f1:5e:09:95:
        9b:73:d7:55:ab:eb:db:78:9d:2a:6b:1f:8f:d4:3e:cd:28:a8:
        cf:be:b0:56:d3:87:e4:92:95:0b:e2:39:db:cb:8c:66:90:f3:
        03:b4:00:51:87:77:79:95:79:e6:67:ec:43:10:97:19:89:a8:
        1d:0e:d1:e1:f0:e9:07:61
-----BEGIN CERTIFICATE-----
MIIEXjCCAkagAwIBAgIBKjANBgkqhkiG9w0BAQsFADBGMQswCQYDVQQGEwJDQTEN
MAsGA1UECgwEU0VMRjENMAsGA1UECwwEU0VMRjEZMBcGA1UEAwwQU0VMRiBJREVO
VElUWSBDQTAgFw0yNDA5MDkxMTQwMjJaGA8yMTI0MDgxNjExNDAyMlowLzELMAkG
A1UEBhMCQ0ExETAPBgNVBAoMCG1iZWQgVExTMQ0wCwYDVQQDDARDZXJ0MIIBIjAN
BgkqhkiG9w0BAQEFAAOCAQ8AMIIBCgKCAQEA1VSS/gKy3zIhWyzyMfIdK3AE11Cl
hkjt7lZyDl0XiaXYe/WlU5yERmzTndULj8xjm2cnPhlGNCxDvZcA/UirWFofTXyH
Dt/qY/lT7s6SSCYs/meSZC7p0feft+dAh8s2y+V5KBkTYJy5l7OuyfsEGk0Wf/jc
Q+9b7Yfk3aIzEO/p2jDVx/TGHNMZebr7sWc7PWAFM3JKqWuUjq2L6S1ni6G2ZBfP
/ulhclCQdDiWk7Iu2LWgprNvwv4mrv5AO6oKRD0o9LQAZbiLU8OhgUz4aa8ZCjev
MkRq1F7+zdGmM33QHypO1cO0mQllFLidT7Vskh8n1WlBHlcj3GGi6/hplwIDAQAB
o2wwajAdBgNVHQ4EFgQU+WqkrgvCgkXdOC+c27HTy0Y2gRgwHwYDVR0jBBgwFoAU
l271sTig+lUoDdXM4sNB+W/3LlcwCQYDVR0TBAIwADALBgNVHQ8EBAMCBaAwEAYJ
YIZIAYb4QgEBBAMDAQAwDQYJKoZIhvcNAQELBQADggIBAHrzMYamJCvLBRknhmnM
JtRYQqwLEqLNaol5sY59KKDb6wdihtWhuR3SmGyZ+pf8XVHlIDrWh1KPT4LgPHJN
C6+vopbgrjc4XGjWK6L4NfGmZz7w89spGAfU1exOI+2LCre5IirqCMvNNOrgm1+w
8dbQprgVktU5tDayjm3e/Q4aeMUVRaqRqXexYb9mdSS2JxbTVCZ3RhGBTZ5CysJF
NV3hlWWUzYDGnaWIqPMWMHFiNPJi8GkVrNlzE3j/g0hf4KT8VD8KQIy1pQi0fq6U
oABetG4iFQjIvcHQWRow0LP9HBpGfdMkdzUZv4zmx4W2pXb8cWWCXpahnRkQx+ok
CClR6YVNoa/KILGoYE9wdVr8c/9vEuqS8eVG56kYZ85d1CeVkfU4d6yWsQeQhy9h
9hl+hOOMsvXkiSe8JQVagX5evvti37dnBlc/e0sSJgNXkdLN1KukKoB0MabzZTh7
+TfnWLg3HhR1+gJrFmeYS4jSiXbclA/OHS1KbWrX2QtlGwTBNHADgfkcE845Dahn
TfzEj8ng4x6vwkAbMU3qoXaMHaJxm4V8AorY97WYb/szS3WkC5wxwHNO3Yq3n0m1
8V4JlZtz11Wr69t4nSprH4/UPs0oqM++sFbTh+SSlQviOdvLjGaQ8wO0AFGHd3mV
eeZn7EMQlxmJqB0O0eHw6Qdh
-----END CERTIFICATE-----
