Certificate:
    Data:
        Version: 3 (0x2)
        Serial Number: 43 (0x2b)
        Signature Algorithm: sha256WithRSAEncryption
        Issuer: C=CA, O=SELF, OU=SELF, CN=SELF IDENTITY CA
        Validity
            Not Before: Sep  9 11:40:45 2024 GMT
            Not After : Aug 16 11:40:45 2124 GMT
        Subject: C=CA, O=mbed TLS, CN=Cert
        Subject Public Key Info:
            Public Key Algorithm: rsaEncryption
                Public-Key: (2048 bit)
                Modulus:
                    00:d5:54:92:fe:02:b2:df:32:21:5b:2c:f2:31:f2:
                    1d:2b:70:04:d7:50:a5:86:48:ed:ee:56:72:0e:5d:
                    17:89:a5:d8:7b:f5:a5:53:9c:84:46:6c:d3:9d:d5:
                    0b:8f:cc:63:9b:67:27:3e:19:46:34:2c:43:bd:97:
                    00:fd:48:ab:58:5a:1f:4d:7c:87:0e:df:ea:63:f9:
                    53:ee:ce:92:48:26:2c:fe:67:92:64:2e:e9:d1:f7:
                    9f:b7:e7:40:87:cb:36:cb:e5:79:28:19:13:60:9c:
                    b9:97:b3:ae:c9:fb:04:1a:4d:16:7f:f8:dc:43:ef:
                    5b:ed:87:e4:dd:a2:33:10:ef:e9:da:30:d5:c7:f4:
                    c6:1c:d3:19:79:ba:fb:b1:67:3b:3d:60:05:33:72:
                    4a:a9:6b:94:8e:ad:8b:e9:2d:67:8b:a1:b6:64:17:
                    cf:fe:e9:61:72:50:90:74:38:96:93:b2:2e:d8:b5:
                    a0:a6:b3:6f:c2:fe:26:ae:fe:40:3b:aa:0a:44:3d:
                    28:f4:b4:00:65:b8:8b:53:c3:a1:81:4c:f8:69:af:
                    19:0a:37:af:32:44:6a:d4:5e:fe:cd:d1:a6:33:7d:
                    d0:1f:2a:4e:d5:c3:b4:99:09:65:14:b8:9d:4f:b5:
                    6c:92:1f:27:d5:69:41:1e:57:23:dc:61:a2:eb:f8:
                    69:97
                Exponent: 65537 (0x10001)
        X509v3 extensions:
            X509v3 Subject Key Identifier: 
                F9:6A:A4:AE:0B:C2:82:45:DD:38:2F:9C:DB:B1:D3:CB:46:36:81:18
            X509v3 Authority Key Identifier: 
                97:6E:F5:B1:38:A0:FA:55:28:0D:D5:CC:E2:C3:41:F9:6F:F7:2E:57
            X509v3 Basic Constraints: 
                CA:FALSE
            X509v3 Key Usage: 
                Digital Signature, Key Encipherment
            Netscape Cert Type: 
                ...
    Signature Algorithm: sha256WithRSAEncryption
    Signature Value:
        4d:c0:4e:2a:82:24:0e:64:71:04:16:f9:f3:44:8e:fe:2e:a9:
        09:5d:4f:77:42:76:82:fb:c3:c9:58:28:b7:5e:75:2e:89:fd:
        d4:10:65:f8:bc:3f:34:34:76:66:a1:a6:3c:fd:00:1c:48:c6:
        cb:87:e3:de:bc:5f:de:3c:0f:0e:89:02:58:86:9a:17:22:72:
        15:05:be:53:b3:8d:56:87:5a:18:e3:b1:86:7f:77:a9:4a:51:
        d6:4f:39:6c:d4:2d:85:cc:77:4a:7e:ab:05:f4:7b:6e:77:9a:
        fc:2c:01:40:b0:ef:64:c5:d0:3f:f8:1d:4c:f1:fa:dd:2f:7c:
        53:ea:59:89:9a:1b:02:46:00:52:c6:fa:72:f8:eb:29:e8:69:
        10:de:99:6e:17:f4:5b:c7:20:e7:64:04:fa:8c:85:2b:d2:89:
        f5:de:4b:b5:76:fc:c3:3b:d7:fb:45:de:da:b7:d8:d9:fd:44:
        12:5e:82:6e:a0:50:ac:48:ce:c7:63:51:18:c9:1f:af:83:0b:
        ec:35:f4:89:e7:5b:eb:80:62:85:55:11:1a:8c:af:49:93:b6:
        cd:5d:25:17:14:78:d3:77:03:fa:78:7b:31:0f:08:7c:c0:7d:
        be:30:d5:1f:e6:f2:61:2a:27:9a:a9:5f:0b:ef:95:06:35:f1:
        37:d2:2d:bd:55:c8:a1:fc:24:e7:d2:ab:05:5a:9a:c9:a7:8f:
        8a:ce:9f:c5:fa:0f:40:5a:94:20:33:02:3b:32:3d:02:c9:06:
        1f:12:dc:00:81:3e:13:e0:f6:8e:a2:df:90:7c:93:c0:3c:4f:
        d2:c5:6f:63:54:e2:ec:9e:e9:30:a0:1e:a8:5f:49:80:6e:6c:
        b4:ad:40:24:25:54:dc:5b:69:bf:54:c2:0a:74:26:6d:15:5d:
        5e:90:ed:57:dd:72:f6:fb:71:be:9f:15:c3:b4:a2:83:fe:64:
        c1:84:3f:6e:0c:2b:e1:59:3a:1e:18:65:1b:1e:63:47:d3:1f:
        3a:82:9c:cf:c7:76:2a:2d:2c:79:a1:94:3f:b7:ed:3b:92:8e:
        a1:1f:cc:fa:49:60:96:5e:13:29:82:41:1a:97:46:8e:da:f7:
        86:6d:3c:a9:38:cc:c9:33:ea:7a:ee:fe:ae:25:f7:d1:5a:54:
        1a:e4:9d:95:61:d3:be:75:78:9f:37:13:68:43:5e:a4:ff:36:
        43:4c:19:31:d5:2d:96:80:0e:81:5d:11:0a:d3:e7:2b:ca:7f:
        59:42:8d:55:29:0d:3a:46:10:2f:d9:f4:37:19:71:31:20:8e:
        5f:9d:56:2a:57:08:cb:74:e6:ba:7b:49:68:07:79:19:ae:ed:
        4d:0a:ac:30:5e:f4:eb:dd
-----BEGIN CERTIFICATE-----
MIIEXjCCAkagAwIBAgIBKzANBgkqhkiG9w0BAQsFADBGMQswCQYDVQQGEwJDQTEN
MAsGA1UECgwEU0VMRjENMAsGA1UECwwEU0VMRjEZMBcGA1UEAwwQU0VMRiBJREVO
VElUWSBDQTAgFw0yNDA5MDkxMTQwNDVaGA8yMTI0MDgxNjExNDA0NVowLzELMAkG
A1UEBhMCQ0ExETAPBgNVBAoMCG1iZWQgVExTMQ0wCwYDVQQDDARDZXJ0MIIBIjAN
BgkqhkiG9w0BAQEFAAOCAQ8AMIIBCgKCAQEA1VSS/gKy3zIhWyzyMfIdK3AE11Cl
hkjt7lZyDl0XiaXYe/WlU5yERmzTndULj8xjm2cnPhlGNCxDvZcA/UirWFofTXyH
Dt/qY/lT7s6SSCYs/meSZC7p0feft+dAh8s2y+V5KBkTYJy5l7OuyfsEGk0Wf/jc
Q+9b7Yfk3aIzEO/p2jDVx/TGHNMZebr7sWc7PWAFM3JKqWuUjq2L6S1ni6G2ZBfP
/ulhclCQdDiWk7Iu2LWgprNvwv4mrv5AO6oKRD0o9LQAZbiLU8OhgUz4aa8ZCjev
MkRq1F7+zdGmM33QHypO1cO0mQllFLidT7Vskh8n1WlBHlcj3GGi6/hplwIDAQAB
o2wwajAdBgNVHQ4EFgQU+WqkrgvCgkXdOC+c27HTy0Y2gRgwHwYDVR0jBBgwFoAU
l271sTig+lUoDdXM4sNB+W/3LlcwCQYDVR0TBAIwADALBgNVHQ8EBAMCBaAwEAYJ
YIZIAYb4QgEBBAMDAQAwDQYJKoZIhvcNAQELBQADggIBAE3ATiqCJA5kcQQW+fNE
jv4uqQldT3dCdoL7w8lYKLdedS6J/dQQZfi8PzQ0dmahpjz9ABxIxsuH4968X948
Dw6JAliGmhcichUFvlOzjVaHWhjjsYZ/d6lKUdZPOWzULYXMd0p+qwX0e253mvws
AUCw72TF0D/4HUzx+t0vfFPqWYmaGwJGAFLG+nL46ynoaRDemW4X9FvHIOdkBPqM
hSvSifXeS7V2/MM71/tF3tq32Nn9RBJegm6gUKxIzsdjURjJH6+DC+w19InnW+uA
YoVVERqMr0mTts1dJRcUeNN3A/p4ezEPCHzAfb4w1R/m8mEqJ5qpXwvvlQY18TfS
Lb1VyKH8JOfSqwVamsmnj4rOn8X6D0BalCAzAjsyPQLJBh8S3ACBPhPg9o6i35B8
k8A8T9LFb2NU4uye6TCgHqhfSYBubLStQCQlVNxbab9Uwgp0Jm0VXV6Q7Vfdcvb7
cb6fFcO0ooP+ZMGEP24MK+FZOh4YZRseY0fTHzqCnM/HdiotLHmhlD+37TuSjqEf
zPpJYJZeEymCQRqXRo7a94ZtPKk4zMkz6nru/q4l99FaVBrknZVh0751eJ83E2hD
XqT/NkNMGTHVLZaADoFdEQrT5yvKf1lCjVUpDTpGEC/Z9DcZcTEgjl+dVipXCMt0
5rp7SWgHeRmu7U0KrDBe9Ovd
-----END CERTIFICATE-----
