Certificate:
    Data:
        Version: 3 (0x2)
        Serial Number: 44 (0x2c)
        Signature Algorithm: sha256WithRSAEncryption
        Issuer: C=CA, O=SELF, OU=SELF, CN=SELF IDENTITY CA
        Validity
            Not Before: Sep  9 11:41:44 2024 GMT
            Not After : Aug 16 11:41:44 2124 GMT
        Subject: C=CA, O=mbed TLS, CN=Cert
        Subject Public Key Info:
            Public Key Algorithm: rsaEncryption
                Public-Key: (2048 bit)
                Modulus:
                    00:d5:54:92:fe:02:b2:df:32:21:5b:2c:f2:31:f2:
                    1d:2b:70:04:d7:50:a5:86:48:ed:ee:56:72:0e:5d:
                    17:89:a5:d8:7b:f5:a5:53:9c:84:46:6c:d3:9d:d5:
                    0b:8f:cc:63:9b:67:27:3e:19:46:34:2c:43:bd:97:
                    00:fd:48:ab:58:5a:1f:4d:7c:87:0e:df:ea:63:f9:
                    53:ee:ce:92:48:26:2c:fe:67:92:64:2e:e9:d1:f7:
                    9f:b7:e7:40:87:cb:36:cb:e5:79:28:19:13:60:9c:
                    b9:97:b3:ae:c9:fb:04:1a:4d:16:7f:f8:dc:43:ef:
                    5b:ed:87:e4:dd:a2:33:10:ef:e9:da:30:d5:c7:f4:
                    c6:1c:d3:19:79:ba:fb:b1:67:3b:3d:60:05:33:72:
                    4a:a9:6b:94:8e:ad:8b:e9:2d:67:8b:a1:b6:64:17:
                    cf:fe:e9:61:72:50:90:74:38:96:93:b2:2e:d8:b5:
                    a0:a6:b3:6f:c2:fe:26:ae:fe:40:3b:aa:0a:44:3d:
                    28:f4:b4:00:65:b8:8b:53:c3:a1:81:4c:f8:69:af:
                    19:0a:37:af:32:44:6a:d4:5e:fe:cd:d1:a6:33:7d:
                    d0:1f:2a:4e:d5:c3:b4:99:09:65:14:b8:9d:4f:b5:
                    6c:92:1f:27:d5:69:41:1e:57:23:dc:61:a2:eb:f8:
                    69:97
                Exponent: 65537 (0x10001)
        X509v3 extensions:
            X509v3 Subject Key Identifier: 
                F9:6A:A4:AE:0B:C2:82:45:DD:38:2F:9C:DB:B1:D3:CB:46:36:81:18
            X509v3 Authority Key Identifier: 
                97:6E:F5:B1:38:A0:FA:55:28:0D:D5:CC:E2:C3:41:F9:6F:F7:2E:57
            X509v3 Basic Constraints: 
                CA:FALSE
            X509v3 Key Usage: 
                Digital Signature, Key Encipherment
            Netscape Cert Type: 
                ...
    Signature Algorithm: sha256WithRSAEncryption
    Signature Value:
        6a:ef:16:2d:74:b9:c4:3f:8a:0d:ca:bd:5c:ac:cb:95:62:64:
        de:b2:90:ea:7b:a6:7d:5a:8a:b0:59:48:1a:89:92:d8:a5:c0:
        fe:65:bc:84:f9:cb:71:59:d5:9d:88:26:c8:f8:b2:a0:7e:a0:
        57:79:97:e1:36:8a:d1:a0:3a:69:59:2e:43:cd:1c:20:d9:39:
        98:3b:8e:0d:08:df:b4:0e:de:3f:90:b4:55:29:a9:ea:62:84:
        17:76:25:cc:28:b2:93:ea:df:57:36:4b:2d:88:2c:3d:82:cf:
        64:0b:74:9a:0c:35:33:de:f8:dd:07:0f:46:b0:e5:fb:6a:80:
        e4:3a:74:11:3e:9a:d4:de:13:b1:c1:f8:94:17:48:7f:ab:66:
        17:ad:81:0a:24:da:9d:f8:c0:a8:1c:48:34:f1:56:6a:4c:ef:
        b3:ef:c6:e8:4f:eb:dc:b6:65:da:4a:76:8a:a4:37:64:e4:69:
        f6:a3:b7:4c:69:59:2b:57:80:78:3b:28:f7:f0:4e:a9:51:de:
        a1:08:3c:c9:55:89:f7:2a:99:cf:56:a2:27:d7:d8:87:1a:d0:
        69:d2:21:43:cf:0a:b1:59:d7:fa:3b:f0:09:32:53:48:4d:52:
        eb:c2:5f:33:1b:89:f4:b8:99:3f:c8:97:c3:0a:40:21:55:ad:
        33:3b:4f:26:14:8a:c9:b0:d5:a7:53:34:ae:44:d7:fa:39:6e:
        1b:9a:b2:9c:ef:d0:41:63:79:1c:9e:dc:33:53:97:f7:69:a6:
        1f:78:9e:dd:98:82:64:6c:97:93:f6:7d:55:4a:50:d5:06:f5:
        a4:3e:39:cf:65:d5:b0:cb:93:f4:4c:dc:51:cd:50:1e:e1:12:
        7a:29:3b:73:18:51:9b:e0:33:88:6d:6e:d0:01:f3:00:fb:28:
        d4:cc:d7:09:24:3e:65:5b:e5:7e:97:93:96:bc:7d:34:55:53:
        be:9f:2f:72:46:11:b1:ad:5b:0a:b6:e8:45:37:b9:ce:fc:4f:
        23:c2:62:73:2c:d9:6d:de:77:cd:7f:19:7d:83:99:d7:ea:30:
        48:96:e0:d9:98:f5:6d:4e:ce:38:aa:10:46:02:32:4d:1b:0b:
        01:31:00:86:a4:6b:db:e6:4c:ba:80:18:7c:74:7d:3b:4c:5f:
        05:06:cd:df:3e:91:ed:0a:c0:5e:90:4a:41:c9:75:a9:4a:bd:
        df:3b:d4:24:63:49:45:fa:9f:e8:e9:e0:10:86:27:97:0e:2f:
        df:b2:ad:06:7e:5c:7d:2b:13:d8:9a:e0:5a:01:99:65:70:62:
        12:d0:fd:c7:41:e6:63:b5:25:a9:ef:3e:ac:45:29:ad:37:43:
        2d:69:70:50:e4:be:89:89
-----BEGIN CERTIFICATE-----
MIIEXjCCAkagAwIBAgIBLDANBgkqhkiG9w0BAQsFADBGMQswCQYDVQQGEwJDQTEN
MAsGA1UECgwEU0VMRjENMAsGA1UECwwEU0VMRjEZMBcGA1UEAwwQU0VMRiBJREVO
VElUWSBDQTAgFw0yNDA5MDkxMTQxNDRaGA8yMTI0MDgxNjExNDE0NFowLzELMAkG
A1UEBhMCQ0ExETAPBgNVBAoMCG1iZWQgVExTMQ0wCwYDVQQDDARDZXJ0MIIBIjAN
BgkqhkiG9w0BAQEFAAOCAQ8AMIIBCgKCAQEA1VSS/gKy3zIhWyzyMfIdK3AE11Cl
hkjt7lZyDl0XiaXYe/WlU5yERmzTndULj8xjm2cnPhlGNCxDvZcA/UirWFofTXyH
Dt/qY/lT7s6SSCYs/meSZC7p0feft+dAh8s2y+V5KBkTYJy5l7OuyfsEGk0Wf/jc
Q+9b7Yfk3aIzEO/p2jDVx/TGHNMZebr7sWc7PWAFM3JKqWuUjq2L6S1ni6G2ZBfP
/ulhclCQdDiWk7Iu2LWgprNvwv4mrv5AO6oKRD0o9LQAZbiLU8OhgUz4aa8ZCjev
MkRq1F7+zdGmM33QHypO1cO0mQllFLidT7Vskh8n1WlBHlcj3GGi6/hplwIDAQAB
o2wwajAdBgNVHQ4EFgQU+WqkrgvCgkXdOC+c27HTy0Y2gRgwHwYDVR0jBBgwFoAU
l271sTig+lUoDdXM4sNB+W/3LlcwCQYDVR0TBAIwADALBgNVHQ8EBAMCBaAwEAYJ
YIZIAYb4QgEBBAMDAQAwDQYJKoZIhvcNAQELBQADggIBAGrvFi10ucQ/ig3KvVys
y5ViZN6ykOp7pn1airBZSBqJktilwP5lvIT5y3FZ1Z2IJsj4sqB+oFd5l+E2itGg
OmlZLkPNHCDZOZg7jg0I37QO3j+QtFUpqepihBd2JcwospPq31c2Sy2ILD2Cz2QL
dJoMNTPe+N0HD0aw5ftqgOQ6dBE+mtTeE7HB+JQXSH+rZhetgQok2p34wKgcSDTx
VmpM77PvxuhP69y2ZdpKdoqkN2Tkafajt0xpWStXgHg7KPfwTqlR3qEIPMlVifcq
mc9WoifX2Ica0GnSIUPPCrFZ1/o78AkyU0hNUuvCXzMbifS4mT/Il8MKQCFVrTM7
TyYUismw1adTNK5E1/o5bhuaspzv0EFjeRye3DNTl/dpph94nt2YgmRsl5P2fVVK
UNUG9aQ+Oc9l1bDLk/RM3FHNUB7hEnopO3MYUZvgM4htbtAB8wD7KNTM1wkkPmVb
5X6Xk5a8fTRVU76fL3JGEbGtWwq26EU3uc78TyPCYnMs2W3ed81/GX2DmdfqMEiW
4NmY9W1OzjiqEEYCMk0bCwExAIaka9vmTLqAGHx0fTtMXwUGzd8+ke0KwF6QSkHJ
dalKvd871CRjSUX6n+jp4BCGJ5cOL9+yrQZ+XH0rE9ia4FoBmWVwYhLQ/cdB5mO1
JanvPqxFKa03Qy1pcFDkvomJ
-----END CERTIFICATE-----
