Certificate:
    Data:
        Version: 3 (0x2)
        Serial Number: 45 (0x2d)
        Signature Algorithm: sha256WithRSAEncryption
        Issuer: C=CA, O=SELF, OU=SELF, CN=SELF IDENTITY CA
        Validity
            Not Before: Sep  9 11:42:37 2024 GMT
            Not After : Aug 16 11:42:37 2124 GMT
        Subject: C=CA, O=mbed TLS, CN=Cert
        Subject Public Key Info:
            Public Key Algorithm: rsaEncryption
                Public-Key: (2048 bit)
                Modulus:
                    00:d5:54:92:fe:02:b2:df:32:21:5b:2c:f2:31:f2:
                    1d:2b:70:04:d7:50:a5:86:48:ed:ee:56:72:0e:5d:
                    17:89:a5:d8:7b:f5:a5:53:9c:84:46:6c:d3:9d:d5:
                    0b:8f:cc:63:9b:67:27:3e:19:46:34:2c:43:bd:97:
                    00:fd:48:ab:58:5a:1f:4d:7c:87:0e:df:ea:63:f9:
                    53:ee:ce:92:48:26:2c:fe:67:92:64:2e:e9:d1:f7:
                    9f:b7:e7:40:87:cb:36:cb:e5:79:28:19:13:60:9c:
                    b9:97:b3:ae:c9:fb:04:1a:4d:16:7f:f8:dc:43:ef:
                    5b:ed:87:e4:dd:a2:33:10:ef:e9:da:30:d5:c7:f4:
                    c6:1c:d3:19:79:ba:fb:b1:67:3b:3d:60:05:33:72:
                    4a:a9:6b:94:8e:ad:8b:e9:2d:67:8b:a1:b6:64:17:
                    cf:fe:e9:61:72:50:90:74:38:96:93:b2:2e:d8:b5:
                    a0:a6:b3:6f:c2:fe:26:ae:fe:40:3b:aa:0a:44:3d:
                    28:f4:b4:00:65:b8:8b:53:c3:a1:81:4c:f8:69:af:
                    19:0a:37:af:32:44:6a:d4:5e:fe:cd:d1:a6:33:7d:
                    d0:1f:2a:4e:d5:c3:b4:99:09:65:14:b8:9d:4f:b5:
                    6c:92:1f:27:d5:69:41:1e:57:23:dc:61:a2:eb:f8:
                    69:97
                Exponent: 65537 (0x10001)
        X509v3 extensions:
            X509v3 Subject Key Identifier: 
                F9:6A:A4:AE:0B:C2:82:45:DD:38:2F:9C:DB:B1:D3:CB:46:36:81:18
            X509v3 Authority Key Identifier: 
                97:6E:F5:B1:38:A0:FA:55:28:0D:D5:CC:E2:C3:41:F9:6F:F7:2E:57
            X509v3 Basic Constraints: 
                CA:FALSE
            X509v3 Key Usage: 
                Digital Signature, Key Encipherment
            Netscape Cert Type: 
                ...
    Signature Algorithm: sha256WithRSAEncryption
    Signature Value:
        73:7b:18:f8:9b:b6:99:35:dc:ea:ad:c6:cf:75:3e:38:a5:59:
        c2:5a:3c:86:06:8f:63:b5:d1:3c:86:8c:1e:06:25:06:5c:fc:
        c9:df:b9:d6:4a:44:8b:5e:32:12:e4:21:8b:43:88:60:58:31:
        27:15:f0:fd:bc:83:84:f8:7f:27:eb:7c:b9:a2:e9:7c:cb:d0:
        9e:b7:c3:19:88:40:97:c1:31:af:6f:0f:f9:bb:04:b5:8e:4d:
        4c:05:3c:e7:fa:4c:9c:60:3c:df:8f:45:e4:5e:33:aa:f6:8b:
        c9:b8:a5:79:f0:06:4a:b0:84:9b:ec:f1:58:b5:e5:55:c0:aa:
        da:b0:6a:f7:b5:fc:76:f0:9a:97:c1:c8:9b:4c:ea:f1:aa:ea:
        c1:30:29:9c:6b:30:f9:20:68:2f:e6:93:6c:2f:5a:ad:bf:5c:
        26:9b:df:27:ad:fd:e4:b5:a3:1b:e1:f0:1f:77:64:c4:6f:4f:
        af:07:32:bc:ac:d5:5b:9c:5d:d8:64:96:16:0d:ed:f5:07:68:
        b6:fc:dd:69:a1:8b:78:c6:96:81:39:e9:8c:23:85:c1:9c:e1:
        c7:79:3b:1b:aa:dc:e9:bc:f4:b8:61:e7:e2:eb:dc:60:6d:af:
        05:30:af:25:f1:b9:ec:19:7b:64:09:c6:f7:75:b5:2b:82:96:
        3c:39:b6:32:4b:93:fa:ad:82:67:a6:2f:b0:aa:15:f1:de:d6:
        de:fb:e1:ea:ad:22:4b:d1:94:60:14:84:6c:ca:83:fd:56:56:
        01:14:e5:d1:dc:9f:d9:95:cc:52:27:a7:8a:10:fa:e2:79:ee:
        08:0e:f8:7a:ef:25:2a:c4:8a:98:83:53:48:c8:30:55:13:c6:
        c2:fb:0c:cd:56:3d:5c:fd:e1:04:f2:63:a6:e6:f4:c7:9d:80:
        61:54:83:c9:18:50:3c:55:fe:8a:f7:a9:6b:68:b3:2a:a9:92:
        de:04:10:d5:b7:1c:2d:75:97:eb:53:a6:95:4b:91:de:50:5d:
        74:4b:69:27:e0:eb:f5:c9:ab:eb:75:74:e6:74:86:48:2b:00:
        ef:a3:ad:bc:ab:9a:16:9c:99:a2:69:9d:dd:74:16:2d:0a:f8:
        f4:45:73:6a:fe:86:85:cd:a6:ae:21:9f:66:5c:e0:7d:75:5e:
        c9:5d:54:c2:55:d9:1f:89:b4:91:73:98:85:86:70:ec:9c:18:
        ad:57:0d:d7:75:06:23:f9:db:75:b7:61:2b:38:4f:49:75:4e:
        88:94:ea:30:63:0a:81:1c:39:4f:e0:d9:dd:9b:34:69:fc:47:
        25:91:ad:a2:19:86:fd:91:ca:0d:32:70:4c:53:25:bc:ab:f6:
        1b:7b:bf:da:ac:aa:96:be
-----BEGIN CERTIFICATE-----
MIIEXjCCAkagAwIBAgIBLTANBgkqhkiG9w0BAQsFADBGMQswCQYDVQQGEwJDQTEN
MAsGA1UECgwEU0VMRjENMAsGA1UECwwEU0VMRjEZMBcGA1UEAwwQU0VMRiBJREVO
VElUWSBDQTAgFw0yNDA5MDkxMTQyMzdaGA8yMTI0MDgxNjExNDIzN1owLzELMAkG
A1UEBhMCQ0ExETAPBgNVBAoMCG1iZWQgVExTMQ0wCwYDVQQDDARDZXJ0MIIBIjAN
BgkqhkiG9w0BAQEFAAOCAQ8AMIIBCgKCAQEA1VSS/gKy3zIhWyzyMfIdK3AE11Cl
hkjt7lZyDl0XiaXYe/WlU5yERmzTndULj8xjm2cnPhlGNCxDvZcA/UirWFofTXyH
Dt/qY/lT7s6SSCYs/meSZC7p0feft+dAh8s2y+V5KBkTYJy5l7OuyfsEGk0Wf/jc
Q+9b7Yfk3aIzEO/p2jDVx/TGHNMZebr7sWc7PWAFM3JKqWuUjq2L6S1ni6G2ZBfP
/ulhclCQdDiWk7Iu2LWgprNvwv4mrv5AO6oKRD0o9LQAZbiLU8OhgUz4aa8ZCjev
MkRq1F7+zdGmM33QHypO1cO0mQllFLidT7Vskh8n1WlBHlcj3GGi6/hplwIDAQAB
o2wwajAdBgNVHQ4EFgQU+WqkrgvCgkXdOC+c27HTy0Y2gRgwHwYDVR0jBBgwFoAU
l271sTig+lUoDdXM4sNB+W/3LlcwCQYDVR0TBAIwADALBgNVHQ8EBAMCBaAwEAYJ
YIZIAYb4QgEBBAMDAQAwDQYJKoZIhvcNAQELBQADggIBAHN7GPibtpk13Oqtxs91
PjilWcJaPIYGj2O10TyGjB4GJQZc/MnfudZKRIteMhLkIYtDiGBYMScV8P28g4T4
fyfrfLmi6XzL0J63wxmIQJfBMa9vD/m7BLWOTUwFPOf6TJxgPN+PReReM6r2i8m4
pXnwBkqwhJvs8Vi15VXAqtqwave1/HbwmpfByJtM6vGq6sEwKZxrMPkgaC/mk2wv
Wq2/XCab3yet/eS1oxvh8B93ZMRvT68HMrys1VucXdhklhYN7fUHaLb83Wmhi3jG
loE56YwjhcGc4cd5Oxuq3Om89Lhh5+Lr3GBtrwUwryXxuewZe2QJxvd1tSuCljw5
tjJLk/qtgmemL7CqFfHe1t774eqtIkvRlGAUhGzKg/1WVgEU5dHcn9mVzFInp4oQ
+uJ57ggO+HrvJSrEipiDU0jIMFUTxsL7DM1WPVz94QTyY6bm9MedgGFUg8kYUDxV
/or3qWtosyqpkt4EENW3HC11l+tTppVLkd5QXXRLaSfg6/XJq+t1dOZ0hkgrAO+j
rbyrmhacmaJpnd10Fi0K+PRFc2r+hoXNpq4hn2Zc4H11XsldVMJV2R+JtJFzmIWG
cOycGK1XDdd1BiP523W3YSs4T0l1ToiU6jBjCoEcOU/g2d2bNGn8RyWRraIZhv2R
yg0ycExTJbyr9ht7v9qsqpa+
-----END CERTIFICATE-----
