Certificate:
    Data:
        Version: 3 (0x2)
        Serial Number: 46 (0x2e)
        Signature Algorithm: sha256WithRSAEncryption
        Issuer: C=CA, O=SELF, OU=SELF, CN=SELF IDENTITY CA
        Validity
            Not Before: Sep  9 11:42:49 2024 GMT
            Not After : Aug 16 11:42:49 2124 GMT
        Subject: C=CA, O=mbed TLS, CN=Cert
        Subject Public Key Info:
            Public Key Algorithm: rsaEncryption
                Public-Key: (2048 bit)
                Modulus:
                    00:d5:54:92:fe:02:b2:df:32:21:5b:2c:f2:31:f2:
                    1d:2b:70:04:d7:50:a5:86:48:ed:ee:56:72:0e:5d:
                    17:89:a5:d8:7b:f5:a5:53:9c:84:46:6c:d3:9d:d5:
                    0b:8f:cc:63:9b:67:27:3e:19:46:34:2c:43:bd:97:
                    00:fd:48:ab:58:5a:1f:4d:7c:87:0e:df:ea:63:f9:
                    53:ee:ce:92:48:26:2c:fe:67:92:64:2e:e9:d1:f7:
                    9f:b7:e7:40:87:cb:36:cb:e5:79:28:19:13:60:9c:
                    b9:97:b3:ae:c9:fb:04:1a:4d:16:7f:f8:dc:43:ef:
                    5b:ed:87:e4:dd:a2:33:10:ef:e9:da:30:d5:c7:f4:
                    c6:1c:d3:19:79:ba:fb:b1:67:3b:3d:60:05:33:72:
                    4a:a9:6b:94:8e:ad:8b:e9:2d:67:8b:a1:b6:64:17:
                    cf:fe:e9:61:72:50:90:74:38:96:93:b2:2e:d8:b5:
                    a0:a6:b3:6f:c2:fe:26:ae:fe:40:3b:aa:0a:44:3d:
                    28:f4:b4:00:65:b8:8b:53:c3:a1:81:4c:f8:69:af:
                    19:0a:37:af:32:44:6a:d4:5e:fe:cd:d1:a6:33:7d:
                    d0:1f:2a:4e:d5:c3:b4:99:09:65:14:b8:9d:4f:b5:
                    6c:92:1f:27:d5:69:41:1e:57:23:dc:61:a2:eb:f8:
                    69:97
                Exponent: 65537 (0x10001)
        X509v3 extensions:
            X509v3 Subject Key Identifier: 
                F9:6A:A4:AE:0B:C2:82:45:DD:38:2F:9C:DB:B1:D3:CB:46:36:81:18
            X509v3 Authority Key Identifier: 
                97:6E:F5:B1:38:A0:FA:55:28:0D:D5:CC:E2:C3:41:F9:6F:F7:2E:57
            X509v3 Basic Constraints: 
                CA:FALSE
            X509v3 Key Usage: 
                Digital Signature, Key Encipherment
            Netscape Cert Type: 
                ...
    Signature Algorithm: sha256WithRSAEncryption
    Signature Value:
        0f:a8:5d:3c:19:7a:97:05:c0:7a:a7:03:2b:ad:b8:43:19:41:
        2d:24:6b:ad:5c:e2:42:84:f4:39:95:2d:8c:c5:35:52:a6:b8:
        34:58:04:6b:0e:c3:50:61:ba:31:e5:7f:e3:19:cf:a2:fb:c6:
        a4:90:b0:d2:f2:3d:8b:04:7b:5b:69:9b:67:35:ea:f7:71:0c:
        b9:8e:49:f2:34:fb:cb:28:5f:47:32:93:a0:8b:a2:d4:7c:f0:
        ab:bb:53:8f:71:69:01:28:d3:6e:c1:6e:67:7f:e2:75:a3:17:
        6f:b9:7f:4c:15:5c:7a:cf:93:04:22:dc:7c:15:93:50:2b:09:
        a8:86:34:5c:16:76:bd:13:bd:53:24:55:04:5b:98:47:cb:bf:
        fa:17:8d:34:fe:f7:9c:1b:7c:71:05:2a:6f:be:e5:d0:bc:5a:
        0a:a4:41:b0:20:ae:c7:a6:22:97:7e:e6:dd:63:c7:5b:a9:e5:
        3a:a2:2a:18:5a:ea:5c:5b:3a:9c:d2:76:7b:32:55:2a:75:56:
        fb:be:5f:81:65:e1:7e:d7:5d:cc:a3:99:ab:46:af:5d:68:2a:
        3b:e7:d8:01:50:14:30:4e:39:69:06:4b:bc:bf:61:e0:af:e5:
        3d:fc:b7:28:ba:a9:c7:87:12:e3:12:c2:52:d7:4c:01:f5:fd:
        0a:77:41:11:be:af:ef:0e:c1:76:6f:88:42:55:f2:83:ea:4a:
        98:e5:d5:8c:6c:2c:c6:fe:e7:9a:0e:a5:e2:df:72:9d:fe:3b:
        e0:32:33:a6:f0:56:06:f9:e0:ca:3f:7f:f7:11:67:38:33:68:
        8d:37:c0:8f:4f:2a:99:3c:bf:c0:44:90:24:34:54:1d:92:54:
        d4:41:ae:bc:23:59:17:6a:10:40:2a:6a:c2:40:a1:9e:58:8a:
        80:10:6f:55:fd:4d:78:21:54:ba:ef:a9:36:4e:c2:94:ed:b0:
        02:55:87:7b:65:66:3a:34:35:b8:06:ec:24:21:85:14:3e:f7:
        0f:99:5e:e5:18:e5:0d:94:48:31:28:df:a8:26:b7:e5:f6:8f:
        a5:d5:e5:56:54:c2:a3:c3:f3:85:38:e1:ad:0c:39:d8:e0:2f:
        d5:9c:e2:b3:c6:dc:ed:24:47:b8:97:4d:e2:fc:58:75:44:22:
        05:99:ad:a5:0b:95:51:be:34:59:26:e0:87:4d:16:07:fe:08:
        83:90:84:f0:c7:9c:a4:20:93:dc:44:69:2d:aa:f8:b0:9a:ea:
        11:78:17:cb:89:d1:65:ec:67:26:70:e9:e7:b1:a0:e9:5d:2b:
        13:4d:16:fd:c1:e4:b0:c0:6e:8b:81:f9:dc:b2:0c:ae:32:66:
        c4:23:04:7a:f2:7c:4a:1d
-----BEGIN CERTIFICATE-----
MIIEXjCCAkagAwIBAgIBLjANBgkqhkiG9w0BAQsFADBGMQswCQYDVQQGEwJDQTEN
MAsGA1UECgwEU0VMRjENMAsGA1UECwwEU0VMRjEZMBcGA1UEAwwQU0VMRiBJREVO
VElUWSBDQTAgFw0yNDA5MDkxMTQyNDlaGA8yMTI0MDgxNjExNDI0OVowLzELMAkG
A1UEBhMCQ0ExETAPBgNVBAoMCG1iZWQgVExTMQ0wCwYDVQQDDARDZXJ0MIIBIjAN
BgkqhkiG9w0BAQEFAAOCAQ8AMIIBCgKCAQEA1VSS/gKy3zIhWyzyMfIdK3AE11Cl
hkjt7lZyDl0XiaXYe/WlU5yERmzTndULj8xjm2cnPhlGNCxDvZcA/UirWFofTXyH
Dt/qY/lT7s6SSCYs/meSZC7p0feft+dAh8s2y+V5KBkTYJy5l7OuyfsEGk0Wf/jc
Q+9b7Yfk3aIzEO/p2jDVx/TGHNMZebr7sWc7PWAFM3JKqWuUjq2L6S1ni6G2ZBfP
/ulhclCQdDiWk7Iu2LWgprNvwv4mrv5AO6oKRD0o9LQAZbiLU8OhgUz4aa8ZCjev
MkRq1F7+zdGmM33QHypO1cO0mQllFLidT7Vskh8n1WlBHlcj3GGi6/hplwIDAQAB
o2wwajAdBgNVHQ4EFgQU+WqkrgvCgkXdOC+c27HTy0Y2gRgwHwYDVR0jBBgwFoAU
l271sTig+lUoDdXM4sNB+W/3LlcwCQYDVR0TBAIwADALBgNVHQ8EBAMCBaAwEAYJ
YIZIAYb4QgEBBAMDAQAwDQYJKoZIhvcNAQELBQADggIBAA+oXTwZepcFwHqnAyut
uEMZQS0ka61c4kKE9DmVLYzFNVKmuDRYBGsOw1BhujHlf+MZz6L7xqSQsNLyPYsE
e1tpm2c16vdxDLmOSfI0+8soX0cyk6CLotR88Ku7U49xaQEo027Bbmd/4nWjF2+5
f0wVXHrPkwQi3HwVk1ArCaiGNFwWdr0TvVMkVQRbmEfLv/oXjTT+95wbfHEFKm++
5dC8WgqkQbAgrsemIpd+5t1jx1up5TqiKhha6lxbOpzSdnsyVSp1Vvu+X4Fl4X7X
XcyjmatGr11oKjvn2AFQFDBOOWkGS7y/YeCv5T38tyi6qceHEuMSwlLXTAH1/Qp3
QRG+r+8OwXZviEJV8oPqSpjl1YxsLMb+55oOpeLfcp3+O+AyM6bwVgb54Mo/f/cR
ZzgzaI03wI9PKpk8v8BEkCQ0VB2SVNRBrrwjWRdqEEAqasJAoZ5YioAQb1X9TXgh
VLrvqTZOwpTtsAJVh3tlZjo0NbgG7CQhhRQ+9w+ZXuUY5Q2USDEo36gmt+X2j6XV
5VZUwqPD84U44a0MOdjgL9Wc4rPG3O0kR7iXTeL8WHVEIgWZraULlVG+NFkm4IdN
Fgf+CIOQhPDHnKQgk9xEaS2q+LCa6hF4F8uJ0WXsZyZw6eexoOldKxNNFv3B5LDA
bouB+dyyDK4yZsQjBHryfEod
-----END CERTIFICATE-----
