Certificate:
    Data:
        Version: 3 (0x2)
        Serial Number: 47 (0x2f)
        Signature Algorithm: sha256WithRSAEncryption
        Issuer: C=CA, O=SELF, OU=SELF, CN=SELF IDENTITY CA
        Validity
            Not Before: Sep  9 11:46:31 2024 GMT
            Not After : Aug 16 11:46:31 2124 GMT
        Subject: C=CA, O=mbed TLS, CN=Cert
        Subject Public Key Info:
            Public Key Algorithm: rsaEncryption
                Public-Key: (2048 bit)
                Modulus:
                    00:d5:54:92:fe:02:b2:df:32:21:5b:2c:f2:31:f2:
                    1d:2b:70:04:d7:50:a5:86:48:ed:ee:56:72:0e:5d:
                    17:89:a5:d8:7b:f5:a5:53:9c:84:46:6c:d3:9d:d5:
                    0b:8f:cc:63:9b:67:27:3e:19:46:34:2c:43:bd:97:
                    00:fd:48:ab:58:5a:1f:4d:7c:87:0e:df:ea:63:f9:
                    53:ee:ce:92:48:26:2c:fe:67:92:64:2e:e9:d1:f7:
                    9f:b7:e7:40:87:cb:36:cb:e5:79:28:19:13:60:9c:
                    b9:97:b3:ae:c9:fb:04:1a:4d:16:7f:f8:dc:43:ef:
                    5b:ed:87:e4:dd:a2:33:10:ef:e9:da:30:d5:c7:f4:
                    c6:1c:d3:19:79:ba:fb:b1:67:3b:3d:60:05:33:72:
                    4a:a9:6b:94:8e:ad:8b:e9:2d:67:8b:a1:b6:64:17:
                    cf:fe:e9:61:72:50:90:74:38:96:93:b2:2e:d8:b5:
                    a0:a6:b3:6f:c2:fe:26:ae:fe:40:3b:aa:0a:44:3d:
                    28:f4:b4:00:65:b8:8b:53:c3:a1:81:4c:f8:69:af:
                    19:0a:37:af:32:44:6a:d4:5e:fe:cd:d1:a6:33:7d:
                    d0:1f:2a:4e:d5:c3:b4:99:09:65:14:b8:9d:4f:b5:
                    6c:92:1f:27:d5:69:41:1e:57:23:dc:61:a2:eb:f8:
                    69:97
                Exponent: 65537 (0x10001)
        X509v3 extensions:
            X509v3 Subject Key Identifier: 
                F9:6A:A4:AE:0B:C2:82:45:DD:38:2F:9C:DB:B1:D3:CB:46:36:81:18
            X509v3 Authority Key Identifier: 
                97:6E:F5:B1:38:A0:FA:55:28:0D:D5:CC:E2:C3:41:F9:6F:F7:2E:57
            X509v3 Basic Constraints: 
                CA:FALSE
            X509v3 Key Usage: 
                Digital Signature, Key Encipherment
            Netscape Cert Type: 
                ...
    Signature Algorithm: sha256WithRSAEncryption
    Signature Value:
        7c:6d:c9:b6:e9:a5:7b:3e:d8:ad:18:26:2c:e4:90:91:22:a9:
        7b:26:26:06:d3:7f:43:6c:cd:70:53:06:7a:fc:36:b1:eb:26:
        25:fc:3e:84:38:18:c0:d9:18:ed:cc:49:2c:f1:ca:a0:df:eb:
        cf:3e:3e:6c:1a:1e:a7:a9:74:49:0b:33:c7:6a:f7:2e:84:b1:
        a1:56:c8:67:08:0c:75:a6:3b:96:c1:66:f6:45:a4:bb:55:20:
        eb:0f:ca:ca:12:2f:41:22:77:0a:f6:8c:17:01:7a:0a:ab:bc:
        a5:1a:98:ea:be:b6:16:20:0a:47:13:9e:d9:69:a1:f0:7a:15:
        11:61:fd:78:58:dd:91:24:c4:64:80:6f:c0:b9:b6:d3:ad:78:
        da:d1:3b:92:7a:2c:5d:fe:e0:25:0b:65:7b:8a:3b:28:30:b8:
        61:5d:a6:a8:10:a6:4f:16:8a:74:97:f8:ae:87:58:33:65:36:
        14:72:1d:b4:5c:30:84:b3:2a:dd:ec:c3:43:fc:ea:b9:a4:89:
        f5:0f:23:29:39:5d:f2:a3:db:e5:70:12:03:82:41:7b:27:f9:
        ae:c4:af:ab:3f:e5:de:56:f2:b5:b6:a2:46:f9:25:92:33:99:
        7c:1b:09:33:fb:c7:e0:d5:40:d4:75:ec:d6:dd:9f:45:f8:61:
        30:ca:17:15:16:b1:db:19:61:f2:f5:a3:98:d1:fd:3a:93:2c:
        34:82:ff:d1:d6:fb:1e:80:87:dc:ef:8b:68:fc:47:f5:a6:64:
        b6:b4:c3:d3:06:a4:35:5f:1b:0c:f7:34:0a:ab:fb:df:c7:76:
        d1:cc:5d:be:7e:7f:e2:6f:9d:3e:ee:e9:d9:b1:bc:92:e1:34:
        93:d7:32:f2:86:b5:dd:da:86:9f:9d:8a:a7:8a:e2:11:b4:8a:
        5c:6a:7b:15:78:91:74:2a:fc:2d:f8:04:23:1e:31:cc:87:58:
        3e:40:2a:01:c2:14:3c:ce:8b:45:d2:a6:a0:34:ac:6c:7b:ae:
        39:f2:d8:ce:82:a5:27:4e:bc:74:3d:93:9e:42:26:36:41:ab:
        0b:87:06:6d:57:e6:c7:ae:1b:f5:a9:5a:3c:40:87:0b:83:92:
        c8:bb:a1:b6:59:d7:28:a1:61:3b:4b:c8:d9:fb:55:c8:dc:5d:
        4c:b4:7b:07:6f:a4:c4:2a:76:cb:5d:fc:d3:07:85:a2:20:a8:
        9c:a7:7b:04:71:35:7b:49:cd:1b:c0:9c:e9:30:3e:af:0c:12:
        a4:5a:37:27:e8:62:fb:9e:71:c3:b3:77:c7:bf:95:e6:11:f5:
        91:00:7b:d0:0a:02:1a:15:79:86:41:6a:d7:fa:eb:51:e6:7c:
        76:08:63:4f:dd:99:b2:74
-----BEGIN CERTIFICATE-----
MIIEXjCCAkagAwIBAgIBLzANBgkqhkiG9w0BAQsFADBGMQswCQYDVQQGEwJDQTEN
MAsGA1UECgwEU0VMRjENMAsGA1UECwwEU0VMRjEZMBcGA1UEAwwQU0VMRiBJREVO
VElUWSBDQTAgFw0yNDA5MDkxMTQ2MzFaGA8yMTI0MDgxNjExNDYzMVowLzELMAkG
A1UEBhMCQ0ExETAPBgNVBAoMCG1iZWQgVExTMQ0wCwYDVQQDDARDZXJ0MIIBIjAN
BgkqhkiG9w0BAQEFAAOCAQ8AMIIBCgKCAQEA1VSS/gKy3zIhWyzyMfIdK3AE11Cl
hkjt7lZyDl0XiaXYe/WlU5yERmzTndULj8xjm2cnPhlGNCxDvZcA/UirWFofTXyH
Dt/qY/lT7s6SSCYs/meSZC7p0feft+dAh8s2y+V5KBkTYJy5l7OuyfsEGk0Wf/jc
Q+9b7Yfk3aIzEO/p2jDVx/TGHNMZebr7sWc7PWAFM3JKqWuUjq2L6S1ni6G2ZBfP
/ulhclCQdDiWk7Iu2LWgprNvwv4mrv5AO6oKRD0o9LQAZbiLU8OhgUz4aa8ZCjev
MkRq1F7+zdGmM33QHypO1cO0mQllFLidT7Vskh8n1WlBHlcj3GGi6/hplwIDAQAB
o2wwajAdBgNVHQ4EFgQU+WqkrgvCgkXdOC+c27HTy0Y2gRgwHwYDVR0jBBgwFoAU
l271sTig+lUoDdXM4sNB+W/3LlcwCQYDVR0TBAIwADALBgNVHQ8EBAMCBaAwEAYJ
YIZIAYb4QgEBBAMDAQAwDQYJKoZIhvcNAQELBQADggIBAHxtybbppXs+2K0YJizk
kJEiqXsmJgbTf0NszXBTBnr8NrHrJiX8PoQ4GMDZGO3MSSzxyqDf688+PmwaHqep
dEkLM8dq9y6EsaFWyGcIDHWmO5bBZvZFpLtVIOsPysoSL0Eidwr2jBcBegqrvKUa
mOq+thYgCkcTntlpofB6FRFh/XhY3ZEkxGSAb8C5ttOteNrRO5J6LF3+4CULZXuK
OygwuGFdpqgQpk8WinSX+K6HWDNlNhRyHbRcMISzKt3sw0P86rmkifUPIyk5XfKj
2+VwEgOCQXsn+a7Er6s/5d5W8rW2okb5JZIzmXwbCTP7x+DVQNR17Nbdn0X4YTDK
FxUWsdsZYfL1o5jR/TqTLDSC/9HW+x6Ah9zvi2j8R/WmZLa0w9MGpDVfGwz3NAqr
+9/HdtHMXb5+f+JvnT7u6dmxvJLhNJPXMvKGtd3ahp+diqeK4hG0ilxqexV4kXQq
/C34BCMeMcyHWD5AKgHCFDzOi0XSpqA0rGx7rjny2M6CpSdOvHQ9k55CJjZBqwuH
Bm1X5seuG/WpWjxAhwuDksi7obZZ1yihYTtLyNn7VcjcXUy0ewdvpMQqdstd/NMH
haIgqJynewRxNXtJzRvAnOkwPq8MEqRaNyfoYvueccOzd8e/leYR9ZEAe9AKAhoV
eYZBatf661HmfHYIY0/dmbJ0
-----END CERTIFICATE-----
