Certificate:
    Data:
        Version: 3 (0x2)
        Serial Number: 48 (0x30)
        Signature Algorithm: sha256WithRSAEncryption
        Issuer: C=CA, O=SELF, OU=SELF, CN=SELF IDENTITY CA
        Validity
            Not Before: Sep  9 11:47:49 2024 GMT
            Not After : Aug 16 11:47:49 2124 GMT
        Subject: C=CA, O=mbed TLS, CN=Cert
        Subject Public Key Info:
            Public Key Algorithm: rsaEncryption
                Public-Key: (2048 bit)
                Modulus:
                    00:d5:54:92:fe:02:b2:df:32:21:5b:2c:f2:31:f2:
                    1d:2b:70:04:d7:50:a5:86:48:ed:ee:56:72:0e:5d:
                    17:89:a5:d8:7b:f5:a5:53:9c:84:46:6c:d3:9d:d5:
                    0b:8f:cc:63:9b:67:27:3e:19:46:34:2c:43:bd:97:
                    00:fd:48:ab:58:5a:1f:4d:7c:87:0e:df:ea:63:f9:
                    53:ee:ce:92:48:26:2c:fe:67:92:64:2e:e9:d1:f7:
                    9f:b7:e7:40:87:cb:36:cb:e5:79:28:19:13:60:9c:
                    b9:97:b3:ae:c9:fb:04:1a:4d:16:7f:f8:dc:43:ef:
                    5b:ed:87:e4:dd:a2:33:10:ef:e9:da:30:d5:c7:f4:
                    c6:1c:d3:19:79:ba:fb:b1:67:3b:3d:60:05:33:72:
                    4a:a9:6b:94:8e:ad:8b:e9:2d:67:8b:a1:b6:64:17:
                    cf:fe:e9:61:72:50:90:74:38:96:93:b2:2e:d8:b5:
                    a0:a6:b3:6f:c2:fe:26:ae:fe:40:3b:aa:0a:44:3d:
                    28:f4:b4:00:65:b8:8b:53:c3:a1:81:4c:f8:69:af:
                    19:0a:37:af:32:44:6a:d4:5e:fe:cd:d1:a6:33:7d:
                    d0:1f:2a:4e:d5:c3:b4:99:09:65:14:b8:9d:4f:b5:
                    6c:92:1f:27:d5:69:41:1e:57:23:dc:61:a2:eb:f8:
                    69:97
                Exponent: 65537 (0x10001)
        X509v3 extensions:
            X509v3 Subject Key Identifier: 
                F9:6A:A4:AE:0B:C2:82:45:DD:38:2F:9C:DB:B1:D3:CB:46:36:81:18
            X509v3 Authority Key Identifier: 
                97:6E:F5:B1:38:A0:FA:55:28:0D:D5:CC:E2:C3:41:F9:6F:F7:2E:57
            X509v3 Basic Constraints: 
                CA:FALSE
            X509v3 Key Usage: 
                Digital Signature, Key Encipherment
            Netscape Cert Type: 
                ...
    Signature Algorithm: sha256WithRSAEncryption
    Signature Value:
        8d:4d:61:1e:5b:73:f5:2f:63:46:32:ba:ca:3d:8f:31:01:b0:
        3e:22:6f:6b:8a:64:31:b8:69:fe:62:69:b4:31:d5:3e:ba:fe:
        e6:9e:fa:eb:bf:42:7f:94:c7:bb:1c:39:82:e0:00:47:f3:5c:
        fd:51:67:ec:a7:87:94:d3:16:02:b0:1d:79:7f:79:e7:0a:99:
        9a:e9:2d:d1:de:f3:be:be:2e:3d:4c:31:9e:0c:c9:e2:0e:c1:
        c8:77:ce:36:2c:fc:08:48:9e:09:a9:06:03:cb:22:de:31:fc:
        b2:57:2f:49:85:f7:77:3b:5b:63:66:e7:14:7d:8a:e3:15:c1:
        3b:8e:0e:96:58:f7:46:34:31:35:18:b8:05:96:04:e5:dd:88:
        67:83:b0:d4:16:59:ac:7d:12:23:1c:22:ce:bd:c4:99:c0:51:
        65:fa:b3:c1:68:cb:52:0c:12:d6:4c:7a:92:a5:ac:94:9f:b4:
        79:04:3c:41:4a:08:37:4b:3c:42:f5:8b:6d:bb:5f:6c:89:92:
        76:6c:06:60:9b:7b:12:a1:a5:ba:20:35:9e:06:cd:4b:f6:3b:
        4d:6c:88:0f:6a:98:79:3d:a1:29:99:bc:d0:f4:3f:b7:84:cf:
        af:ce:5e:0f:c1:79:a4:7a:62:1e:81:a9:7c:da:1d:3a:33:4b:
        68:5e:32:2a:c6:7d:7e:e5:d4:e9:63:ac:e6:12:4f:47:6c:4d:
        23:2c:92:5f:65:32:13:24:f7:f4:13:09:ea:bc:ab:9e:d8:0f:
        68:ad:d3:b1:30:13:98:49:e2:ab:03:9d:34:e2:ae:1c:3d:0b:
        7f:e8:ae:5f:96:2e:28:cf:bb:f1:84:f3:13:35:5f:14:0c:15:
        cc:15:f8:cc:8e:20:f3:7f:e6:ab:6c:6d:b7:18:f8:fc:56:10:
        7a:07:b5:1a:c7:23:56:11:80:02:7e:25:6d:b7:d9:a9:34:b4:
        45:09:e5:30:36:0c:fd:d0:8a:b4:78:f6:8d:e2:06:8c:b7:e2:
        ac:12:8d:c9:f2:12:ce:54:20:f4:a4:58:4a:54:f7:3b:8f:ce:
        fa:59:9f:af:56:fa:75:58:5e:14:e6:41:62:0c:c8:10:ec:94:
        ba:a6:4a:54:f3:66:99:76:97:c2:cf:84:5e:26:41:a0:98:ce:
        66:4a:0e:e2:57:fe:b1:10:9b:7b:3f:75:ae:df:42:b9:ff:bd:
        eb:4f:12:b1:4b:03:8e:9c:13:13:8c:fa:1b:9b:e9:47:cb:f5:
        1b:c5:6c:b0:ce:de:3a:de:d4:89:fd:57:0a:b2:03:b6:ac:50:
        89:7c:0c:14:e9:5e:ea:aa:09:2b:f0:f4:3d:50:7a:23:ee:5b:
        d1:fc:df:d9:6e:82:a0:91
-----BEGIN CERTIFICATE-----
MIIEXjCCAkagAwIBAgIBMDANBgkqhkiG9w0BAQsFADBGMQswCQYDVQQGEwJDQTEN
MAsGA1UECgwEU0VMRjENMAsGA1UECwwEU0VMRjEZMBcGA1UEAwwQU0VMRiBJREVO
VElUWSBDQTAgFw0yNDA5MDkxMTQ3NDlaGA8yMTI0MDgxNjExNDc0OVowLzELMAkG
A1UEBhMCQ0ExETAPBgNVBAoMCG1iZWQgVExTMQ0wCwYDVQQDDARDZXJ0MIIBIjAN
BgkqhkiG9w0BAQEFAAOCAQ8AMIIBCgKCAQEA1VSS/gKy3zIhWyzyMfIdK3AE11Cl
hkjt7lZyDl0XiaXYe/WlU5yERmzTndULj8xjm2cnPhlGNCxDvZcA/UirWFofTXyH
Dt/qY/lT7s6SSCYs/meSZC7p0feft+dAh8s2y+V5KBkTYJy5l7OuyfsEGk0Wf/jc
Q+9b7Yfk3aIzEO/p2jDVx/TGHNMZebr7sWc7PWAFM3JKqWuUjq2L6S1ni6G2ZBfP
/ulhclCQdDiWk7Iu2LWgprNvwv4mrv5AO6oKRD0o9LQAZbiLU8OhgUz4aa8ZCjev
MkRq1F7+zdGmM33QHypO1cO0mQllFLidT7Vskh8n1WlBHlcj3GGi6/hplwIDAQAB
o2wwajAdBgNVHQ4EFgQU+WqkrgvCgkXdOC+c27HTy0Y2gRgwHwYDVR0jBBgwFoAU
l271sTig+lUoDdXM4sNB+W/3LlcwCQYDVR0TBAIwADALBgNVHQ8EBAMCBaAwEAYJ
YIZIAYb4QgEBBAMDAQAwDQYJKoZIhvcNAQELBQADggIBAI1NYR5bc/UvY0Yyuso9
jzEBsD4ib2uKZDG4af5iabQx1T66/uae+uu/Qn+Ux7scOYLgAEfzXP1RZ+ynh5TT
FgKwHXl/eecKmZrpLdHe876+Lj1MMZ4MyeIOwch3zjYs/AhIngmpBgPLIt4x/LJX
L0mF93c7W2Nm5xR9iuMVwTuODpZY90Y0MTUYuAWWBOXdiGeDsNQWWax9EiMcIs69
xJnAUWX6s8Foy1IMEtZMepKlrJSftHkEPEFKCDdLPEL1i227X2yJknZsBmCbexKh
pbogNZ4GzUv2O01siA9qmHk9oSmZvND0P7eEz6/OXg/BeaR6Yh6BqXzaHTozS2he
MirGfX7l1OljrOYST0dsTSMskl9lMhMk9/QTCeq8q57YD2it07EwE5hJ4qsDnTTi
rhw9C3/orl+WLijPu/GE8xM1XxQMFcwV+MyOIPN/5qtsbbcY+PxWEHoHtRrHI1YR
gAJ+JW232ak0tEUJ5TA2DP3QirR49o3iBoy34qwSjcnyEs5UIPSkWEpU9zuPzvpZ
n69W+nVYXhTmQWIMyBDslLqmSlTzZpl2l8LPhF4mQaCYzmZKDuJX/rEQm3s/da7f
Qrn/vetPErFLA46cExOM+hub6UfL9RvFbLDO3jre1In9VwqyA7asUIl8DBTpXuqq
CSvw9D1QeiPuW9H839lugqCR
-----END CERTIFICATE-----
