Certificate:
    Data:
        Version: 3 (0x2)
        Serial Number: 49 (0x31)
        Signature Algorithm: sha256WithRSAEncryption
        Issuer: C=CA, O=SELF, OU=SELF, CN=SELF IDENTITY CA
        Validity
            Not Before: Sep  9 11:48:18 2024 GMT
            Not After : Aug 16 11:48:18 2124 GMT
        Subject: C=CA, O=mbed TLS, CN=Cert
        Subject Public Key Info:
            Public Key Algorithm: rsaEncryption
                Public-Key: (2048 bit)
                Modulus:
                    00:d5:54:92:fe:02:b2:df:32:21:5b:2c:f2:31:f2:
                    1d:2b:70:04:d7:50:a5:86:48:ed:ee:56:72:0e:5d:
                    17:89:a5:d8:7b:f5:a5:53:9c:84:46:6c:d3:9d:d5:
                    0b:8f:cc:63:9b:67:27:3e:19:46:34:2c:43:bd:97:
                    00:fd:48:ab:58:5a:1f:4d:7c:87:0e:df:ea:63:f9:
                    53:ee:ce:92:48:26:2c:fe:67:92:64:2e:e9:d1:f7:
                    9f:b7:e7:40:87:cb:36:cb:e5:79:28:19:13:60:9c:
                    b9:97:b3:ae:c9:fb:04:1a:4d:16:7f:f8:dc:43:ef:
                    5b:ed:87:e4:dd:a2:33:10:ef:e9:da:30:d5:c7:f4:
                    c6:1c:d3:19:79:ba:fb:b1:67:3b:3d:60:05:33:72:
                    4a:a9:6b:94:8e:ad:8b:e9:2d:67:8b:a1:b6:64:17:
                    cf:fe:e9:61:72:50:90:74:38:96:93:b2:2e:d8:b5:
                    a0:a6:b3:6f:c2:fe:26:ae:fe:40:3b:aa:0a:44:3d:
                    28:f4:b4:00:65:b8:8b:53:c3:a1:81:4c:f8:69:af:
                    19:0a:37:af:32:44:6a:d4:5e:fe:cd:d1:a6:33:7d:
                    d0:1f:2a:4e:d5:c3:b4:99:09:65:14:b8:9d:4f:b5:
                    6c:92:1f:27:d5:69:41:1e:57:23:dc:61:a2:eb:f8:
                    69:97
                Exponent: 65537 (0x10001)
        X509v3 extensions:
            X509v3 Subject Key Identifier: 
                F9:6A:A4:AE:0B:C2:82:45:DD:38:2F:9C:DB:B1:D3:CB:46:36:81:18
            X509v3 Authority Key Identifier: 
                97:6E:F5:B1:38:A0:FA:55:28:0D:D5:CC:E2:C3:41:F9:6F:F7:2E:57
            X509v3 Basic Constraints: 
                CA:FALSE
            X509v3 Key Usage: 
                Digital Signature, Key Encipherment
            Netscape Cert Type: 
                ...
    Signature Algorithm: sha256WithRSAEncryption
    Signature Value:
        14:ba:06:c4:ab:75:3c:89:58:c1:0d:ca:af:f9:6c:eb:a3:0c:
        5c:52:a0:e6:e1:7d:b1:dc:a8:77:3a:91:07:e8:78:e6:c7:4e:
        fd:d0:0a:ef:df:54:8e:c6:a1:3a:2d:01:c7:3f:79:f9:5c:c7:
        e6:99:a8:86:9e:cc:31:fd:aa:56:ac:80:f5:dc:d3:41:89:47:
        b2:d9:4f:88:1a:bb:4f:28:cb:15:a9:8d:ac:d7:da:30:ae:72:
        93:00:9a:9f:e2:20:74:6c:93:7e:92:11:00:f1:26:05:af:d1:
        4b:b7:78:06:f7:07:c2:91:fc:bf:aa:16:db:f7:c0:22:48:28:
        19:18:e1:61:dc:b2:5c:31:66:06:31:c6:55:52:ff:35:10:72:
        3b:ed:17:a5:b9:7c:c7:73:ef:fa:5f:13:55:aa:e6:fe:45:9c:
        4f:f8:6d:14:e2:4b:68:c8:2a:39:30:d1:93:f0:7d:35:6e:da:
        ea:52:57:c4:fb:ce:ea:a3:c2:3d:03:90:3a:8f:61:45:e7:fa:
        a3:7c:f3:c1:11:33:72:b3:28:50:11:5f:75:7c:8d:5f:2e:b8:
        7d:83:14:20:ff:28:57:1c:fe:a2:e3:0e:84:7e:6d:f9:d4:ce:
        2e:53:e8:8c:d0:1a:f0:7e:0e:04:6e:e4:03:bd:40:6f:a3:1f:
        0a:8e:4e:4e:3b:34:a6:ee:ea:13:9b:13:b6:32:62:8c:3d:98:
        bc:de:bb:d2:24:21:77:2b:ab:1c:92:23:59:11:f3:3c:1d:4d:
        5c:d4:96:79:38:88:e9:10:bf:ba:5a:74:11:05:de:8e:8e:c3:
        7f:6a:b7:cb:4b:d7:f9:c3:5d:87:76:f6:2c:16:3c:e4:7f:c5:
        4a:9c:2f:bb:b3:fe:04:82:13:37:ce:c3:b2:02:77:1a:9a:c9:
        62:09:3b:d3:5e:ae:44:a8:85:61:d8:dd:2f:af:b0:48:d8:2f:
        b6:38:c5:0c:20:59:aa:fd:ec:aa:00:31:77:32:7b:fe:60:68:
        59:dc:34:c2:4a:3d:8b:91:0f:86:a6:a1:f3:0d:96:3b:50:bf:
        61:c2:26:a7:3d:f4:26:7b:cf:29:4a:71:49:38:5f:bd:8f:ef:
        66:cd:93:4e:89:a5:b3:b9:cf:3a:8b:7d:61:2f:71:e7:9a:35:
        93:12:1c:2d:ab:9f:7b:d4:13:25:67:37:b4:6d:7a:a9:45:fe:
        d6:20:cf:54:38:af:15:5b:da:5b:ce:5d:9f:b8:d5:8e:2e:b1:
        b0:b1:61:23:2d:85:1e:2a:e0:20:f7:7d:2c:f1:4f:e0:80:e8:
        6b:ed:17:78:27:9c:94:8b:1d:32:6f:6f:dc:1d:43:db:0a:59:
        4d:ac:5c:39:a4:4a:e9:57
-----BEGIN CERTIFICATE-----
MIIEXjCCAkagAwIBAgIBMTANBgkqhkiG9w0BAQsFADBGMQswCQYDVQQGEwJDQTEN
MAsGA1UECgwEU0VMRjENMAsGA1UECwwEU0VMRjEZMBcGA1UEAwwQU0VMRiBJREVO
VElUWSBDQTAgFw0yNDA5MDkxMTQ4MThaGA8yMTI0MDgxNjExNDgxOFowLzELMAkG
A1UEBhMCQ0ExETAPBgNVBAoMCG1iZWQgVExTMQ0wCwYDVQQDDARDZXJ0MIIBIjAN
BgkqhkiG9w0BAQEFAAOCAQ8AMIIBCgKCAQEA1VSS/gKy3zIhWyzyMfIdK3AE11Cl
hkjt7lZyDl0XiaXYe/WlU5yERmzTndULj8xjm2cnPhlGNCxDvZcA/UirWFofTXyH
Dt/qY/lT7s6SSCYs/meSZC7p0feft+dAh8s2y+V5KBkTYJy5l7OuyfsEGk0Wf/jc
Q+9b7Yfk3aIzEO/p2jDVx/TGHNMZebr7sWc7PWAFM3JKqWuUjq2L6S1ni6G2ZBfP
/ulhclCQdDiWk7Iu2LWgprNvwv4mrv5AO6oKRD0o9LQAZbiLU8OhgUz4aa8ZCjev
MkRq1F7+zdGmM33QHypO1cO0mQllFLidT7Vskh8n1WlBHlcj3GGi6/hplwIDAQAB
o2wwajAdBgNVHQ4EFgQU+WqkrgvCgkXdOC+c27HTy0Y2gRgwHwYDVR0jBBgwFoAU
l271sTig+lUoDdXM4sNB+W/3LlcwCQYDVR0TBAIwADALBgNVHQ8EBAMCBaAwEAYJ
YIZIAYb4QgEBBAMDAQAwDQYJKoZIhvcNAQELBQADggIBABS6BsSrdTyJWMENyq/5
bOujDFxSoObhfbHcqHc6kQfoeObHTv3QCu/fVI7GoTotAcc/eflcx+aZqIaezDH9
qlasgPXc00GJR7LZT4gau08oyxWpjazX2jCucpMAmp/iIHRsk36SEQDxJgWv0Uu3
eAb3B8KR/L+qFtv3wCJIKBkY4WHcslwxZgYxxlVS/zUQcjvtF6W5fMdz7/pfE1Wq
5v5FnE/4bRTiS2jIKjkw0ZPwfTVu2upSV8T7zuqjwj0DkDqPYUXn+qN888ERM3Kz
KFARX3V8jV8uuH2DFCD/KFcc/qLjDoR+bfnUzi5T6IzQGvB+DgRu5AO9QG+jHwqO
Tk47NKbu6hObE7YyYow9mLzeu9IkIXcrqxySI1kR8zwdTVzUlnk4iOkQv7padBEF
3o6Ow39qt8tL1/nDXYd29iwWPOR/xUqcL7uz/gSCEzfOw7ICdxqayWIJO9NerkSo
hWHY3S+vsEjYL7Y4xQwgWar97KoAMXcye/5gaFncNMJKPYuRD4amofMNljtQv2HC
Jqc99CZ7zylKcUk4X72P72bNk06JpbO5zzqLfWEvceeaNZMSHC2rn3vUEyVnN7Rt
eqlF/tYgz1Q4rxVb2lvOXZ+41Y4usbCxYSMthR4q4CD3fSzxT+CA6GvtF3gnnJSL
HTJvb9wdQ9sKWU2sXDmkSulX
-----END CERTIFICATE-----
