Certificate:
    Data:
        Version: 3 (0x2)
        Serial Number: 50 (0x32)
        Signature Algorithm: sha256WithRSAEncryption
        Issuer: C=CA, O=SELF, OU=SELF, CN=SELF IDENTITY CA
        Validity
            Not Before: Sep  9 11:49:11 2024 GMT
            Not After : Aug 16 11:49:11 2124 GMT
        Subject: C=CA, O=mbed TLS, CN=Cert
        Subject Public Key Info:
            Public Key Algorithm: rsaEncryption
                Public-Key: (2048 bit)
                Modulus:
                    00:d5:54:92:fe:02:b2:df:32:21:5b:2c:f2:31:f2:
                    1d:2b:70:04:d7:50:a5:86:48:ed:ee:56:72:0e:5d:
                    17:89:a5:d8:7b:f5:a5:53:9c:84:46:6c:d3:9d:d5:
                    0b:8f:cc:63:9b:67:27:3e:19:46:34:2c:43:bd:97:
                    00:fd:48:ab:58:5a:1f:4d:7c:87:0e:df:ea:63:f9:
                    53:ee:ce:92:48:26:2c:fe:67:92:64:2e:e9:d1:f7:
                    9f:b7:e7:40:87:cb:36:cb:e5:79:28:19:13:60:9c:
                    b9:97:b3:ae:c9:fb:04:1a:4d:16:7f:f8:dc:43:ef:
                    5b:ed:87:e4:dd:a2:33:10:ef:e9:da:30:d5:c7:f4:
                    c6:1c:d3:19:79:ba:fb:b1:67:3b:3d:60:05:33:72:
                    4a:a9:6b:94:8e:ad:8b:e9:2d:67:8b:a1:b6:64:17:
                    cf:fe:e9:61:72:50:90:74:38:96:93:b2:2e:d8:b5:
                    a0:a6:b3:6f:c2:fe:26:ae:fe:40:3b:aa:0a:44:3d:
                    28:f4:b4:00:65:b8:8b:53:c3:a1:81:4c:f8:69:af:
                    19:0a:37:af:32:44:6a:d4:5e:fe:cd:d1:a6:33:7d:
                    d0:1f:2a:4e:d5:c3:b4:99:09:65:14:b8:9d:4f:b5:
                    6c:92:1f:27:d5:69:41:1e:57:23:dc:61:a2:eb:f8:
                    69:97
                Exponent: 65537 (0x10001)
        X509v3 extensions:
            X509v3 Subject Key Identifier: 
                F9:6A:A4:AE:0B:C2:82:45:DD:38:2F:9C:DB:B1:D3:CB:46:36:81:18
            X509v3 Authority Key Identifier: 
                97:6E:F5:B1:38:A0:FA:55:28:0D:D5:CC:E2:C3:41:F9:6F:F7:2E:57
            X509v3 Basic Constraints: 
                CA:FALSE
            X509v3 Key Usage: 
                Digital Signature, Key Encipherment
            Netscape Cert Type: 
                ...
    Signature Algorithm: sha256WithRSAEncryption
    Signature Value:
        4d:a6:6d:41:21:c5:4c:83:ad:7e:8c:a8:b6:88:77:b8:31:b7:
        59:97:ed:c8:bd:9a:13:50:01:b3:44:49:28:15:fe:cf:77:02:
        a7:0f:7e:32:b7:3f:86:d4:2f:b7:42:93:96:4c:f4:a4:45:04:
        31:2d:ad:4f:a7:28:1c:a4:40:52:f8:99:9c:55:fe:4e:58:a2:
        ad:4c:59:8b:59:3e:e1:14:5c:16:49:d4:ba:4f:36:1e:02:3f:
        62:86:08:02:2a:1c:d8:d4:ab:29:d7:b1:9d:f7:57:49:0a:e0:
        7a:ae:ab:e4:92:f3:3c:73:a0:6e:6d:3d:b5:6f:9c:41:02:21:
        9e:e4:2e:41:16:82:f2:47:e6:44:e6:70:ce:05:11:7e:ed:2e:
        51:d5:a6:12:0d:67:2b:c5:ca:70:49:47:4f:71:9f:36:03:af:
        a9:1d:90:e6:2e:56:2f:50:78:43:24:7b:44:68:2f:f5:47:c7:
        b0:af:fe:3b:0c:a4:fc:eb:6a:30:6b:fb:68:b8:4d:3b:fd:9e:
        ae:a5:c4:92:8e:d3:93:b6:4f:77:75:08:ef:d3:4d:a7:2e:8c:
        d8:bb:03:be:55:e9:4f:47:1e:90:53:2a:69:3e:a5:8e:2d:49:
        63:91:c6:fd:6f:2f:50:da:26:8d:62:50:ee:7d:3a:c4:ba:c1:
        f1:44:b6:d2:5c:82:5e:2b:70:88:8e:72:79:e1:94:92:61:b9:
        d7:b1:c7:d1:91:0d:28:95:0d:b9:1d:c1:90:1d:c6:21:a8:c4:
        9d:8b:0b:77:fb:5e:73:83:23:5d:95:a9:87:54:b0:05:71:7b:
        80:74:50:a7:65:c7:e4:cc:10:83:59:2d:c4:04:c5:7a:12:6b:
        84:31:e5:f1:9e:22:f1:05:db:5c:ee:c0:77:97:95:ae:87:a2:
        0f:bc:ec:b1:6a:4e:6b:4a:76:bd:ff:68:0d:67:57:37:2d:51:
        84:af:61:d9:f9:50:36:6d:73:ff:c0:cb:4d:ee:bb:45:9b:78:
        3e:39:e3:1a:66:a2:12:e7:8a:dc:53:e8:3c:50:67:b1:c3:ba:
        24:37:87:5b:2f:5a:73:2f:c2:70:c7:d1:7f:52:d5:ff:b5:e3:
        5e:cf:0f:3e:5a:a2:3b:81:1b:ff:bd:0e:4b:18:d6:23:4e:bd:
        65:8f:fc:49:cb:3b:88:f7:3c:18:fd:be:25:cf:54:bc:1c:12:
        b5:b4:40:56:d6:f8:65:06:9c:2b:66:18:b3:00:5a:4e:19:42:
        19:97:21:55:2a:95:a5:ae:75:45:fc:50:a2:fb:c5:2c:90:11:
        bb:48:29:dc:1d:b8:e5:4a:c7:97:53:d1:38:03:7d:8f:f5:5f:
        54:43:1a:30:1b:6b:fb:b7
-----BEGIN CERTIFICATE-----
MIIEXjCCAkagAwIBAgIBMjANBgkqhkiG9w0BAQsFADBGMQswCQYDVQQGEwJDQTEN
MAsGA1UECgwEU0VMRjENMAsGA1UECwwEU0VMRjEZMBcGA1UEAwwQU0VMRiBJREVO
VElUWSBDQTAgFw0yNDA5MDkxMTQ5MTFaGA8yMTI0MDgxNjExNDkxMVowLzELMAkG
A1UEBhMCQ0ExETAPBgNVBAoMCG1iZWQgVExTMQ0wCwYDVQQDDARDZXJ0MIIBIjAN
BgkqhkiG9w0BAQEFAAOCAQ8AMIIBCgKCAQEA1VSS/gKy3zIhWyzyMfIdK3AE11Cl
hkjt7lZyDl0XiaXYe/WlU5yERmzTndULj8xjm2cnPhlGNCxDvZcA/UirWFofTXyH
Dt/qY/lT7s6SSCYs/meSZC7p0feft+dAh8s2y+V5KBkTYJy5l7OuyfsEGk0Wf/jc
Q+9b7Yfk3aIzEO/p2jDVx/TGHNMZebr7sWc7PWAFM3JKqWuUjq2L6S1ni6G2ZBfP
/ulhclCQdDiWk7Iu2LWgprNvwv4mrv5AO6oKRD0o9LQAZbiLU8OhgUz4aa8ZCjev
MkRq1F7+zdGmM33QHypO1cO0mQllFLidT7Vskh8n1WlBHlcj3GGi6/hplwIDAQAB
o2wwajAdBgNVHQ4EFgQU+WqkrgvCgkXdOC+c27HTy0Y2gRgwHwYDVR0jBBgwFoAU
l271sTig+lUoDdXM4sNB+W/3LlcwCQYDVR0TBAIwADALBgNVHQ8EBAMCBaAwEAYJ
YIZIAYb4QgEBBAMDAQAwDQYJKoZIhvcNAQELBQADggIBAE2mbUEhxUyDrX6MqLaI
d7gxt1mX7ci9mhNQAbNESSgV/s93AqcPfjK3P4bUL7dCk5ZM9KRFBDEtrU+nKByk
QFL4mZxV/k5Yoq1MWYtZPuEUXBZJ1LpPNh4CP2KGCAIqHNjUqynXsZ33V0kK4Hqu
q+SS8zxzoG5tPbVvnEECIZ7kLkEWgvJH5kTmcM4FEX7tLlHVphINZyvFynBJR09x
nzYDr6kdkOYuVi9QeEMke0RoL/VHx7Cv/jsMpPzrajBr+2i4TTv9nq6lxJKO05O2
T3d1CO/TTacujNi7A75V6U9HHpBTKmk+pY4tSWORxv1vL1DaJo1iUO59OsS6wfFE
ttJcgl4rcIiOcnnhlJJhudexx9GRDSiVDbkdwZAdxiGoxJ2LC3f7XnODI12VqYdU
sAVxe4B0UKdlx+TMEINZLcQExXoSa4Qx5fGeIvEF21zuwHeXla6Hog+87LFqTmtK
dr3/aA1nVzctUYSvYdn5UDZtc//Ay03uu0WbeD454xpmohLnitxT6DxQZ7HDuiQ3
h1svWnMvwnDH0X9S1f+1417PDz5aojuBG/+9DksY1iNOvWWP/EnLO4j3PBj9viXP
VLwcErW0QFbW+GUGnCtmGLMAWk4ZQhmXIVUqlaWudUX8UKL7xSyQEbtIKdwduOVK
x5dT0TgDfY/1X1RDGjAba/u3
-----END CERTIFICATE-----
