Certificate:
    Data:
        Version: 3 (0x2)
        Serial Number: 51 (0x33)
        Signature Algorithm: sha256WithRSAEncryption
        Issuer: C=CA, O=SELF, OU=SELF, CN=SELF IDENTITY CA
        Validity
            Not Before: Sep  9 11:50:18 2024 GMT
            Not After : Aug 16 11:50:18 2124 GMT
        Subject: C=CA, O=mbed TLS, CN=Cert
        Subject Public Key Info:
            Public Key Algorithm: rsaEncryption
                Public-Key: (2048 bit)
                Modulus:
                    00:d5:54:92:fe:02:b2:df:32:21:5b:2c:f2:31:f2:
                    1d:2b:70:04:d7:50:a5:86:48:ed:ee:56:72:0e:5d:
                    17:89:a5:d8:7b:f5:a5:53:9c:84:46:6c:d3:9d:d5:
                    0b:8f:cc:63:9b:67:27:3e:19:46:34:2c:43:bd:97:
                    00:fd:48:ab:58:5a:1f:4d:7c:87:0e:df:ea:63:f9:
                    53:ee:ce:92:48:26:2c:fe:67:92:64:2e:e9:d1:f7:
                    9f:b7:e7:40:87:cb:36:cb:e5:79:28:19:13:60:9c:
                    b9:97:b3:ae:c9:fb:04:1a:4d:16:7f:f8:dc:43:ef:
                    5b:ed:87:e4:dd:a2:33:10:ef:e9:da:30:d5:c7:f4:
                    c6:1c:d3:19:79:ba:fb:b1:67:3b:3d:60:05:33:72:
                    4a:a9:6b:94:8e:ad:8b:e9:2d:67:8b:a1:b6:64:17:
                    cf:fe:e9:61:72:50:90:74:38:96:93:b2:2e:d8:b5:
                    a0:a6:b3:6f:c2:fe:26:ae:fe:40:3b:aa:0a:44:3d:
                    28:f4:b4:00:65:b8:8b:53:c3:a1:81:4c:f8:69:af:
                    19:0a:37:af:32:44:6a:d4:5e:fe:cd:d1:a6:33:7d:
                    d0:1f:2a:4e:d5:c3:b4:99:09:65:14:b8:9d:4f:b5:
                    6c:92:1f:27:d5:69:41:1e:57:23:dc:61:a2:eb:f8:
                    69:97
                Exponent: 65537 (0x10001)
        X509v3 extensions:
            X509v3 Subject Key Identifier: 
                F9:6A:A4:AE:0B:C2:82:45:DD:38:2F:9C:DB:B1:D3:CB:46:36:81:18
            X509v3 Authority Key Identifier: 
                97:6E:F5:B1:38:A0:FA:55:28:0D:D5:CC:E2:C3:41:F9:6F:F7:2E:57
            X509v3 Basic Constraints: 
                CA:FALSE
            X509v3 Key Usage: 
                Digital Signature, Key Encipherment
            Netscape Cert Type: 
                ...
    Signature Algorithm: sha256WithRSAEncryption
    Signature Value:
        00:8b:2a:6f:04:bb:02:91:9a:24:78:99:3f:17:95:c5:e5:73:
        89:8c:ae:56:7d:7a:67:23:9c:33:b6:f6:53:1e:15:c2:91:8a:
        f2:a9:ab:d8:f5:f2:d2:aa:fc:6a:36:60:59:8d:46:33:26:f6:
        f8:62:55:5b:78:85:f6:95:d7:17:5b:7a:06:bd:89:48:cf:87:
        fc:a5:a6:ed:08:0c:c7:e8:cb:2e:d6:23:ae:5c:92:21:70:d5:
        f6:ff:f0:6e:8d:7a:e8:ea:2e:04:df:7c:9e:c2:58:99:f4:48:
        e2:05:86:c6:08:cb:e6:91:ba:4d:14:3d:3a:5f:69:cd:46:21:
        3e:08:e4:65:20:0f:4e:97:25:f1:b2:20:c4:9a:13:de:9b:ec:
        b0:f4:36:2f:b9:03:bb:5e:09:57:30:49:df:cf:36:57:13:11:
        df:4b:e7:89:4b:f3:71:9b:e3:99:07:b1:2e:9d:ef:9c:b7:db:
        ab:ee:a8:ed:8e:1a:e7:65:ae:28:21:d1:5d:b8:16:28:b1:9e:
        4d:90:65:cf:64:bf:f0:af:95:f3:df:a4:77:be:5e:1a:09:0d:
        ab:43:e9:08:3e:79:c8:f4:41:d9:2d:bd:82:8d:11:1a:59:93:
        51:1a:f4:91:0d:03:1e:89:ce:b8:a6:54:c9:3f:e0:42:08:29:
        96:0f:1b:51:2d:94:ca:96:6a:98:63:15:11:1f:0a:d4:cc:84:
        d8:ba:70:e0:66:09:55:64:86:f6:e5:57:1f:ea:56:f2:a5:6f:
        40:b5:10:5b:3a:80:a4:39:3f:5d:50:23:82:ea:1f:7f:64:13:
        ca:4a:5e:da:5a:c4:0a:66:4f:db:e3:41:8c:d5:63:f9:25:33:
        46:da:9f:d4:6f:54:d1:3b:cd:12:b8:f6:01:07:84:0d:63:91:
        86:4a:46:08:ec:73:ed:4e:7b:85:7f:41:2b:91:78:fe:01:1c:
        58:f5:aa:f8:a8:f1:fc:60:18:aa:b1:66:9c:d8:53:3a:2f:b8:
        a8:a7:fd:bc:dc:74:42:fa:49:0b:83:43:62:87:13:90:52:8e:
        d0:42:a6:df:97:0a:f7:31:01:06:33:ec:b5:cf:3b:8b:6e:f2:
        78:45:ed:cb:13:4b:f9:d9:cf:8d:47:fc:5e:3f:35:fc:31:36:
        ce:b3:73:fb:a9:06:e0:3b:e6:1b:32:2a:48:20:fc:49:b7:ba:
        6b:d0:8c:39:3a:7a:17:40:61:7f:29:db:bf:aa:cd:65:5b:9e:
        8a:6b:f2:ca:f2:79:d7:73:af:f8:0a:9f:93:48:54:d3:45:6c:
        4c:94:30:8d:0f:a3:59:74:c2:78:2b:bb:7a:89:85:aa:81:2b:
        fd:3a:e8:d1:ed:4e:cc:2f
-----BEGIN CERTIFICATE-----
MIIEXjCCAkagAwIBAgIBMzANBgkqhkiG9w0BAQsFADBGMQswCQYDVQQGEwJDQTEN
MAsGA1UECgwEU0VMRjENMAsGA1UECwwEU0VMRjEZMBcGA1UEAwwQU0VMRiBJREVO
VElUWSBDQTAgFw0yNDA5MDkxMTUwMThaGA8yMTI0MDgxNjExNTAxOFowLzELMAkG
A1UEBhMCQ0ExETAPBgNVBAoMCG1iZWQgVExTMQ0wCwYDVQQDDARDZXJ0MIIBIjAN
BgkqhkiG9w0BAQEFAAOCAQ8AMIIBCgKCAQEA1VSS/gKy3zIhWyzyMfIdK3AE11Cl
hkjt7lZyDl0XiaXYe/WlU5yERmzTndULj8xjm2cnPhlGNCxDvZcA/UirWFofTXyH
Dt/qY/lT7s6SSCYs/meSZC7p0feft+dAh8s2y+V5KBkTYJy5l7OuyfsEGk0Wf/jc
Q+9b7Yfk3aIzEO/p2jDVx/TGHNMZebr7sWc7PWAFM3JKqWuUjq2L6S1ni6G2ZBfP
/ulhclCQdDiWk7Iu2LWgprNvwv4mrv5AO6oKRD0o9LQAZbiLU8OhgUz4aa8ZCjev
MkRq1F7+zdGmM33QHypO1cO0mQllFLidT7Vskh8n1WlBHlcj3GGi6/hplwIDAQAB
o2wwajAdBgNVHQ4EFgQU+WqkrgvCgkXdOC+c27HTy0Y2gRgwHwYDVR0jBBgwFoAU
l271sTig+lUoDdXM4sNB+W/3LlcwCQYDVR0TBAIwADALBgNVHQ8EBAMCBaAwEAYJ
YIZIAYb4QgEBBAMDAQAwDQYJKoZIhvcNAQELBQADggIBAACLKm8EuwKRmiR4mT8X
lcXlc4mMrlZ9emcjnDO29lMeFcKRivKpq9j18tKq/Go2YFmNRjMm9vhiVVt4hfaV
1xdbega9iUjPh/ylpu0IDMfoyy7WI65ckiFw1fb/8G6NeujqLgTffJ7CWJn0SOIF
hsYIy+aRuk0UPTpfac1GIT4I5GUgD06XJfGyIMSaE96b7LD0Ni+5A7teCVcwSd/P
NlcTEd9L54lL83Gb45kHsS6d75y326vuqO2OGudlrigh0V24Fiixnk2QZc9kv/Cv
lfPfpHe+XhoJDatD6Qg+ecj0QdktvYKNERpZk1Ea9JENAx6JzrimVMk/4EIIKZYP
G1EtlMqWaphjFREfCtTMhNi6cOBmCVVkhvblVx/qVvKlb0C1EFs6gKQ5P11QI4Lq
H39kE8pKXtpaxApmT9vjQYzVY/klM0ban9RvVNE7zRK49gEHhA1jkYZKRgjsc+1O
e4V/QSuReP4BHFj1qvio8fxgGKqxZpzYUzovuKin/bzcdEL6SQuDQ2KHE5BSjtBC
pt+XCvcxAQYz7LXPO4tu8nhF7csTS/nZz41H/F4/NfwxNs6zc/upBuA75hsyKkgg
/Em3umvQjDk6ehdAYX8p27+qzWVbnopr8sryeddzr/gKn5NIVNNFbEyUMI0Po1l0
wngru3qJhaqBK/066NHtTswv
-----END CERTIFICATE-----
