Certificate:
    Data:
        Version: 3 (0x2)
        Serial Number: 52 (0x34)
        Signature Algorithm: sha256WithRSAEncryption
        Issuer: C=CA, O=SELF, OU=SELF, CN=SELF IDENTITY CA
        Validity
            Not Before: Sep  9 11:51:26 2024 GMT
            Not After : Aug 16 11:51:26 2124 GMT
        Subject: C=CA, O=mbed TLS, CN=Cert
        Subject Public Key Info:
            Public Key Algorithm: rsaEncryption
                Public-Key: (2048 bit)
                Modulus:
                    00:d5:54:92:fe:02:b2:df:32:21:5b:2c:f2:31:f2:
                    1d:2b:70:04:d7:50:a5:86:48:ed:ee:56:72:0e:5d:
                    17:89:a5:d8:7b:f5:a5:53:9c:84:46:6c:d3:9d:d5:
                    0b:8f:cc:63:9b:67:27:3e:19:46:34:2c:43:bd:97:
                    00:fd:48:ab:58:5a:1f:4d:7c:87:0e:df:ea:63:f9:
                    53:ee:ce:92:48:26:2c:fe:67:92:64:2e:e9:d1:f7:
                    9f:b7:e7:40:87:cb:36:cb:e5:79:28:19:13:60:9c:
                    b9:97:b3:ae:c9:fb:04:1a:4d:16:7f:f8:dc:43:ef:
                    5b:ed:87:e4:dd:a2:33:10:ef:e9:da:30:d5:c7:f4:
                    c6:1c:d3:19:79:ba:fb:b1:67:3b:3d:60:05:33:72:
                    4a:a9:6b:94:8e:ad:8b:e9:2d:67:8b:a1:b6:64:17:
                    cf:fe:e9:61:72:50:90:74:38:96:93:b2:2e:d8:b5:
                    a0:a6:b3:6f:c2:fe:26:ae:fe:40:3b:aa:0a:44:3d:
                    28:f4:b4:00:65:b8:8b:53:c3:a1:81:4c:f8:69:af:
                    19:0a:37:af:32:44:6a:d4:5e:fe:cd:d1:a6:33:7d:
                    d0:1f:2a:4e:d5:c3:b4:99:09:65:14:b8:9d:4f:b5:
                    6c:92:1f:27:d5:69:41:1e:57:23:dc:61:a2:eb:f8:
                    69:97
                Exponent: 65537 (0x10001)
        X509v3 extensions:
            X509v3 Subject Key Identifier: 
                F9:6A:A4:AE:0B:C2:82:45:DD:38:2F:9C:DB:B1:D3:CB:46:36:81:18
            X509v3 Authority Key Identifier: 
                97:6E:F5:B1:38:A0:FA:55:28:0D:D5:CC:E2:C3:41:F9:6F:F7:2E:57
            X509v3 Basic Constraints: 
                CA:FALSE
            X509v3 Key Usage: 
                Digital Signature, Key Encipherment
            Netscape Cert Type: 
                ...
    Signature Algorithm: sha256WithRSAEncryption
    Signature Value:
        88:71:ec:c4:2a:65:13:e7:a8:c5:b4:86:be:02:90:97:d5:a3:
        d8:fd:8b:03:14:6a:f7:89:a5:9c:84:8e:a5:b7:86:38:4d:c9:
        5d:cc:e6:cb:65:2e:1d:94:40:ff:c7:cb:af:0e:4a:9d:79:5a:
        84:c7:97:56:5d:10:98:c6:bd:de:0a:32:45:41:52:2c:d8:f1:
        1f:73:32:82:3d:15:b2:a6:7b:26:f8:73:43:97:b6:25:2e:58:
        ca:ee:43:4e:67:2b:cc:83:68:96:c9:45:12:4c:e2:7e:c0:be:
        b5:d9:36:02:95:82:1f:86:98:93:7c:26:05:0d:3a:45:bc:65:
        01:92:16:b3:81:22:97:f9:9a:10:cf:82:e3:25:81:99:e9:64:
        79:7a:50:cd:5a:24:08:17:3c:17:57:8f:3a:d1:cc:2c:9d:45:
        19:22:63:79:82:14:33:1d:b0:9a:b8:f2:ea:c6:1a:32:c3:cc:
        b9:db:a7:c7:0f:ce:5a:1b:4f:c7:b6:a7:cd:d2:f6:5f:83:ee:
        fc:06:1f:27:f7:69:2b:69:d9:b2:8b:bf:e3:78:df:b7:33:4c:
        87:bc:f4:dc:47:30:33:70:62:48:ed:c9:07:d2:84:ba:7a:fa:
        09:22:f7:c1:16:f0:e1:37:84:e8:9c:5a:9f:8f:af:8a:6e:89:
        4d:73:09:56:89:b0:92:7b:af:8b:e9:45:b8:c9:33:d0:60:88:
        1f:cc:36:c2:c6:32:fe:e5:62:67:cc:4e:52:d9:ad:bf:cd:db:
        6a:ff:4e:85:44:af:73:b9:67:b7:3e:fb:31:1d:4f:43:93:6c:
        bc:39:a9:cd:d9:ea:ce:d6:a5:68:7e:5c:bb:e4:ba:a7:fd:32:
        53:a7:c6:34:34:1d:cb:28:e8:5e:06:e2:c4:8e:f7:3d:ea:7d:
        c8:fa:a8:05:af:fb:8b:3c:33:e0:28:63:63:f7:07:80:91:03:
        bf:06:d6:f1:b7:60:87:82:89:9e:8e:de:db:19:0e:f8:6b:d5:
        8b:8a:9e:61:fc:5d:55:d9:ef:c4:ae:74:fd:49:02:32:c0:4d:
        fa:8b:af:39:0c:14:ac:1c:96:3b:3d:c2:33:e8:c5:bc:7f:16:
        fb:87:59:b5:02:52:bd:65:7b:27:4a:1b:c0:62:ac:57:4a:fc:
        82:1c:96:e6:4d:14:a4:dd:47:b9:36:a0:35:44:13:18:36:ca:
        27:7d:06:71:17:22:fb:e7:d8:a3:02:46:48:f6:04:4b:d7:26:
        f8:74:8f:8d:29:31:d1:a3:19:60:12:79:86:e1:54:53:fb:51:
        b6:7d:41:ef:f5:71:6a:ab:4f:cc:b4:c9:b6:16:0b:d9:8b:9f:
        3f:d5:db:0d:14:f2:00:00
-----BEGIN CERTIFICATE-----
MIIEXjCCAkagAwIBAgIBNDANBgkqhkiG9w0BAQsFADBGMQswCQYDVQQGEwJDQTEN
MAsGA1UECgwEU0VMRjENMAsGA1UECwwEU0VMRjEZMBcGA1UEAwwQU0VMRiBJREVO
VElUWSBDQTAgFw0yNDA5MDkxMTUxMjZaGA8yMTI0MDgxNjExNTEyNlowLzELMAkG
A1UEBhMCQ0ExETAPBgNVBAoMCG1iZWQgVExTMQ0wCwYDVQQDDARDZXJ0MIIBIjAN
BgkqhkiG9w0BAQEFAAOCAQ8AMIIBCgKCAQEA1VSS/gKy3zIhWyzyMfIdK3AE11Cl
hkjt7lZyDl0XiaXYe/WlU5yERmzTndULj8xjm2cnPhlGNCxDvZcA/UirWFofTXyH
Dt/qY/lT7s6SSCYs/meSZC7p0feft+dAh8s2y+V5KBkTYJy5l7OuyfsEGk0Wf/jc
Q+9b7Yfk3aIzEO/p2jDVx/TGHNMZebr7sWc7PWAFM3JKqWuUjq2L6S1ni6G2ZBfP
/ulhclCQdDiWk7Iu2LWgprNvwv4mrv5AO6oKRD0o9LQAZbiLU8OhgUz4aa8ZCjev
MkRq1F7+zdGmM33QHypO1cO0mQllFLidT7Vskh8n1WlBHlcj3GGi6/hplwIDAQAB
o2wwajAdBgNVHQ4EFgQU+WqkrgvCgkXdOC+c27HTy0Y2gRgwHwYDVR0jBBgwFoAU
l271sTig+lUoDdXM4sNB+W/3LlcwCQYDVR0TBAIwADALBgNVHQ8EBAMCBaAwEAYJ
YIZIAYb4QgEBBAMDAQAwDQYJKoZIhvcNAQELBQADggIBAIhx7MQqZRPnqMW0hr4C
kJfVo9j9iwMUaveJpZyEjqW3hjhNyV3M5stlLh2UQP/Hy68OSp15WoTHl1ZdEJjG
vd4KMkVBUizY8R9zMoI9FbKmeyb4c0OXtiUuWMruQ05nK8yDaJbJRRJM4n7AvrXZ
NgKVgh+GmJN8JgUNOkW8ZQGSFrOBIpf5mhDPguMlgZnpZHl6UM1aJAgXPBdXjzrR
zCydRRkiY3mCFDMdsJq48urGGjLDzLnbp8cPzlobT8e2p83S9l+D7vwGHyf3aStp
2bKLv+N437czTIe89NxHMDNwYkjtyQfShLp6+gki98EW8OE3hOicWp+Pr4puiU1z
CVaJsJJ7r4vpRbjJM9BgiB/MNsLGMv7lYmfMTlLZrb/N22r/ToVEr3O5Z7c++zEd
T0OTbLw5qc3Z6s7WpWh+XLvkuqf9MlOnxjQ0Hcso6F4G4sSO9z3qfcj6qAWv+4s8
M+AoY2P3B4CRA78G1vG3YIeCiZ6O3tsZDvhr1YuKnmH8XVXZ78SudP1JAjLATfqL
rzkMFKwcljs9wjPoxbx/FvuHWbUCUr1leydKG8BirFdK/IIcluZNFKTdR7k2oDVE
Exg2yid9BnEXIvvn2KMCRkj2BEvXJvh0j40pMdGjGWASeYbhVFP7UbZ9Qe/1cWqr
T8y0ybYWC9mLnz/V2w0U8gAA
-----END CERTIFICATE-----
