Certificate:
    Data:
        Version: 3 (0x2)
        Serial Number: 53 (0x35)
        Signature Algorithm: sha256WithRSAEncryption
        Issuer: C=CA, O=SELF, OU=SELF, CN=SELF IDENTITY CA
        Validity
            Not Before: Sep  9 11:52:42 2024 GMT
            Not After : Aug 16 11:52:42 2124 GMT
        Subject: C=CA, O=mbed TLS, CN=Cert
        Subject Public Key Info:
            Public Key Algorithm: rsaEncryption
                Public-Key: (2048 bit)
                Modulus:
                    00:d5:54:92:fe:02:b2:df:32:21:5b:2c:f2:31:f2:
                    1d:2b:70:04:d7:50:a5:86:48:ed:ee:56:72:0e:5d:
                    17:89:a5:d8:7b:f5:a5:53:9c:84:46:6c:d3:9d:d5:
                    0b:8f:cc:63:9b:67:27:3e:19:46:34:2c:43:bd:97:
                    00:fd:48:ab:58:5a:1f:4d:7c:87:0e:df:ea:63:f9:
                    53:ee:ce:92:48:26:2c:fe:67:92:64:2e:e9:d1:f7:
                    9f:b7:e7:40:87:cb:36:cb:e5:79:28:19:13:60:9c:
                    b9:97:b3:ae:c9:fb:04:1a:4d:16:7f:f8:dc:43:ef:
                    5b:ed:87:e4:dd:a2:33:10:ef:e9:da:30:d5:c7:f4:
                    c6:1c:d3:19:79:ba:fb:b1:67:3b:3d:60:05:33:72:
                    4a:a9:6b:94:8e:ad:8b:e9:2d:67:8b:a1:b6:64:17:
                    cf:fe:e9:61:72:50:90:74:38:96:93:b2:2e:d8:b5:
                    a0:a6:b3:6f:c2:fe:26:ae:fe:40:3b:aa:0a:44:3d:
                    28:f4:b4:00:65:b8:8b:53:c3:a1:81:4c:f8:69:af:
                    19:0a:37:af:32:44:6a:d4:5e:fe:cd:d1:a6:33:7d:
                    d0:1f:2a:4e:d5:c3:b4:99:09:65:14:b8:9d:4f:b5:
                    6c:92:1f:27:d5:69:41:1e:57:23:dc:61:a2:eb:f8:
                    69:97
                Exponent: 65537 (0x10001)
        X509v3 extensions:
            X509v3 Subject Key Identifier: 
                F9:6A:A4:AE:0B:C2:82:45:DD:38:2F:9C:DB:B1:D3:CB:46:36:81:18
            X509v3 Authority Key Identifier: 
                97:6E:F5:B1:38:A0:FA:55:28:0D:D5:CC:E2:C3:41:F9:6F:F7:2E:57
            X509v3 Basic Constraints: 
                CA:FALSE
            X509v3 Key Usage: 
                Digital Signature, Key Encipherment
            Netscape Cert Type: 
                ...
    Signature Algorithm: sha256WithRSAEncryption
    Signature Value:
        21:0d:c7:3b:43:9e:b8:48:7d:74:84:b6:84:87:6d:da:b1:54:
        e4:4f:33:3b:dc:b3:d7:16:53:22:c6:5b:8a:08:cb:fc:9f:67:
        e2:4e:59:8e:00:1e:41:49:10:db:21:a1:46:24:c1:6c:ae:1b:
        0b:f2:8c:1f:21:d8:b8:ab:1e:af:ae:36:32:a4:02:73:d3:24:
        43:1e:a9:69:14:c8:87:6b:28:e0:75:69:60:8e:8f:7b:f5:84:
        bf:ac:c5:d6:e0:3c:fd:21:70:e0:28:c4:4b:bf:4b:39:e6:84:
        06:17:09:fd:0e:c6:a5:ab:c7:99:e9:74:f3:bc:a6:1b:f8:58:
        42:e5:95:84:01:f8:05:82:3c:41:a9:45:e0:5c:10:28:75:39:
        7d:b7:2a:23:e2:b5:95:23:85:50:03:37:d9:17:94:6d:e5:3f:
        ef:65:ae:b4:cb:79:e2:ae:cb:3d:45:20:34:fb:55:d5:f1:0d:
        eb:ef:55:91:f8:4f:0a:35:a4:1a:f1:99:98:7b:1f:b1:80:1e:
        e7:02:b1:d5:13:de:91:58:f3:7d:5e:e1:36:3b:79:00:20:ff:
        42:02:11:8e:61:c1:7f:3e:86:83:9b:4f:07:24:3c:2d:3b:00:
        2a:78:44:09:1e:39:86:9a:fd:5c:b7:90:da:76:d6:71:f2:4f:
        62:89:9f:8d:0c:0a:73:ac:0f:32:c6:dd:43:ee:30:bb:19:f7:
        de:ed:94:ba:80:f2:e1:38:ac:d9:b7:e6:17:f9:04:1c:5f:9c:
        22:05:15:6c:b8:46:ae:1a:1a:d1:97:fc:6e:ab:aa:1b:d0:11:
        d9:ab:b2:b3:a9:b2:c1:90:aa:4d:aa:1b:43:40:d1:3a:a5:d1:
        7c:8f:3f:7f:f6:4b:40:e6:55:2a:1d:2b:0d:19:77:cd:ae:21:
        4e:47:e7:f2:94:1d:80:7b:6f:ab:ec:55:72:c5:01:ac:e2:f5:
        ae:97:41:11:f3:b5:bc:8f:d3:2f:fd:e6:7f:04:f8:7d:4f:de:
        d1:fb:37:9a:b1:cf:cb:78:0d:69:aa:c9:87:8c:4b:ea:10:e0:
        16:6b:8d:37:3a:d7:32:9c:c7:a9:fe:b6:40:63:36:ac:6d:1c:
        38:bd:23:1a:e2:1d:29:e6:f9:4d:e2:8d:ef:eb:5d:a0:96:3d:
        51:c8:9d:a9:50:24:5c:65:74:37:1d:9c:88:86:82:ac:32:4d:
        92:4b:ce:de:50:92:2b:6b:06:59:06:fb:d9:88:38:07:ff:c4:
        8b:19:79:de:f9:df:0c:21:c6:89:ee:b6:3d:5c:b9:0e:c7:ce:
        33:76:e2:df:89:9d:78:56:73:52:e6:fb:21:23:89:9b:ed:92:
        42:ee:0a:cc:bd:6d:46:7a
-----BEGIN CERTIFICATE-----
MIIEXjCCAkagAwIBAgIBNTANBgkqhkiG9w0BAQsFADBGMQswCQYDVQQGEwJDQTEN
MAsGA1UECgwEU0VMRjENMAsGA1UECwwEU0VMRjEZMBcGA1UEAwwQU0VMRiBJREVO
VElUWSBDQTAgFw0yNDA5MDkxMTUyNDJaGA8yMTI0MDgxNjExNTI0MlowLzELMAkG
A1UEBhMCQ0ExETAPBgNVBAoMCG1iZWQgVExTMQ0wCwYDVQQDDARDZXJ0MIIBIjAN
BgkqhkiG9w0BAQEFAAOCAQ8AMIIBCgKCAQEA1VSS/gKy3zIhWyzyMfIdK3AE11Cl
hkjt7lZyDl0XiaXYe/WlU5yERmzTndULj8xjm2cnPhlGNCxDvZcA/UirWFofTXyH
Dt/qY/lT7s6SSCYs/meSZC7p0feft+dAh8s2y+V5KBkTYJy5l7OuyfsEGk0Wf/jc
Q+9b7Yfk3aIzEO/p2jDVx/TGHNMZebr7sWc7PWAFM3JKqWuUjq2L6S1ni6G2ZBfP
/ulhclCQdDiWk7Iu2LWgprNvwv4mrv5AO6oKRD0o9LQAZbiLU8OhgUz4aa8ZCjev
MkRq1F7+zdGmM33QHypO1cO0mQllFLidT7Vskh8n1WlBHlcj3GGi6/hplwIDAQAB
o2wwajAdBgNVHQ4EFgQU+WqkrgvCgkXdOC+c27HTy0Y2gRgwHwYDVR0jBBgwFoAU
l271sTig+lUoDdXM4sNB+W/3LlcwCQYDVR0TBAIwADALBgNVHQ8EBAMCBaAwEAYJ
YIZIAYb4QgEBBAMDAQAwDQYJKoZIhvcNAQELBQADggIBACENxztDnrhIfXSEtoSH
bdqxVORPMzvcs9cWUyLGW4oIy/yfZ+JOWY4AHkFJENshoUYkwWyuGwvyjB8h2Lir
Hq+uNjKkAnPTJEMeqWkUyIdrKOB1aWCOj3v1hL+sxdbgPP0hcOAoxEu/SznmhAYX
Cf0OxqWrx5npdPO8phv4WELllYQB+AWCPEGpReBcECh1OX23KiPitZUjhVADN9kX
lG3lP+9lrrTLeeKuyz1FIDT7VdXxDevvVZH4Two1pBrxmZh7H7GAHucCsdUT3pFY
831e4TY7eQAg/0ICEY5hwX8+hoObTwckPC07ACp4RAkeOYaa/Vy3kNp21nHyT2KJ
n40MCnOsDzLG3UPuMLsZ997tlLqA8uE4rNm35hf5BBxfnCIFFWy4Rq4aGtGX/G6r
qhvQEdmrsrOpssGQqk2qG0NA0Tql0XyPP3/2S0DmVSodKw0Zd82uIU5H5/KUHYB7
b6vsVXLFAazi9a6XQRHztbyP0y/95n8E+H1P3tH7N5qxz8t4DWmqyYeMS+oQ4BZr
jTc61zKcx6n+tkBjNqxtHDi9IxriHSnm+U3ije/rXaCWPVHInalQJFxldDcdnIiG
gqwyTZJLzt5QkitrBlkG+9mIOAf/xIsZed753wwhxonutj1cuQ7HzjN24t+JnXhW
c1Lm+yEjiZvtkkLuCsy9bUZ6
-----END CERTIFICATE-----
