Certificate:
    Data:
        Version: 3 (0x2)
        Serial Number: 54 (0x36)
        Signature Algorithm: sha256WithRSAEncryption
        Issuer: C=CA, O=SELF, OU=SELF, CN=SELF IDENTITY CA
        Validity
            Not Before: Sep  9 11:53:39 2024 GMT
            Not After : Aug 16 11:53:39 2124 GMT
        Subject: C=CA, O=mbed TLS, CN=Cert
        Subject Public Key Info:
            Public Key Algorithm: rsaEncryption
                Public-Key: (2048 bit)
                Modulus:
                    00:d5:54:92:fe:02:b2:df:32:21:5b:2c:f2:31:f2:
                    1d:2b:70:04:d7:50:a5:86:48:ed:ee:56:72:0e:5d:
                    17:89:a5:d8:7b:f5:a5:53:9c:84:46:6c:d3:9d:d5:
                    0b:8f:cc:63:9b:67:27:3e:19:46:34:2c:43:bd:97:
                    00:fd:48:ab:58:5a:1f:4d:7c:87:0e:df:ea:63:f9:
                    53:ee:ce:92:48:26:2c:fe:67:92:64:2e:e9:d1:f7:
                    9f:b7:e7:40:87:cb:36:cb:e5:79:28:19:13:60:9c:
                    b9:97:b3:ae:c9:fb:04:1a:4d:16:7f:f8:dc:43:ef:
                    5b:ed:87:e4:dd:a2:33:10:ef:e9:da:30:d5:c7:f4:
                    c6:1c:d3:19:79:ba:fb:b1:67:3b:3d:60:05:33:72:
                    4a:a9:6b:94:8e:ad:8b:e9:2d:67:8b:a1:b6:64:17:
                    cf:fe:e9:61:72:50:90:74:38:96:93:b2:2e:d8:b5:
                    a0:a6:b3:6f:c2:fe:26:ae:fe:40:3b:aa:0a:44:3d:
                    28:f4:b4:00:65:b8:8b:53:c3:a1:81:4c:f8:69:af:
                    19:0a:37:af:32:44:6a:d4:5e:fe:cd:d1:a6:33:7d:
                    d0:1f:2a:4e:d5:c3:b4:99:09:65:14:b8:9d:4f:b5:
                    6c:92:1f:27:d5:69:41:1e:57:23:dc:61:a2:eb:f8:
                    69:97
                Exponent: 65537 (0x10001)
        X509v3 extensions:
            X509v3 Subject Key Identifier: 
                F9:6A:A4:AE:0B:C2:82:45:DD:38:2F:9C:DB:B1:D3:CB:46:36:81:18
            X509v3 Authority Key Identifier: 
                97:6E:F5:B1:38:A0:FA:55:28:0D:D5:CC:E2:C3:41:F9:6F:F7:2E:57
            X509v3 Basic Constraints: 
                CA:FALSE
            X509v3 Key Usage: 
                Digital Signature, Key Encipherment
            Netscape Cert Type: 
                ...
    Signature Algorithm: sha256WithRSAEncryption
    Signature Value:
        05:9d:17:e5:17:ff:e3:0f:36:5f:67:b0:d0:fd:c7:d8:79:ee:
        da:d3:45:47:43:bb:c8:46:e7:7f:6c:93:e0:e6:7c:c3:74:bb:
        3c:0e:29:0d:57:1c:f2:2c:be:d1:a9:22:38:8a:e7:65:6f:3d:
        6a:cd:3a:47:f3:8d:1e:a0:9a:b3:b4:9e:6b:07:6d:d2:ff:a3:
        ca:ce:af:b6:35:32:56:19:ff:80:93:63:31:91:47:9d:de:94:
        ce:6f:ec:14:7e:ab:d7:5e:55:63:16:7e:9a:dd:a8:de:4a:5d:
        6e:86:7b:6b:8a:14:a7:3b:b9:5c:8d:49:27:ac:10:f0:0d:b0:
        ce:c7:b3:38:c5:8f:86:54:5d:61:ed:c0:3f:6b:45:08:8e:c0:
        46:1f:2a:80:f2:15:d2:0c:01:7a:b9:2e:1f:65:9b:aa:dd:0f:
        7d:28:3e:64:ee:a3:b0:80:ee:51:64:0d:f2:bc:6c:9a:de:34:
        43:fe:4e:76:d4:6d:89:d8:3c:ea:c0:7f:88:82:fa:8e:2c:d3:
        b9:9c:a4:0e:e1:d8:ba:7c:94:5c:b4:48:68:b2:fc:58:3e:c0:
        2b:dd:0c:ec:79:e0:93:0f:af:3a:6a:86:f9:c9:f3:d4:b8:64:
        f2:57:40:f6:4b:f2:88:03:56:2c:8a:72:7a:dc:71:e4:70:0d:
        1c:fa:e6:56:2a:cc:b5:68:71:7e:b1:9b:6a:a2:8b:fd:54:d0:
        a8:bc:6b:e9:6d:31:c7:5c:f2:9e:d2:e1:cf:04:9e:51:5f:19:
        88:49:e1:e0:88:33:7a:f9:86:04:d3:3a:4a:22:7c:da:b9:79:
        41:38:43:d6:97:f5:81:d6:7e:9f:86:12:cf:99:da:30:3a:e9:
        6c:ff:b8:47:fe:a1:f9:96:8f:ea:5e:d6:c2:08:e5:22:68:76:
        03:bc:1a:77:6a:ed:49:b8:ba:c9:fe:1d:0f:da:f6:8f:45:82:
        b6:2d:0a:b7:52:c3:27:2a:24:5a:d7:c5:86:be:c9:1b:49:2f:
        97:f4:60:cd:36:04:13:ab:ec:4b:8f:8b:23:6b:15:35:6a:1d:
        46:b6:8d:23:00:bc:e1:b6:02:ac:85:24:95:b4:ff:10:2b:8c:
        83:73:03:d4:6d:30:db:09:93:23:1c:13:b8:98:28:16:35:2c:
        48:7d:71:e9:d1:17:c1:80:ad:d4:b2:b0:69:68:64:c5:f7:12:
        c1:7e:92:b3:8e:c1:41:e8:93:d1:a7:69:ab:66:7b:32:ec:01:
        29:79:d3:22:28:2c:4b:c5:88:52:7e:df:73:ef:e9:42:28:e5:
        6b:f0:26:73:72:dd:e3:5e:47:bd:f2:00:13:31:f5:8f:68:3b:
        8e:c0:3b:c1:d8:13:25:9b
-----BEGIN CERTIFICATE-----
MIIEXjCCAkagAwIBAgIBNjANBgkqhkiG9w0BAQsFADBGMQswCQYDVQQGEwJDQTEN
MAsGA1UECgwEU0VMRjENMAsGA1UECwwEU0VMRjEZMBcGA1UEAwwQU0VMRiBJREVO
VElUWSBDQTAgFw0yNDA5MDkxMTUzMzlaGA8yMTI0MDgxNjExNTMzOVowLzELMAkG
A1UEBhMCQ0ExETAPBgNVBAoMCG1iZWQgVExTMQ0wCwYDVQQDDARDZXJ0MIIBIjAN
BgkqhkiG9w0BAQEFAAOCAQ8AMIIBCgKCAQEA1VSS/gKy3zIhWyzyMfIdK3AE11Cl
hkjt7lZyDl0XiaXYe/WlU5yERmzTndULj8xjm2cnPhlGNCxDvZcA/UirWFofTXyH
Dt/qY/lT7s6SSCYs/meSZC7p0feft+dAh8s2y+V5KBkTYJy5l7OuyfsEGk0Wf/jc
Q+9b7Yfk3aIzEO/p2jDVx/TGHNMZebr7sWc7PWAFM3JKqWuUjq2L6S1ni6G2ZBfP
/ulhclCQdDiWk7Iu2LWgprNvwv4mrv5AO6oKRD0o9LQAZbiLU8OhgUz4aa8ZCjev
MkRq1F7+zdGmM33QHypO1cO0mQllFLidT7Vskh8n1WlBHlcj3GGi6/hplwIDAQAB
o2wwajAdBgNVHQ4EFgQU+WqkrgvCgkXdOC+c27HTy0Y2gRgwHwYDVR0jBBgwFoAU
l271sTig+lUoDdXM4sNB+W/3LlcwCQYDVR0TBAIwADALBgNVHQ8EBAMCBaAwEAYJ
YIZIAYb4QgEBBAMDAQAwDQYJKoZIhvcNAQELBQADggIBAAWdF+UX/+MPNl9nsND9
x9h57trTRUdDu8hG539sk+DmfMN0uzwOKQ1XHPIsvtGpIjiK52VvPWrNOkfzjR6g
mrO0nmsHbdL/o8rOr7Y1MlYZ/4CTYzGRR53elM5v7BR+q9deVWMWfprdqN5KXW6G
e2uKFKc7uVyNSSesEPANsM7HszjFj4ZUXWHtwD9rRQiOwEYfKoDyFdIMAXq5Lh9l
m6rdD30oPmTuo7CA7lFkDfK8bJreNEP+TnbUbYnYPOrAf4iC+o4s07mcpA7h2Lp8
lFy0SGiy/Fg+wCvdDOx54JMPrzpqhvnJ89S4ZPJXQPZL8ogDViyKcnrcceRwDRz6
5lYqzLVocX6xm2qii/1U0Ki8a+ltMcdc8p7S4c8EnlFfGYhJ4eCIM3r5hgTTOkoi
fNq5eUE4Q9aX9YHWfp+GEs+Z2jA66Wz/uEf+ofmWj+pe1sII5SJodgO8Gndq7Um4
usn+HQ/a9o9FgrYtCrdSwycqJFrXxYa+yRtJL5f0YM02BBOr7EuPiyNrFTVqHUa2
jSMAvOG2AqyFJJW0/xArjINzA9RtMNsJkyMcE7iYKBY1LEh9cenRF8GArdSysGlo
ZMX3EsF+krOOwUHok9GnaatmezLsASl50yIoLEvFiFJ+33Pv6UIo5WvwJnNy3eNe
R73yABMx9Y9oO47AO8HYEyWb
-----END CERTIFICATE-----
