Certificate:
    Data:
        Version: 3 (0x2)
        Serial Number: 55 (0x37)
        Signature Algorithm: sha256WithRSAEncryption
        Issuer: C=CA, O=SELF, OU=SELF, CN=SELF IDENTITY CA
        Validity
            Not Before: Sep  9 11:55:26 2024 GMT
            Not After : Aug 16 11:55:26 2124 GMT
        Subject: C=CA, O=mbed TLS, CN=Cert
        Subject Public Key Info:
            Public Key Algorithm: rsaEncryption
                Public-Key: (2048 bit)
                Modulus:
                    00:d5:54:92:fe:02:b2:df:32:21:5b:2c:f2:31:f2:
                    1d:2b:70:04:d7:50:a5:86:48:ed:ee:56:72:0e:5d:
                    17:89:a5:d8:7b:f5:a5:53:9c:84:46:6c:d3:9d:d5:
                    0b:8f:cc:63:9b:67:27:3e:19:46:34:2c:43:bd:97:
                    00:fd:48:ab:58:5a:1f:4d:7c:87:0e:df:ea:63:f9:
                    53:ee:ce:92:48:26:2c:fe:67:92:64:2e:e9:d1:f7:
                    9f:b7:e7:40:87:cb:36:cb:e5:79:28:19:13:60:9c:
                    b9:97:b3:ae:c9:fb:04:1a:4d:16:7f:f8:dc:43:ef:
                    5b:ed:87:e4:dd:a2:33:10:ef:e9:da:30:d5:c7:f4:
                    c6:1c:d3:19:79:ba:fb:b1:67:3b:3d:60:05:33:72:
                    4a:a9:6b:94:8e:ad:8b:e9:2d:67:8b:a1:b6:64:17:
                    cf:fe:e9:61:72:50:90:74:38:96:93:b2:2e:d8:b5:
                    a0:a6:b3:6f:c2:fe:26:ae:fe:40:3b:aa:0a:44:3d:
                    28:f4:b4:00:65:b8:8b:53:c3:a1:81:4c:f8:69:af:
                    19:0a:37:af:32:44:6a:d4:5e:fe:cd:d1:a6:33:7d:
                    d0:1f:2a:4e:d5:c3:b4:99:09:65:14:b8:9d:4f:b5:
                    6c:92:1f:27:d5:69:41:1e:57:23:dc:61:a2:eb:f8:
                    69:97
                Exponent: 65537 (0x10001)
        X509v3 extensions:
            X509v3 Subject Key Identifier: 
                F9:6A:A4:AE:0B:C2:82:45:DD:38:2F:9C:DB:B1:D3:CB:46:36:81:18
            X509v3 Authority Key Identifier: 
                97:6E:F5:B1:38:A0:FA:55:28:0D:D5:CC:E2:C3:41:F9:6F:F7:2E:57
            X509v3 Basic Constraints: 
                CA:FALSE
            X509v3 Key Usage: 
                Digital Signature, Key Encipherment
            Netscape Cert Type: 
                ...
    Signature Algorithm: sha256WithRSAEncryption
    Signature Value:
        68:24:a0:d8:eb:19:9a:24:32:b4:82:b7:da:c2:80:71:0d:89:
        eb:b9:e6:06:02:59:5c:d8:8c:ee:87:04:14:e9:92:83:c1:30:
        0b:b5:e4:c6:f2:08:6c:07:61:e7:09:5c:b0:7a:96:89:d3:19:
        e4:57:e5:52:a7:bd:27:18:3c:61:9b:fa:0d:f6:55:5f:68:83:
        0e:37:32:e8:8b:1c:d4:06:3f:40:a9:fb:60:43:6e:04:d9:93:
        bf:43:dd:e3:4b:2e:3e:54:79:1a:50:68:4b:3c:6d:09:dc:b2:
        36:86:9c:a1:a3:ac:b0:e0:9a:c5:98:74:59:eb:a6:0d:ff:86:
        5c:dd:a5:3e:76:e7:9f:b1:35:d5:c6:8c:66:89:2a:cf:ce:31:
        0b:6d:fe:dc:a8:5a:db:3f:b9:81:79:59:3e:35:d4:1f:96:9f:
        d4:8b:c5:fe:2d:a3:70:64:be:f0:39:b2:62:da:b2:be:a2:70:
        03:ee:e9:ac:d0:86:ca:62:c0:64:e6:d8:38:57:ec:24:d7:f1:
        df:9f:e8:45:b2:72:68:27:fe:0d:67:93:32:d9:d6:b4:43:a9:
        99:3f:21:be:18:41:3c:41:41:90:90:07:0a:d3:51:da:24:9f:
        4c:c9:76:c2:50:68:f5:aa:05:90:71:f2:70:39:a4:f3:08:f3:
        7c:ca:eb:0e:b7:97:08:db:9e:d3:0d:32:8b:d6:a4:b5:d8:6b:
        11:93:05:fb:67:bf:8f:de:c3:3d:d9:6e:3a:d5:21:f1:00:ef:
        f9:ae:a9:8c:4b:ff:af:1b:d2:d3:64:37:7b:f2:04:7b:bf:46:
        55:85:7f:73:7f:97:5a:50:23:a1:2b:38:60:39:13:7c:30:5d:
        79:1b:88:92:8b:db:da:27:e8:91:55:79:37:ae:98:13:57:86:
        4e:d1:34:c0:b6:27:66:81:45:db:3d:6b:e9:d0:ca:db:1e:83:
        15:08:41:c5:95:ec:df:f6:56:39:21:40:35:9d:ad:13:fc:7f:
        3c:f2:11:95:f2:6b:ca:4a:73:f9:56:1d:2f:f9:a0:6c:39:6c:
        2f:5f:21:41:5e:62:61:53:a4:97:fc:67:cc:76:28:69:35:c6:
        b0:f6:07:a9:a8:cd:de:5e:34:13:4e:cc:dd:dd:bb:67:08:a0:
        03:24:d6:2c:92:7e:26:64:29:ea:6f:01:0f:0e:c2:aa:0f:79:
        c6:5b:b2:4c:bd:81:35:9e:bc:b8:e9:89:7a:cc:aa:ec:49:96:
        7e:ac:e2:8b:58:2b:fa:23:46:d1:74:4e:ca:e5:eb:dc:2e:e7:
        c1:dd:7d:38:1d:10:1d:84:c7:3c:8a:52:ca:eb:39:ca:cb:23:
        db:9d:fb:c7:10:93:47:50
-----BEGIN CERTIFICATE-----
MIIEXjCCAkagAwIBAgIBNzANBgkqhkiG9w0BAQsFADBGMQswCQYDVQQGEwJDQTEN
MAsGA1UECgwEU0VMRjENMAsGA1UECwwEU0VMRjEZMBcGA1UEAwwQU0VMRiBJREVO
VElUWSBDQTAgFw0yNDA5MDkxMTU1MjZaGA8yMTI0MDgxNjExNTUyNlowLzELMAkG
A1UEBhMCQ0ExETAPBgNVBAoMCG1iZWQgVExTMQ0wCwYDVQQDDARDZXJ0MIIBIjAN
BgkqhkiG9w0BAQEFAAOCAQ8AMIIBCgKCAQEA1VSS/gKy3zIhWyzyMfIdK3AE11Cl
hkjt7lZyDl0XiaXYe/WlU5yERmzTndULj8xjm2cnPhlGNCxDvZcA/UirWFofTXyH
Dt/qY/lT7s6SSCYs/meSZC7p0feft+dAh8s2y+V5KBkTYJy5l7OuyfsEGk0Wf/jc
Q+9b7Yfk3aIzEO/p2jDVx/TGHNMZebr7sWc7PWAFM3JKqWuUjq2L6S1ni6G2ZBfP
/ulhclCQdDiWk7Iu2LWgprNvwv4mrv5AO6oKRD0o9LQAZbiLU8OhgUz4aa8ZCjev
MkRq1F7+zdGmM33QHypO1cO0mQllFLidT7Vskh8n1WlBHlcj3GGi6/hplwIDAQAB
o2wwajAdBgNVHQ4EFgQU+WqkrgvCgkXdOC+c27HTy0Y2gRgwHwYDVR0jBBgwFoAU
l271sTig+lUoDdXM4sNB+W/3LlcwCQYDVR0TBAIwADALBgNVHQ8EBAMCBaAwEAYJ
YIZIAYb4QgEBBAMDAQAwDQYJKoZIhvcNAQELBQADggIBAGgkoNjrGZokMrSCt9rC
gHENieu55gYCWVzYjO6HBBTpkoPBMAu15MbyCGwHYecJXLB6lonTGeRX5VKnvScY
PGGb+g32VV9ogw43MuiLHNQGP0Cp+2BDbgTZk79D3eNLLj5UeRpQaEs8bQncsjaG
nKGjrLDgmsWYdFnrpg3/hlzdpT5255+xNdXGjGaJKs/OMQtt/tyoWts/uYF5WT41
1B+Wn9SLxf4to3BkvvA5smLasr6icAPu6azQhspiwGTm2DhX7CTX8d+f6EWycmgn
/g1nkzLZ1rRDqZk/Ib4YQTxBQZCQBwrTUdokn0zJdsJQaPWqBZBx8nA5pPMI83zK
6w63lwjbntMNMovWpLXYaxGTBftnv4/ewz3ZbjrVIfEA7/muqYxL/68b0tNkN3vy
BHu/RlWFf3N/l1pQI6ErOGA5E3wwXXkbiJKL29on6JFVeTeumBNXhk7RNMC2J2aB
Rds9a+nQytsegxUIQcWV7N/2VjkhQDWdrRP8fzzyEZXya8pKc/lWHS/5oGw5bC9f
IUFeYmFTpJf8Z8x2KGk1xrD2B6mozd5eNBNOzN3du2cIoAMk1iySfiZkKepvAQ8O
wqoPecZbsky9gTWevLjpiXrMquxJln6s4otYK/ojRtF0Tsrl69wu58HdfTgdEB2E
xzyKUsrrOcrLI9ud+8cQk0dQ
-----END CERTIFICATE-----
