Certificate:
    Data:
        Version: 3 (0x2)
        Serial Number: 56 (0x38)
        Signature Algorithm: sha256WithRSAEncryption
        Issuer: C=CA, O=SELF, OU=SELF, CN=SELF IDENTITY CA
        Validity
            Not Before: Sep  9 12:25:22 2024 GMT
            Not After : Aug 16 12:25:22 2124 GMT
        Subject: C=CA, O=mbed TLS, CN=Cert
        Subject Public Key Info:
            Public Key Algorithm: rsaEncryption
                Public-Key: (2048 bit)
                Modulus:
                    00:d5:54:92:fe:02:b2:df:32:21:5b:2c:f2:31:f2:
                    1d:2b:70:04:d7:50:a5:86:48:ed:ee:56:72:0e:5d:
                    17:89:a5:d8:7b:f5:a5:53:9c:84:46:6c:d3:9d:d5:
                    0b:8f:cc:63:9b:67:27:3e:19:46:34:2c:43:bd:97:
                    00:fd:48:ab:58:5a:1f:4d:7c:87:0e:df:ea:63:f9:
                    53:ee:ce:92:48:26:2c:fe:67:92:64:2e:e9:d1:f7:
                    9f:b7:e7:40:87:cb:36:cb:e5:79:28:19:13:60:9c:
                    b9:97:b3:ae:c9:fb:04:1a:4d:16:7f:f8:dc:43:ef:
                    5b:ed:87:e4:dd:a2:33:10:ef:e9:da:30:d5:c7:f4:
                    c6:1c:d3:19:79:ba:fb:b1:67:3b:3d:60:05:33:72:
                    4a:a9:6b:94:8e:ad:8b:e9:2d:67:8b:a1:b6:64:17:
                    cf:fe:e9:61:72:50:90:74:38:96:93:b2:2e:d8:b5:
                    a0:a6:b3:6f:c2:fe:26:ae:fe:40:3b:aa:0a:44:3d:
                    28:f4:b4:00:65:b8:8b:53:c3:a1:81:4c:f8:69:af:
                    19:0a:37:af:32:44:6a:d4:5e:fe:cd:d1:a6:33:7d:
                    d0:1f:2a:4e:d5:c3:b4:99:09:65:14:b8:9d:4f:b5:
                    6c:92:1f:27:d5:69:41:1e:57:23:dc:61:a2:eb:f8:
                    69:97
                Exponent: 65537 (0x10001)
        X509v3 extensions:
            X509v3 Subject Key Identifier: 
                F9:6A:A4:AE:0B:C2:82:45:DD:38:2F:9C:DB:B1:D3:CB:46:36:81:18
            X509v3 Authority Key Identifier: 
                97:6E:F5:B1:38:A0:FA:55:28:0D:D5:CC:E2:C3:41:F9:6F:F7:2E:57
            X509v3 Basic Constraints: 
                CA:FALSE
            X509v3 Key Usage: 
                Digital Signature, Key Encipherment
            Netscape Cert Type: 
                ...
    Signature Algorithm: sha256WithRSAEncryption
    Signature Value:
        5b:c3:c5:a1:96:ef:8c:43:5c:66:38:7d:13:dd:ed:bc:78:f0:
        cd:6c:b9:a0:99:ae:ce:15:7e:2c:7d:d5:57:77:75:3e:03:03:
        43:9b:77:73:c0:03:4d:d2:15:fe:c9:28:8c:ac:22:c0:bb:1f:
        e5:fe:ce:79:e3:df:d7:97:ff:c7:c9:24:b9:18:20:3e:35:49:
        1f:c8:4f:7d:76:99:bc:04:26:3b:af:81:b1:79:f6:6d:64:8a:
        6c:b8:6d:9a:91:04:09:42:4c:04:5b:3a:f9:ac:c4:f0:b5:a3:
        c5:44:2f:fe:92:03:80:f1:ed:59:67:f0:38:0d:ba:71:79:a5:
        b3:dc:f5:b8:d0:01:f5:b7:b8:fe:0f:ed:80:4f:4f:d2:60:6e:
        a0:89:2e:76:9f:a2:0f:3f:57:04:b4:eb:13:10:2e:4f:78:c3:
        3a:1b:14:14:74:6f:2c:e4:10:d0:d4:e7:1c:5b:a2:a5:04:b1:
        fb:24:04:02:b1:02:53:fa:44:5b:c6:6a:eb:b4:b3:90:04:91:
        57:be:b7:10:43:1f:c1:a6:74:30:75:f2:18:1c:e1:7a:32:bf:
        3f:63:1c:64:e8:69:97:86:11:3e:49:3a:5a:78:4f:ad:d3:04:
        0b:a3:90:52:75:3a:98:e2:0e:84:3c:d7:8c:aa:e6:ac:13:04:
        fb:7d:6e:69:f2:ca:e3:a5:e3:d5:97:98:b0:ea:0b:e9:31:fe:
        e9:d2:08:bd:b2:2e:78:3c:e3:60:73:d5:43:58:a9:58:52:f7:
        67:f3:95:e7:2f:71:7c:95:c2:47:3d:5e:ee:4b:d8:59:71:91:
        e9:fd:1d:1a:c0:b6:97:d5:cb:c3:0a:b7:17:5e:92:e4:47:82:
        08:30:9a:69:45:85:42:cd:85:45:a3:49:6c:59:75:c0:30:85:
        be:95:0c:e2:87:60:12:e3:22:f3:69:0b:45:de:c0:3f:c8:e6:
        4e:00:d2:32:cd:58:a9:2a:49:dd:dd:e0:a5:eb:de:09:50:5e:
        79:0b:ce:9e:a8:9a:c5:ce:77:a0:ed:76:db:a2:c3:43:95:33:
        5f:a3:3a:45:4f:13:db:b7:08:3e:9b:92:66:ac:0c:9d:fe:32:
        bc:96:1f:b1:88:77:91:f4:0c:c2:a9:32:0f:fc:75:80:a6:42:
        dd:a6:cc:b9:db:af:bf:ed:23:81:a9:f5:15:c7:4b:c6:2f:d0:
        ad:97:52:0a:8f:8f:a3:6e:70:61:e9:2c:1e:81:dc:b4:02:3d:
        6b:49:b2:b3:df:43:15:90:c8:5a:fd:bf:ef:4e:1a:33:aa:7f:
        0a:8b:3c:d0:a1:ee:4a:07:4b:e9:7b:9d:72:7b:43:7a:84:68:
        f1:fb:4e:b4:2e:b7:12:33
-----BEGIN CERTIFICATE-----
MIIEXjCCAkagAwIBAgIBODANBgkqhkiG9w0BAQsFADBGMQswCQYDVQQGEwJDQTEN
MAsGA1UECgwEU0VMRjENMAsGA1UECwwEU0VMRjEZMBcGA1UEAwwQU0VMRiBJREVO
VElUWSBDQTAgFw0yNDA5MDkxMjI1MjJaGA8yMTI0MDgxNjEyMjUyMlowLzELMAkG
A1UEBhMCQ0ExETAPBgNVBAoMCG1iZWQgVExTMQ0wCwYDVQQDDARDZXJ0MIIBIjAN
BgkqhkiG9w0BAQEFAAOCAQ8AMIIBCgKCAQEA1VSS/gKy3zIhWyzyMfIdK3AE11Cl
hkjt7lZyDl0XiaXYe/WlU5yERmzTndULj8xjm2cnPhlGNCxDvZcA/UirWFofTXyH
Dt/qY/lT7s6SSCYs/meSZC7p0feft+dAh8s2y+V5KBkTYJy5l7OuyfsEGk0Wf/jc
Q+9b7Yfk3aIzEO/p2jDVx/TGHNMZebr7sWc7PWAFM3JKqWuUjq2L6S1ni6G2ZBfP
/ulhclCQdDiWk7Iu2LWgprNvwv4mrv5AO6oKRD0o9LQAZbiLU8OhgUz4aa8ZCjev
MkRq1F7+zdGmM33QHypO1cO0mQllFLidT7Vskh8n1WlBHlcj3GGi6/hplwIDAQAB
o2wwajAdBgNVHQ4EFgQU+WqkrgvCgkXdOC+c27HTy0Y2gRgwHwYDVR0jBBgwFoAU
l271sTig+lUoDdXM4sNB+W/3LlcwCQYDVR0TBAIwADALBgNVHQ8EBAMCBaAwEAYJ
YIZIAYb4QgEBBAMDAQAwDQYJKoZIhvcNAQELBQADggIBAFvDxaGW74xDXGY4fRPd
7bx48M1suaCZrs4Vfix91Vd3dT4DA0Obd3PAA03SFf7JKIysIsC7H+X+znnj39eX
/8fJJLkYID41SR/IT312mbwEJjuvgbF59m1kimy4bZqRBAlCTARbOvmsxPC1o8VE
L/6SA4Dx7Vln8DgNunF5pbPc9bjQAfW3uP4P7YBPT9JgbqCJLnafog8/VwS06xMQ
Lk94wzobFBR0byzkENDU5xxboqUEsfskBAKxAlP6RFvGauu0s5AEkVe+txBDH8Gm
dDB18hgc4Xoyvz9jHGToaZeGET5JOlp4T63TBAujkFJ1OpjiDoQ814yq5qwTBPt9
bmnyyuOl49WXmLDqC+kx/unSCL2yLng842Bz1UNYqVhS92fzlecvcXyVwkc9Xu5L
2Flxken9HRrAtpfVy8MKtxdekuRHgggwmmlFhULNhUWjSWxZdcAwhb6VDOKHYBLj
IvNpC0XewD/I5k4A0jLNWKkqSd3d4KXr3glQXnkLzp6omsXOd6Dtdtuiw0OVM1+j
OkVPE9u3CD6bkmasDJ3+MryWH7GId5H0DMKpMg/8dYCmQt2mzLnbr7/tI4Gp9RXH
S8Yv0K2XUgqPj6NucGHpLB6B3LQCPWtJsrPfQxWQyFr9v+9OGjOqfwqLPNCh7koH
S+l7nXJ7Q3qEaPH7TrQutxIz
-----END CERTIFICATE-----
