Certificate:
    Data:
        Version: 3 (0x2)
        Serial Number: 57 (0x39)
        Signature Algorithm: sha256WithRSAEncryption
        Issuer: C=CA, O=SELF, OU=SELF, CN=SELF IDENTITY CA
        Validity
            Not Before: Sep  9 12:26:04 2024 GMT
            Not After : Aug 16 12:26:04 2124 GMT
        Subject: C=CA, O=mbed TLS, CN=Cert
        Subject Public Key Info:
            Public Key Algorithm: rsaEncryption
                Public-Key: (2048 bit)
                Modulus:
                    00:d5:54:92:fe:02:b2:df:32:21:5b:2c:f2:31:f2:
                    1d:2b:70:04:d7:50:a5:86:48:ed:ee:56:72:0e:5d:
                    17:89:a5:d8:7b:f5:a5:53:9c:84:46:6c:d3:9d:d5:
                    0b:8f:cc:63:9b:67:27:3e:19:46:34:2c:43:bd:97:
                    00:fd:48:ab:58:5a:1f:4d:7c:87:0e:df:ea:63:f9:
                    53:ee:ce:92:48:26:2c:fe:67:92:64:2e:e9:d1:f7:
                    9f:b7:e7:40:87:cb:36:cb:e5:79:28:19:13:60:9c:
                    b9:97:b3:ae:c9:fb:04:1a:4d:16:7f:f8:dc:43:ef:
                    5b:ed:87:e4:dd:a2:33:10:ef:e9:da:30:d5:c7:f4:
                    c6:1c:d3:19:79:ba:fb:b1:67:3b:3d:60:05:33:72:
                    4a:a9:6b:94:8e:ad:8b:e9:2d:67:8b:a1:b6:64:17:
                    cf:fe:e9:61:72:50:90:74:38:96:93:b2:2e:d8:b5:
                    a0:a6:b3:6f:c2:fe:26:ae:fe:40:3b:aa:0a:44:3d:
                    28:f4:b4:00:65:b8:8b:53:c3:a1:81:4c:f8:69:af:
                    19:0a:37:af:32:44:6a:d4:5e:fe:cd:d1:a6:33:7d:
                    d0:1f:2a:4e:d5:c3:b4:99:09:65:14:b8:9d:4f:b5:
                    6c:92:1f:27:d5:69:41:1e:57:23:dc:61:a2:eb:f8:
                    69:97
                Exponent: 65537 (0x10001)
        X509v3 extensions:
            X509v3 Subject Key Identifier: 
                F9:6A:A4:AE:0B:C2:82:45:DD:38:2F:9C:DB:B1:D3:CB:46:36:81:18
            X509v3 Authority Key Identifier: 
                97:6E:F5:B1:38:A0:FA:55:28:0D:D5:CC:E2:C3:41:F9:6F:F7:2E:57
            X509v3 Basic Constraints: 
                CA:FALSE
            X509v3 Key Usage: 
                Digital Signature, Key Encipherment
            Netscape Cert Type: 
                ...
    Signature Algorithm: sha256WithRSAEncryption
    Signature Value:
        9f:38:f9:a1:70:c3:85:76:e1:ea:c4:4f:38:38:e0:97:89:21:
        ee:6d:c9:3b:7b:bb:c1:ad:73:d2:d7:2b:24:03:8a:eb:33:86:
        f8:10:c6:c7:63:c9:eb:2e:7b:9e:6f:9f:88:9e:a6:ea:70:a8:
        db:ef:12:f3:89:9c:21:54:19:46:c5:a5:22:0f:38:e3:61:20:
        30:c5:a7:ff:2e:7f:a4:af:33:90:25:b8:f0:f0:fd:6f:1f:e2:
        dc:b7:ee:d2:f4:45:ca:c5:e7:ff:1a:01:b9:4b:83:12:1e:78:
        6d:a3:78:c0:6e:30:6b:0a:17:1c:9c:3b:c5:16:73:20:da:45:
        0d:c1:06:43:46:ae:1d:8c:e6:4f:78:41:5b:48:3d:e3:b4:5b:
        ef:7b:92:d6:b5:b1:c2:ae:f7:6e:f0:31:47:d5:11:e1:07:20:
        e2:4e:9d:f8:4f:aa:c4:71:cd:89:62:f8:28:c9:99:a6:94:4e:
        9b:4a:7c:1c:3d:fa:7e:ac:5b:ee:87:3c:23:aa:d1:92:d4:3d:
        81:ba:07:fc:e9:53:8e:33:3f:df:a9:13:da:be:db:6e:bd:93:
        d2:93:e6:ae:cd:a8:55:8c:a7:7c:c5:59:6a:b9:ff:d4:fd:0f:
        26:89:85:8e:03:af:72:f2:d4:63:41:f5:dc:55:bd:89:77:79:
        3c:84:79:07:d7:4b:62:72:fd:23:1d:b7:55:2a:ee:65:ab:85:
        ee:d5:0f:83:6f:ca:22:3a:54:77:34:60:b8:5b:d1:5e:83:aa:
        0f:df:3a:44:0e:21:bd:fe:14:3c:39:84:a6:c5:75:26:c5:d1:
        08:fb:69:b0:90:92:2b:4a:93:3e:88:c7:f0:66:fb:7d:6e:c3:
        e2:da:36:c3:98:c3:b0:13:43:03:28:09:38:a3:8c:da:0f:d9:
        b4:95:76:96:68:d5:d3:6e:7e:1e:54:7a:f9:ef:d2:91:7e:6c:
        b5:79:88:60:be:5e:0d:ce:97:a8:89:f2:2f:6f:ae:dc:34:ad:
        b6:ec:36:84:d8:d0:10:08:c8:a8:4a:cf:64:b1:24:5b:aa:7d:
        c2:e0:bd:5d:6b:b4:f4:c6:6b:49:21:7d:d5:84:82:dd:aa:c1:
        3f:ae:60:b2:4a:31:ae:a9:79:c9:9b:1d:b1:44:30:fa:4b:c9:
        88:47:2e:30:df:77:11:5c:ad:e9:fb:68:7e:55:dd:18:be:fd:
        3e:81:98:3d:3e:dd:02:43:e7:8f:1c:40:b3:82:39:a1:a2:f0:
        ba:c1:09:3c:ce:15:c5:d3:d3:8e:6e:ae:dd:6e:46:ca:64:7f:
        7f:cc:f6:25:0b:d3:fe:35:00:e8:7d:80:49:cc:8d:17:4c:79:
        59:72:e7:16:86:0b:40:21
-----BEGIN CERTIFICATE-----
MIIEXjCCAkagAwIBAgIBOTANBgkqhkiG9w0BAQsFADBGMQswCQYDVQQGEwJDQTEN
MAsGA1UECgwEU0VMRjENMAsGA1UECwwEU0VMRjEZMBcGA1UEAwwQU0VMRiBJREVO
VElUWSBDQTAgFw0yNDA5MDkxMjI2MDRaGA8yMTI0MDgxNjEyMjYwNFowLzELMAkG
A1UEBhMCQ0ExETAPBgNVBAoMCG1iZWQgVExTMQ0wCwYDVQQDDARDZXJ0MIIBIjAN
BgkqhkiG9w0BAQEFAAOCAQ8AMIIBCgKCAQEA1VSS/gKy3zIhWyzyMfIdK3AE11Cl
hkjt7lZyDl0XiaXYe/WlU5yERmzTndULj8xjm2cnPhlGNCxDvZcA/UirWFofTXyH
Dt/qY/lT7s6SSCYs/meSZC7p0feft+dAh8s2y+V5KBkTYJy5l7OuyfsEGk0Wf/jc
Q+9b7Yfk3aIzEO/p2jDVx/TGHNMZebr7sWc7PWAFM3JKqWuUjq2L6S1ni6G2ZBfP
/ulhclCQdDiWk7Iu2LWgprNvwv4mrv5AO6oKRD0o9LQAZbiLU8OhgUz4aa8ZCjev
MkRq1F7+zdGmM33QHypO1cO0mQllFLidT7Vskh8n1WlBHlcj3GGi6/hplwIDAQAB
o2wwajAdBgNVHQ4EFgQU+WqkrgvCgkXdOC+c27HTy0Y2gRgwHwYDVR0jBBgwFoAU
l271sTig+lUoDdXM4sNB+W/3LlcwCQYDVR0TBAIwADALBgNVHQ8EBAMCBaAwEAYJ
YIZIAYb4QgEBBAMDAQAwDQYJKoZIhvcNAQELBQADggIBAJ84+aFww4V24erETzg4
4JeJIe5tyTt7u8Gtc9LXKyQDiuszhvgQxsdjyesue55vn4iepupwqNvvEvOJnCFU
GUbFpSIPOONhIDDFp/8uf6SvM5AluPDw/W8f4ty37tL0RcrF5/8aAblLgxIeeG2j
eMBuMGsKFxycO8UWcyDaRQ3BBkNGrh2M5k94QVtIPeO0W+97kta1scKu927wMUfV
EeEHIOJOnfhPqsRxzYli+CjJmaaUTptKfBw9+n6sW+6HPCOq0ZLUPYG6B/zpU44z
P9+pE9q+2269k9KT5q7NqFWMp3zFWWq5/9T9DyaJhY4Dr3Ly1GNB9dxVvYl3eTyE
eQfXS2Jy/SMdt1Uq7mWrhe7VD4NvyiI6VHc0YLhb0V6Dqg/fOkQOIb3+FDw5hKbF
dSbF0Qj7abCQkitKkz6Ix/Bm+31uw+LaNsOYw7ATQwMoCTijjNoP2bSVdpZo1dNu
fh5Uevnv0pF+bLV5iGC+Xg3Ol6iJ8i9vrtw0rbbsNoTY0BAIyKhKz2SxJFuqfcLg
vV1rtPTGa0khfdWEgt2qwT+uYLJKMa6pecmbHbFEMPpLyYhHLjDfdxFcren7aH5V
3Ri+/T6BmD0+3QJD548cQLOCOaGi8LrBCTzOFcXT045urt1uRspkf3/M9iUL0/41
AOh9gEnMjRdMeVly5xaGC0Ah
-----END CERTIFICATE-----
