Certificate:
    Data:
        Version: 3 (0x2)
        Serial Number: 58 (0x3a)
        Signature Algorithm: sha256WithRSAEncryption
        Issuer: C=CA, O=SELF, OU=SELF, CN=SELF IDENTITY CA
        Validity
            Not Before: Sep  9 12:27:51 2024 GMT
            Not After : Aug 16 12:27:51 2124 GMT
        Subject: C=CA, O=mbed TLS, CN=Cert
        Subject Public Key Info:
            Public Key Algorithm: rsaEncryption
                Public-Key: (2048 bit)
                Modulus:
                    00:d5:54:92:fe:02:b2:df:32:21:5b:2c:f2:31:f2:
                    1d:2b:70:04:d7:50:a5:86:48:ed:ee:56:72:0e:5d:
                    17:89:a5:d8:7b:f5:a5:53:9c:84:46:6c:d3:9d:d5:
                    0b:8f:cc:63:9b:67:27:3e:19:46:34:2c:43:bd:97:
                    00:fd:48:ab:58:5a:1f:4d:7c:87:0e:df:ea:63:f9:
                    53:ee:ce:92:48:26:2c:fe:67:92:64:2e:e9:d1:f7:
                    9f:b7:e7:40:87:cb:36:cb:e5:79:28:19:13:60:9c:
                    b9:97:b3:ae:c9:fb:04:1a:4d:16:7f:f8:dc:43:ef:
                    5b:ed:87:e4:dd:a2:33:10:ef:e9:da:30:d5:c7:f4:
                    c6:1c:d3:19:79:ba:fb:b1:67:3b:3d:60:05:33:72:
                    4a:a9:6b:94:8e:ad:8b:e9:2d:67:8b:a1:b6:64:17:
                    cf:fe:e9:61:72:50:90:74:38:96:93:b2:2e:d8:b5:
                    a0:a6:b3:6f:c2:fe:26:ae:fe:40:3b:aa:0a:44:3d:
                    28:f4:b4:00:65:b8:8b:53:c3:a1:81:4c:f8:69:af:
                    19:0a:37:af:32:44:6a:d4:5e:fe:cd:d1:a6:33:7d:
                    d0:1f:2a:4e:d5:c3:b4:99:09:65:14:b8:9d:4f:b5:
                    6c:92:1f:27:d5:69:41:1e:57:23:dc:61:a2:eb:f8:
                    69:97
                Exponent: 65537 (0x10001)
        X509v3 extensions:
            X509v3 Subject Key Identifier: 
                F9:6A:A4:AE:0B:C2:82:45:DD:38:2F:9C:DB:B1:D3:CB:46:36:81:18
            X509v3 Authority Key Identifier: 
                97:6E:F5:B1:38:A0:FA:55:28:0D:D5:CC:E2:C3:41:F9:6F:F7:2E:57
            X509v3 Basic Constraints: 
                CA:FALSE
            X509v3 Key Usage: 
                Digital Signature, Key Encipherment
            Netscape Cert Type: 
                ...
    Signature Algorithm: sha256WithRSAEncryption
    Signature Value:
        4f:d8:de:44:8d:18:54:cc:48:d9:cb:21:92:fb:e8:69:28:11:
        de:75:18:38:01:e9:17:79:ae:aa:5e:95:ac:21:1e:ba:1e:51:
        59:61:68:bb:cd:36:8e:f5:04:46:87:5b:29:54:4b:93:01:ea:
        a7:c9:a8:91:73:f0:d2:14:96:ca:75:5b:fe:25:b3:08:d4:7e:
        30:0b:d5:76:31:e0:a4:c9:11:09:7b:8f:7b:ad:2e:6b:6f:74:
        91:fd:0b:8c:e7:d2:ff:40:b1:d6:a5:5a:5a:cb:23:34:e0:dd:
        e4:5c:cc:1b:23:a1:50:94:6c:a1:fd:f2:b2:f3:eb:09:2b:0a:
        ff:4a:e7:49:96:4a:75:ab:17:62:30:0d:dd:66:17:bf:e1:4d:
        57:88:a3:c0:64:d9:1c:37:d9:ae:eb:8a:ce:88:41:0f:c1:89:
        0d:71:dd:99:32:ce:e3:01:e2:23:8c:30:4a:dc:33:46:91:97:
        15:e1:98:e5:12:b1:a1:74:0f:d6:8a:08:e1:d3:0e:ab:5a:de:
        1f:97:be:aa:5c:b2:ba:f8:d1:b7:cc:48:59:35:b8:5a:fd:f7:
        38:59:b9:1e:48:dc:d0:82:68:c8:fc:b1:be:66:23:30:ce:76:
        ef:46:3b:bd:6f:96:94:df:04:7f:13:b6:4f:bc:4e:f9:1b:8e:
        cd:5c:05:6c:ab:5b:80:7e:77:a3:e7:e5:f1:69:90:33:39:3c:
        c8:85:52:f8:af:8e:9f:35:d9:78:7e:8e:9d:54:87:53:f9:a9:
        7e:79:b3:70:37:18:ea:d6:f7:6f:af:c0:a9:1e:19:f3:3b:bc:
        d0:4f:2b:3b:83:5d:89:04:0f:85:13:d2:ee:0d:fd:2d:6e:ab:
        0d:79:a1:49:ae:28:fd:f1:ee:d8:d4:6a:03:50:a6:97:17:55:
        77:d7:77:d8:d6:f3:d4:27:2d:bb:74:99:cb:24:20:d3:39:2b:
        e6:88:6e:89:36:75:f0:ea:26:6f:e0:ea:f9:c7:eb:bc:80:0e:
        78:78:93:07:c0:9c:c2:2a:ed:66:bc:5a:37:30:a4:29:be:b8:
        f7:92:cf:54:95:ac:e9:fe:9b:56:2a:ea:c5:3f:1e:56:b9:6c:
        47:55:6b:65:e3:5d:f7:7d:a3:32:0f:ae:ea:f9:6e:0b:48:99:
        18:eb:e4:87:dd:58:78:a3:5c:5d:04:26:ce:47:66:2c:44:ad:
        c9:be:02:ba:c3:9e:38:7b:54:6c:e7:ef:31:bf:ca:ea:c1:95:
        ec:57:ee:52:9c:55:7e:ae:30:d0:a5:4d:14:62:67:ac:c1:e6:
        ac:75:6e:10:9d:20:05:16:c1:26:96:31:cf:77:ae:1f:23:f1:
        3e:4e:92:c9:8e:40:f9:c0
-----BEGIN CERTIFICATE-----
MIIEXjCCAkagAwIBAgIBOjANBgkqhkiG9w0BAQsFADBGMQswCQYDVQQGEwJDQTEN
MAsGA1UECgwEU0VMRjENMAsGA1UECwwEU0VMRjEZMBcGA1UEAwwQU0VMRiBJREVO
VElUWSBDQTAgFw0yNDA5MDkxMjI3NTFaGA8yMTI0MDgxNjEyMjc1MVowLzELMAkG
A1UEBhMCQ0ExETAPBgNVBAoMCG1iZWQgVExTMQ0wCwYDVQQDDARDZXJ0MIIBIjAN
BgkqhkiG9w0BAQEFAAOCAQ8AMIIBCgKCAQEA1VSS/gKy3zIhWyzyMfIdK3AE11Cl
hkjt7lZyDl0XiaXYe/WlU5yERmzTndULj8xjm2cnPhlGNCxDvZcA/UirWFofTXyH
Dt/qY/lT7s6SSCYs/meSZC7p0feft+dAh8s2y+V5KBkTYJy5l7OuyfsEGk0Wf/jc
Q+9b7Yfk3aIzEO/p2jDVx/TGHNMZebr7sWc7PWAFM3JKqWuUjq2L6S1ni6G2ZBfP
/ulhclCQdDiWk7Iu2LWgprNvwv4mrv5AO6oKRD0o9LQAZbiLU8OhgUz4aa8ZCjev
MkRq1F7+zdGmM33QHypO1cO0mQllFLidT7Vskh8n1WlBHlcj3GGi6/hplwIDAQAB
o2wwajAdBgNVHQ4EFgQU+WqkrgvCgkXdOC+c27HTy0Y2gRgwHwYDVR0jBBgwFoAU
l271sTig+lUoDdXM4sNB+W/3LlcwCQYDVR0TBAIwADALBgNVHQ8EBAMCBaAwEAYJ
YIZIAYb4QgEBBAMDAQAwDQYJKoZIhvcNAQELBQADggIBAE/Y3kSNGFTMSNnLIZL7
6GkoEd51GDgB6Rd5rqpelawhHroeUVlhaLvNNo71BEaHWylUS5MB6qfJqJFz8NIU
lsp1W/4lswjUfjAL1XYx4KTJEQl7j3utLmtvdJH9C4zn0v9AsdalWlrLIzTg3eRc
zBsjoVCUbKH98rLz6wkrCv9K50mWSnWrF2IwDd1mF7/hTVeIo8Bk2Rw32a7ris6I
QQ/BiQ1x3ZkyzuMB4iOMMErcM0aRlxXhmOUSsaF0D9aKCOHTDqta3h+Xvqpcsrr4
0bfMSFk1uFr99zhZuR5I3NCCaMj8sb5mIzDOdu9GO71vlpTfBH8Ttk+8Tvkbjs1c
BWyrW4B+d6Pn5fFpkDM5PMiFUvivjp812Xh+jp1Uh1P5qX55s3A3GOrW92+vwKke
GfM7vNBPKzuDXYkED4UT0u4N/S1uqw15oUmuKP3x7tjUagNQppcXVXfXd9jW89Qn
Lbt0mcskINM5K+aIbok2dfDqJm/g6vnH67yADnh4kwfAnMIq7Wa8WjcwpCm+uPeS
z1SVrOn+m1Yq6sU/Hla5bEdVa2XjXfd9ozIPrur5bgtImRjr5IfdWHijXF0EJs5H
ZixErcm+ArrDnjh7VGzn7zG/yurBlexX7lKcVX6uMNClTRRiZ6zB5qx1bhCdIAUW
wSaWMc93rh8j8T5OksmOQPnA
-----END CERTIFICATE-----
