Certificate:
    Data:
        Version: 3 (0x2)
        Serial Number: 59 (0x3b)
        Signature Algorithm: sha256WithRSAEncryption
        Issuer: C=CA, O=SELF, OU=SELF, CN=SELF IDENTITY CA
        Validity
            Not Before: Sep  9 12:29:43 2024 GMT
            Not After : Aug 16 12:29:43 2124 GMT
        Subject: C=CA, O=mbed TLS, CN=Cert
        Subject Public Key Info:
            Public Key Algorithm: rsaEncryption
                Public-Key: (2048 bit)
                Modulus:
                    00:d5:54:92:fe:02:b2:df:32:21:5b:2c:f2:31:f2:
                    1d:2b:70:04:d7:50:a5:86:48:ed:ee:56:72:0e:5d:
                    17:89:a5:d8:7b:f5:a5:53:9c:84:46:6c:d3:9d:d5:
                    0b:8f:cc:63:9b:67:27:3e:19:46:34:2c:43:bd:97:
                    00:fd:48:ab:58:5a:1f:4d:7c:87:0e:df:ea:63:f9:
                    53:ee:ce:92:48:26:2c:fe:67:92:64:2e:e9:d1:f7:
                    9f:b7:e7:40:87:cb:36:cb:e5:79:28:19:13:60:9c:
                    b9:97:b3:ae:c9:fb:04:1a:4d:16:7f:f8:dc:43:ef:
                    5b:ed:87:e4:dd:a2:33:10:ef:e9:da:30:d5:c7:f4:
                    c6:1c:d3:19:79:ba:fb:b1:67:3b:3d:60:05:33:72:
                    4a:a9:6b:94:8e:ad:8b:e9:2d:67:8b:a1:b6:64:17:
                    cf:fe:e9:61:72:50:90:74:38:96:93:b2:2e:d8:b5:
                    a0:a6:b3:6f:c2:fe:26:ae:fe:40:3b:aa:0a:44:3d:
                    28:f4:b4:00:65:b8:8b:53:c3:a1:81:4c:f8:69:af:
                    19:0a:37:af:32:44:6a:d4:5e:fe:cd:d1:a6:33:7d:
                    d0:1f:2a:4e:d5:c3:b4:99:09:65:14:b8:9d:4f:b5:
                    6c:92:1f:27:d5:69:41:1e:57:23:dc:61:a2:eb:f8:
                    69:97
                Exponent: 65537 (0x10001)
        X509v3 extensions:
            X509v3 Subject Key Identifier: 
                F9:6A:A4:AE:0B:C2:82:45:DD:38:2F:9C:DB:B1:D3:CB:46:36:81:18
            X509v3 Authority Key Identifier: 
                97:6E:F5:B1:38:A0:FA:55:28:0D:D5:CC:E2:C3:41:F9:6F:F7:2E:57
            X509v3 Basic Constraints: 
                CA:FALSE
            X509v3 Key Usage: 
                Digital Signature, Key Encipherment
            Netscape Cert Type: 
                ...
    Signature Algorithm: sha256WithRSAEncryption
    Signature Value:
        74:7e:28:f1:7e:96:fb:c9:4a:d9:71:c7:ad:db:c6:f2:6f:0d:
        c9:d3:ad:91:99:cc:92:e5:bb:7e:49:73:df:ab:f1:45:29:ba:
        eb:9d:ee:4b:65:8d:8c:19:14:ab:0e:e6:45:fc:8e:b6:cc:32:
        ba:1a:2c:75:0f:4e:03:7a:05:64:a4:bc:51:5c:ff:d1:32:5e:
        23:b0:88:91:48:92:7a:09:75:b1:d1:5b:72:9a:e2:b3:e3:1a:
        5f:ac:ee:fa:ba:2b:98:16:63:ac:bc:c5:3b:57:f6:51:4e:77:
        c1:a7:38:47:3a:68:22:28:8c:40:4a:4c:be:7a:d1:57:f3:e7:
        93:86:5b:61:41:f5:24:c7:b7:77:82:f8:2b:41:16:e3:63:5a:
        1c:23:07:29:e6:17:27:07:fc:46:56:76:d0:63:b2:15:3a:6b:
        39:07:c6:a5:ac:38:22:8a:57:da:a5:12:5f:4f:59:4e:cf:fa:
        f1:75:f9:a6:52:4e:0e:3f:13:20:30:01:65:26:44:53:9d:d1:
        3f:04:d9:32:0c:7c:94:c3:7a:3f:ab:98:1c:fc:ab:13:9b:6f:
        ad:8a:c6:0a:2c:e2:58:9c:cb:8d:a7:2a:81:01:7f:a0:a6:6c:
        58:c3:40:31:70:7b:33:40:fd:f5:e2:21:4a:54:1b:1c:95:cd:
        62:31:c8:23:b7:56:9b:70:b2:b8:66:d2:11:2b:0c:f3:0e:3f:
        bd:19:92:a9:be:6c:9d:1d:f9:a8:85:3b:99:30:62:92:43:bc:
        0a:75:4b:13:42:24:47:3b:bf:8c:f0:ee:a6:fe:b8:cd:cd:35:
        68:c4:8a:99:e5:3d:1b:98:d0:98:d0:71:65:70:da:87:1c:9d:
        75:c4:43:48:d6:84:3d:ad:70:02:e7:be:55:bd:71:b8:0e:d4:
        7d:be:bd:9b:b6:60:87:fc:3e:8a:ff:6b:69:2f:b3:6d:3f:58:
        9f:c1:dc:52:a2:30:19:09:85:78:a6:a4:d3:cf:5b:a4:49:44:
        3e:5c:5f:d4:68:f4:fc:5b:cd:41:5e:3f:5f:7e:1f:b7:e0:9a:
        5e:20:67:78:73:a6:0d:1e:3c:08:73:00:ab:13:40:93:bc:60:
        1b:81:67:9d:59:88:11:a0:ff:4b:2b:4d:ac:78:04:94:e0:d2:
        e1:6e:43:41:cc:58:9a:1e:00:2c:f2:ed:74:15:b4:15:6f:3f:
        2f:e7:ec:3e:48:af:f6:dc:7b:bb:5a:9c:1d:cd:00:9c:96:fe:
        29:b8:33:e0:4b:2d:4e:e1:a6:58:09:ce:19:1d:3d:3e:3e:8f:
        ac:82:06:b5:7c:17:2f:45:d8:81:63:85:2a:ac:f7:31:48:94:
        07:78:d4:8a:15:d4:fa:e7
-----BEGIN CERTIFICATE-----
MIIEXjCCAkagAwIBAgIBOzANBgkqhkiG9w0BAQsFADBGMQswCQYDVQQGEwJDQTEN
MAsGA1UECgwEU0VMRjENMAsGA1UECwwEU0VMRjEZMBcGA1UEAwwQU0VMRiBJREVO
VElUWSBDQTAgFw0yNDA5MDkxMjI5NDNaGA8yMTI0MDgxNjEyMjk0M1owLzELMAkG
A1UEBhMCQ0ExETAPBgNVBAoMCG1iZWQgVExTMQ0wCwYDVQQDDARDZXJ0MIIBIjAN
BgkqhkiG9w0BAQEFAAOCAQ8AMIIBCgKCAQEA1VSS/gKy3zIhWyzyMfIdK3AE11Cl
hkjt7lZyDl0XiaXYe/WlU5yERmzTndULj8xjm2cnPhlGNCxDvZcA/UirWFofTXyH
Dt/qY/lT7s6SSCYs/meSZC7p0feft+dAh8s2y+V5KBkTYJy5l7OuyfsEGk0Wf/jc
Q+9b7Yfk3aIzEO/p2jDVx/TGHNMZebr7sWc7PWAFM3JKqWuUjq2L6S1ni6G2ZBfP
/ulhclCQdDiWk7Iu2LWgprNvwv4mrv5AO6oKRD0o9LQAZbiLU8OhgUz4aa8ZCjev
MkRq1F7+zdGmM33QHypO1cO0mQllFLidT7Vskh8n1WlBHlcj3GGi6/hplwIDAQAB
o2wwajAdBgNVHQ4EFgQU+WqkrgvCgkXdOC+c27HTy0Y2gRgwHwYDVR0jBBgwFoAU
l271sTig+lUoDdXM4sNB+W/3LlcwCQYDVR0TBAIwADALBgNVHQ8EBAMCBaAwEAYJ
YIZIAYb4QgEBBAMDAQAwDQYJKoZIhvcNAQELBQADggIBAHR+KPF+lvvJStlxx63b
xvJvDcnTrZGZzJLlu35Jc9+r8UUpuuud7ktljYwZFKsO5kX8jrbMMroaLHUPTgN6
BWSkvFFc/9EyXiOwiJFIknoJdbHRW3Ka4rPjGl+s7vq6K5gWY6y8xTtX9lFOd8Gn
OEc6aCIojEBKTL560Vfz55OGW2FB9STHt3eC+CtBFuNjWhwjBynmFycH/EZWdtBj
shU6azkHxqWsOCKKV9qlEl9PWU7P+vF1+aZSTg4/EyAwAWUmRFOd0T8E2TIMfJTD
ej+rmBz8qxObb62Kxgos4licy42nKoEBf6CmbFjDQDFwezNA/fXiIUpUGxyVzWIx
yCO3Vptwsrhm0hErDPMOP70Zkqm+bJ0d+aiFO5kwYpJDvAp1SxNCJEc7v4zw7qb+
uM3NNWjEipnlPRuY0JjQcWVw2occnXXEQ0jWhD2tcALnvlW9cbgO1H2+vZu2YIf8
Por/a2kvs20/WJ/B3FKiMBkJhXimpNPPW6RJRD5cX9Ro9PxbzUFeP19+H7fgml4g
Z3hzpg0ePAhzAKsTQJO8YBuBZ51ZiBGg/0srTax4BJTg0uFuQ0HMWJoeACzy7XQV
tBVvPy/n7D5Ir/bce7tanB3NAJyW/im4M+BLLU7hplgJzhkdPT4+j6yCBrV8Fy9F
2IFjhSqs9zFIlAd41IoV1Prn
-----END CERTIFICATE-----
