Certificate:
    Data:
        Version: 3 (0x2)
        Serial Number: 60 (0x3c)
        Signature Algorithm: sha256WithRSAEncryption
        Issuer: C=CA, O=SELF, OU=SELF, CN=SELF IDENTITY CA
        Validity
            Not Before: Sep  9 12:30:29 2024 GMT
            Not After : Aug 16 12:30:29 2124 GMT
        Subject: C=CA, O=mbed TLS, CN=Cert
        Subject Public Key Info:
            Public Key Algorithm: rsaEncryption
                Public-Key: (2048 bit)
                Modulus:
                    00:d5:54:92:fe:02:b2:df:32:21:5b:2c:f2:31:f2:
                    1d:2b:70:04:d7:50:a5:86:48:ed:ee:56:72:0e:5d:
                    17:89:a5:d8:7b:f5:a5:53:9c:84:46:6c:d3:9d:d5:
                    0b:8f:cc:63:9b:67:27:3e:19:46:34:2c:43:bd:97:
                    00:fd:48:ab:58:5a:1f:4d:7c:87:0e:df:ea:63:f9:
                    53:ee:ce:92:48:26:2c:fe:67:92:64:2e:e9:d1:f7:
                    9f:b7:e7:40:87:cb:36:cb:e5:79:28:19:13:60:9c:
                    b9:97:b3:ae:c9:fb:04:1a:4d:16:7f:f8:dc:43:ef:
                    5b:ed:87:e4:dd:a2:33:10:ef:e9:da:30:d5:c7:f4:
                    c6:1c:d3:19:79:ba:fb:b1:67:3b:3d:60:05:33:72:
                    4a:a9:6b:94:8e:ad:8b:e9:2d:67:8b:a1:b6:64:17:
                    cf:fe:e9:61:72:50:90:74:38:96:93:b2:2e:d8:b5:
                    a0:a6:b3:6f:c2:fe:26:ae:fe:40:3b:aa:0a:44:3d:
                    28:f4:b4:00:65:b8:8b:53:c3:a1:81:4c:f8:69:af:
                    19:0a:37:af:32:44:6a:d4:5e:fe:cd:d1:a6:33:7d:
                    d0:1f:2a:4e:d5:c3:b4:99:09:65:14:b8:9d:4f:b5:
                    6c:92:1f:27:d5:69:41:1e:57:23:dc:61:a2:eb:f8:
                    69:97
                Exponent: 65537 (0x10001)
        X509v3 extensions:
            X509v3 Subject Key Identifier: 
                F9:6A:A4:AE:0B:C2:82:45:DD:38:2F:9C:DB:B1:D3:CB:46:36:81:18
            X509v3 Authority Key Identifier: 
                97:6E:F5:B1:38:A0:FA:55:28:0D:D5:CC:E2:C3:41:F9:6F:F7:2E:57
            X509v3 Basic Constraints: 
                CA:FALSE
            X509v3 Key Usage: 
                Digital Signature, Key Encipherment
            Netscape Cert Type: 
                ...
    Signature Algorithm: sha256WithRSAEncryption
    Signature Value:
        1f:61:c7:ca:be:71:36:b0:5a:72:43:97:77:49:7c:fb:1c:3b:
        1c:e2:7a:74:fc:6b:68:cd:89:39:92:2b:93:a7:2f:a3:9b:ad:
        c8:83:5c:34:a5:e8:2e:96:53:1e:aa:ca:aa:6f:ca:7d:34:73:
        f5:b4:b3:55:3f:d8:96:a0:d8:8a:8e:2a:e2:6c:ce:6c:08:c3:
        e2:dd:60:17:01:a9:e8:be:86:df:c1:01:51:58:69:1d:a0:6c:
        aa:dc:52:92:1e:56:02:9d:7f:d1:60:d5:04:67:77:1f:49:a5:
        57:02:09:96:6e:fb:48:ea:ab:82:dd:59:98:37:c9:b6:57:0b:
        ac:ce:70:17:4d:d2:87:f5:54:49:f9:77:64:34:b3:16:1e:ba:
        0f:2c:f7:56:96:21:2b:00:61:48:9d:36:07:a6:af:f8:0c:c8:
        c3:78:be:08:7d:0d:d4:f4:6f:34:63:ad:9b:50:cf:b8:a8:76:
        a7:48:74:4b:b3:bc:f8:51:5d:cc:80:fd:99:c4:20:d5:d5:9f:
        1f:4d:1c:07:02:4e:65:bf:d0:b7:be:20:1f:77:34:c5:9e:f2:
        61:65:c2:a5:0c:2b:54:75:cd:06:28:43:54:b6:64:20:e7:07:
        c1:5f:0e:f3:ea:ad:15:60:3f:ed:45:2f:f3:6f:27:b0:6c:db:
        f8:70:37:ca:27:aa:e1:47:6f:27:9a:1b:98:1e:e2:87:2c:f0:
        8e:07:46:89:b6:4a:d9:bb:58:03:52:3e:64:9e:fe:04:e7:f5:
        05:52:05:59:8c:11:3e:be:3d:c6:2e:f4:3b:32:b9:20:0d:cf:
        d0:c5:c6:fa:d2:2d:f5:9f:6d:af:34:81:cd:e2:e2:97:12:18:
        5a:e8:a7:fb:0e:ac:76:8a:4a:97:cc:3f:28:95:25:8d:c2:af:
        2e:51:9d:e7:40:b0:d7:e6:1d:24:34:a2:78:05:90:42:92:ff:
        a3:3a:40:5f:51:cd:3f:7a:d6:0f:20:cd:de:e4:77:b2:e5:63:
        7e:af:35:b4:02:e9:d3:da:9e:d3:88:9a:da:ee:3c:97:46:49:
        50:d1:ff:44:c6:00:d1:39:29:a6:1c:23:66:1e:f6:9a:7a:ea:
        86:6d:3a:d7:89:39:aa:dd:52:b5:ce:03:86:6c:6d:da:d8:26:
        64:8a:36:37:7d:ee:e7:62:b3:ef:c6:a5:95:18:7b:47:9a:f7:
        21:6a:3f:e3:df:8f:f9:35:31:c3:0c:81:76:19:7c:5b:53:8a:
        27:8f:29:e7:d9:9d:29:cd:37:18:4d:f5:06:7a:eb:ee:e4:46:
        0e:8f:cb:82:12:d5:cf:33:40:03:ec:77:4a:82:32:0b:a3:90:
        fc:5d:4b:b0:fa:1d:a5:85
-----BEGIN CERTIFICATE-----
MIIEXjCCAkagAwIBAgIBPDANBgkqhkiG9w0BAQsFADBGMQswCQYDVQQGEwJDQTEN
MAsGA1UECgwEU0VMRjENMAsGA1UECwwEU0VMRjEZMBcGA1UEAwwQU0VMRiBJREVO
VElUWSBDQTAgFw0yNDA5MDkxMjMwMjlaGA8yMTI0MDgxNjEyMzAyOVowLzELMAkG
A1UEBhMCQ0ExETAPBgNVBAoMCG1iZWQgVExTMQ0wCwYDVQQDDARDZXJ0MIIBIjAN
BgkqhkiG9w0BAQEFAAOCAQ8AMIIBCgKCAQEA1VSS/gKy3zIhWyzyMfIdK3AE11Cl
hkjt7lZyDl0XiaXYe/WlU5yERmzTndULj8xjm2cnPhlGNCxDvZcA/UirWFofTXyH
Dt/qY/lT7s6SSCYs/meSZC7p0feft+dAh8s2y+V5KBkTYJy5l7OuyfsEGk0Wf/jc
Q+9b7Yfk3aIzEO/p2jDVx/TGHNMZebr7sWc7PWAFM3JKqWuUjq2L6S1ni6G2ZBfP
/ulhclCQdDiWk7Iu2LWgprNvwv4mrv5AO6oKRD0o9LQAZbiLU8OhgUz4aa8ZCjev
MkRq1F7+zdGmM33QHypO1cO0mQllFLidT7Vskh8n1WlBHlcj3GGi6/hplwIDAQAB
o2wwajAdBgNVHQ4EFgQU+WqkrgvCgkXdOC+c27HTy0Y2gRgwHwYDVR0jBBgwFoAU
l271sTig+lUoDdXM4sNB+W/3LlcwCQYDVR0TBAIwADALBgNVHQ8EBAMCBaAwEAYJ
YIZIAYb4QgEBBAMDAQAwDQYJKoZIhvcNAQELBQADggIBAB9hx8q+cTawWnJDl3dJ
fPscOxzienT8a2jNiTmSK5OnL6ObrciDXDSl6C6WUx6qyqpvyn00c/W0s1U/2Jag
2IqOKuJszmwIw+LdYBcBqei+ht/BAVFYaR2gbKrcUpIeVgKdf9Fg1QRndx9JpVcC
CZZu+0jqq4LdWZg3ybZXC6zOcBdN0of1VEn5d2Q0sxYeug8s91aWISsAYUidNgem
r/gMyMN4vgh9DdT0bzRjrZtQz7iodqdIdEuzvPhRXcyA/ZnEINXVnx9NHAcCTmW/
0Le+IB93NMWe8mFlwqUMK1R1zQYoQ1S2ZCDnB8FfDvPqrRVgP+1FL/NvJ7Bs2/hw
N8onquFHbyeaG5ge4ocs8I4HRom2Stm7WANSPmSe/gTn9QVSBVmMET6+PcYu9Dsy
uSANz9DFxvrSLfWfba80gc3i4pcSGFrop/sOrHaKSpfMPyiVJY3Cry5RnedAsNfm
HSQ0ongFkEKS/6M6QF9RzT961g8gzd7kd7LlY36vNbQC6dPantOImtruPJdGSVDR
/0TGANE5KaYcI2Ye9pp66oZtOteJOardUrXOA4ZsbdrYJmSKNjd97udis+/GpZUY
e0ea9yFqP+Pfj/k1McMMgXYZfFtTiiePKefZnSnNNxhN9QZ66+7kRg6Py4IS1c8z
QAPsd0qCMgujkPxdS7D6HaWF
-----END CERTIFICATE-----
