Certificate:
    Data:
        Version: 3 (0x2)
        Serial Number: 61 (0x3d)
        Signature Algorithm: sha256WithRSAEncryption
        Issuer: C=CA, O=SELF, OU=SELF, CN=SELF IDENTITY CA
        Validity
            Not Before: Sep  9 12:39:22 2024 GMT
            Not After : Aug 16 12:39:22 2124 GMT
        Subject: C=CA, O=mbed TLS, CN=Cert
        Subject Public Key Info:
            Public Key Algorithm: rsaEncryption
                Public-Key: (2048 bit)
                Modulus:
                    00:d5:54:92:fe:02:b2:df:32:21:5b:2c:f2:31:f2:
                    1d:2b:70:04:d7:50:a5:86:48:ed:ee:56:72:0e:5d:
                    17:89:a5:d8:7b:f5:a5:53:9c:84:46:6c:d3:9d:d5:
                    0b:8f:cc:63:9b:67:27:3e:19:46:34:2c:43:bd:97:
                    00:fd:48:ab:58:5a:1f:4d:7c:87:0e:df:ea:63:f9:
                    53:ee:ce:92:48:26:2c:fe:67:92:64:2e:e9:d1:f7:
                    9f:b7:e7:40:87:cb:36:cb:e5:79:28:19:13:60:9c:
                    b9:97:b3:ae:c9:fb:04:1a:4d:16:7f:f8:dc:43:ef:
                    5b:ed:87:e4:dd:a2:33:10:ef:e9:da:30:d5:c7:f4:
                    c6:1c:d3:19:79:ba:fb:b1:67:3b:3d:60:05:33:72:
                    4a:a9:6b:94:8e:ad:8b:e9:2d:67:8b:a1:b6:64:17:
                    cf:fe:e9:61:72:50:90:74:38:96:93:b2:2e:d8:b5:
                    a0:a6:b3:6f:c2:fe:26:ae:fe:40:3b:aa:0a:44:3d:
                    28:f4:b4:00:65:b8:8b:53:c3:a1:81:4c:f8:69:af:
                    19:0a:37:af:32:44:6a:d4:5e:fe:cd:d1:a6:33:7d:
                    d0:1f:2a:4e:d5:c3:b4:99:09:65:14:b8:9d:4f:b5:
                    6c:92:1f:27:d5:69:41:1e:57:23:dc:61:a2:eb:f8:
                    69:97
                Exponent: 65537 (0x10001)
        X509v3 extensions:
            X509v3 Subject Key Identifier: 
                F9:6A:A4:AE:0B:C2:82:45:DD:38:2F:9C:DB:B1:D3:CB:46:36:81:18
            X509v3 Authority Key Identifier: 
                97:6E:F5:B1:38:A0:FA:55:28:0D:D5:CC:E2:C3:41:F9:6F:F7:2E:57
            X509v3 Basic Constraints: 
                CA:FALSE
            X509v3 Key Usage: 
                Digital Signature, Key Encipherment
            Netscape Cert Type: 
                ...
    Signature Algorithm: sha256WithRSAEncryption
    Signature Value:
        57:a2:84:85:46:b4:9b:99:6b:06:35:2c:c1:b4:d4:e8:06:61:
        fc:0a:5b:2f:79:64:30:78:f9:4b:0e:e9:79:03:f9:79:79:8f:
        58:0c:b1:a8:57:c4:c6:7f:e3:b8:cf:61:c9:3f:de:84:59:a7:
        e9:df:33:5d:45:a3:ba:99:d6:09:65:bb:89:bc:3c:55:01:1d:
        33:5f:1f:b2:a0:d7:47:5e:4f:ed:79:11:67:12:62:29:05:3e:
        28:6a:80:de:e3:2a:71:33:87:26:ba:b2:4d:90:30:ce:c0:4b:
        4c:87:76:12:c9:11:f9:38:23:80:76:c3:75:06:4b:cc:2e:e9:
        d6:d0:9b:b5:a4:0d:67:44:19:02:d8:46:cf:22:01:a5:3a:27:
        22:47:12:d7:73:c1:d2:7b:3f:94:10:49:32:5c:00:cb:ea:0a:
        85:dc:66:8c:7d:a8:88:b7:60:2a:08:b9:89:ad:97:ac:b0:10:
        0a:8d:b1:bf:ec:c4:8d:4e:88:f9:68:ad:b0:1c:cc:ae:29:e3:
        44:c8:66:b4:54:95:08:79:46:09:55:41:48:7a:49:c3:55:a5:
        6d:b4:47:ba:22:8d:44:ca:d2:7e:b6:0c:1d:a8:7a:f5:db:b9:
        4f:80:f0:8e:ae:84:d1:e9:74:ff:2e:78:38:82:b1:ec:0b:e6:
        96:04:27:0f:1d:1d:40:77:1b:72:bf:be:1f:03:44:dd:52:43:
        ff:92:b6:16:64:ba:36:26:6a:18:92:88:e1:2a:1a:f3:38:b6:
        cb:27:1b:aa:ee:77:93:a7:2f:e4:ca:a4:d7:26:12:62:8c:ab:
        d8:ec:e5:09:80:95:bd:3b:70:76:ac:b5:32:6f:0f:00:12:9e:
        23:15:d6:d7:6d:9b:ce:0f:83:a1:49:f4:79:9b:2e:82:ab:1a:
        1d:09:eb:1d:0b:3d:d3:fd:06:bd:78:e5:12:51:7b:33:8a:e1:
        3d:1c:fd:ba:1c:97:f6:65:12:6d:6c:38:d2:3a:dc:34:01:b6:
        2d:4a:f9:14:9f:e9:72:91:57:2e:44:07:e7:71:f4:0a:5f:ce:
        3e:e3:7a:63:17:0b:0f:2b:44:9a:6d:ef:bf:bc:3a:bc:3c:58:
        96:7a:91:7d:21:0a:2c:73:ed:18:2e:d8:05:a4:dd:4c:4b:6f:
        44:71:77:15:63:32:1d:67:1c:63:39:aa:ef:a8:9b:b0:9d:46:
        ca:69:db:7b:00:cb:85:c7:8d:05:dd:c6:93:30:31:3d:f2:33:
        13:c8:29:7a:c8:40:33:1a:19:09:98:e8:cf:03:dc:e6:e0:d3:
        aa:86:15:35:af:b4:1c:0c:de:54:71:fc:23:66:b7:ad:95:ec:
        cb:9d:cd:31:f0:8e:cc:a8
-----BEGIN CERTIFICATE-----
MIIEXjCCAkagAwIBAgIBPTANBgkqhkiG9w0BAQsFADBGMQswCQYDVQQGEwJDQTEN
MAsGA1UECgwEU0VMRjENMAsGA1UECwwEU0VMRjEZMBcGA1UEAwwQU0VMRiBJREVO
VElUWSBDQTAgFw0yNDA5MDkxMjM5MjJaGA8yMTI0MDgxNjEyMzkyMlowLzELMAkG
A1UEBhMCQ0ExETAPBgNVBAoMCG1iZWQgVExTMQ0wCwYDVQQDDARDZXJ0MIIBIjAN
BgkqhkiG9w0BAQEFAAOCAQ8AMIIBCgKCAQEA1VSS/gKy3zIhWyzyMfIdK3AE11Cl
hkjt7lZyDl0XiaXYe/WlU5yERmzTndULj8xjm2cnPhlGNCxDvZcA/UirWFofTXyH
Dt/qY/lT7s6SSCYs/meSZC7p0feft+dAh8s2y+V5KBkTYJy5l7OuyfsEGk0Wf/jc
Q+9b7Yfk3aIzEO/p2jDVx/TGHNMZebr7sWc7PWAFM3JKqWuUjq2L6S1ni6G2ZBfP
/ulhclCQdDiWk7Iu2LWgprNvwv4mrv5AO6oKRD0o9LQAZbiLU8OhgUz4aa8ZCjev
MkRq1F7+zdGmM33QHypO1cO0mQllFLidT7Vskh8n1WlBHlcj3GGi6/hplwIDAQAB
o2wwajAdBgNVHQ4EFgQU+WqkrgvCgkXdOC+c27HTy0Y2gRgwHwYDVR0jBBgwFoAU
l271sTig+lUoDdXM4sNB+W/3LlcwCQYDVR0TBAIwADALBgNVHQ8EBAMCBaAwEAYJ
YIZIAYb4QgEBBAMDAQAwDQYJKoZIhvcNAQELBQADggIBAFeihIVGtJuZawY1LMG0
1OgGYfwKWy95ZDB4+UsO6XkD+Xl5j1gMsahXxMZ/47jPYck/3oRZp+nfM11Fo7qZ
1gllu4m8PFUBHTNfH7Kg10deT+15EWcSYikFPihqgN7jKnEzhya6sk2QMM7AS0yH
dhLJEfk4I4B2w3UGS8wu6dbQm7WkDWdEGQLYRs8iAaU6JyJHEtdzwdJ7P5QQSTJc
AMvqCoXcZox9qIi3YCoIuYmtl6ywEAqNsb/sxI1OiPlorbAczK4p40TIZrRUlQh5
RglVQUh6ScNVpW20R7oijUTK0n62DB2oevXbuU+A8I6uhNHpdP8ueDiCsewL5pYE
Jw8dHUB3G3K/vh8DRN1SQ/+SthZkujYmahiSiOEqGvM4tssnG6rud5OnL+TKpNcm
EmKMq9js5QmAlb07cHastTJvDwASniMV1tdtm84Pg6FJ9HmbLoKrGh0J6x0LPdP9
Br145RJRezOK4T0c/bocl/ZlEm1sONI63DQBti1K+RSf6XKRVy5EB+dx9Apfzj7j
emMXCw8rRJpt77+8Orw8WJZ6kX0hCixz7Rgu2AWk3UxLb0RxdxVjMh1nHGM5qu+o
m7CdRspp23sAy4XHjQXdxpMwMT3yMxPIKXrIQDMaGQmY6M8D3Obg06qGFTWvtBwM
3lRx/CNmt62V7MudzTHwjsyo
-----END CERTIFICATE-----
