Certificate:
    Data:
        Version: 3 (0x2)
        Serial Number: 62 (0x3e)
        Signature Algorithm: sha256WithRSAEncryption
        Issuer: C=CA, O=SELF, OU=SELF, CN=SELF IDENTITY CA
        Validity
            Not Before: Sep  9 12:43:20 2024 GMT
            Not After : Aug 16 12:43:20 2124 GMT
        Subject: C=CA, O=mbed TLS, CN=Cert
        Subject Public Key Info:
            Public Key Algorithm: rsaEncryption
                Public-Key: (2048 bit)
                Modulus:
                    00:d5:54:92:fe:02:b2:df:32:21:5b:2c:f2:31:f2:
                    1d:2b:70:04:d7:50:a5:86:48:ed:ee:56:72:0e:5d:
                    17:89:a5:d8:7b:f5:a5:53:9c:84:46:6c:d3:9d:d5:
                    0b:8f:cc:63:9b:67:27:3e:19:46:34:2c:43:bd:97:
                    00:fd:48:ab:58:5a:1f:4d:7c:87:0e:df:ea:63:f9:
                    53:ee:ce:92:48:26:2c:fe:67:92:64:2e:e9:d1:f7:
                    9f:b7:e7:40:87:cb:36:cb:e5:79:28:19:13:60:9c:
                    b9:97:b3:ae:c9:fb:04:1a:4d:16:7f:f8:dc:43:ef:
                    5b:ed:87:e4:dd:a2:33:10:ef:e9:da:30:d5:c7:f4:
                    c6:1c:d3:19:79:ba:fb:b1:67:3b:3d:60:05:33:72:
                    4a:a9:6b:94:8e:ad:8b:e9:2d:67:8b:a1:b6:64:17:
                    cf:fe:e9:61:72:50:90:74:38:96:93:b2:2e:d8:b5:
                    a0:a6:b3:6f:c2:fe:26:ae:fe:40:3b:aa:0a:44:3d:
                    28:f4:b4:00:65:b8:8b:53:c3:a1:81:4c:f8:69:af:
                    19:0a:37:af:32:44:6a:d4:5e:fe:cd:d1:a6:33:7d:
                    d0:1f:2a:4e:d5:c3:b4:99:09:65:14:b8:9d:4f:b5:
                    6c:92:1f:27:d5:69:41:1e:57:23:dc:61:a2:eb:f8:
                    69:97
                Exponent: 65537 (0x10001)
        X509v3 extensions:
            X509v3 Subject Key Identifier: 
                F9:6A:A4:AE:0B:C2:82:45:DD:38:2F:9C:DB:B1:D3:CB:46:36:81:18
            X509v3 Authority Key Identifier: 
                97:6E:F5:B1:38:A0:FA:55:28:0D:D5:CC:E2:C3:41:F9:6F:F7:2E:57
            X509v3 Basic Constraints: 
                CA:FALSE
            X509v3 Key Usage: 
                Digital Signature, Key Encipherment
            Netscape Cert Type: 
                ...
    Signature Algorithm: sha256WithRSAEncryption
    Signature Value:
        5a:1f:06:0c:2d:ef:aa:6b:72:6d:56:e6:45:6f:8d:55:90:3a:
        62:6a:49:83:87:5d:1b:34:07:6a:17:62:cd:38:3c:82:8c:0b:
        62:59:44:8d:07:85:b0:50:78:fe:bf:4d:6d:9e:13:89:d4:01:
        af:85:df:17:ac:dd:39:97:bc:3f:2a:2e:6f:3f:f7:71:d0:1e:
        0d:f6:52:80:06:27:3a:41:0d:47:2b:4c:6f:7c:73:d7:f8:41:
        33:f0:80:4a:55:9a:b8:a6:56:a5:e6:16:2d:5b:99:6f:10:60:
        dc:0a:7b:84:4b:69:0f:f6:0b:53:3c:ca:26:50:d7:0c:01:41:
        da:fe:07:b9:ba:6b:86:87:d7:a2:64:18:46:24:c0:4d:0e:8a:
        55:cb:f7:ca:91:8e:30:a4:a5:f1:57:90:8f:c9:ac:8f:2a:89:
        56:6e:27:bc:74:a9:02:71:95:00:3e:5c:81:43:72:12:83:f6:
        15:c1:22:71:66:56:62:14:c8:62:c3:77:ab:dd:f5:bc:c9:d4:
        fb:61:ae:57:64:8e:af:2b:06:b2:4c:e3:e4:23:df:3b:50:f1:
        3a:2f:56:94:cb:41:19:5f:3c:47:ce:be:96:8b:2e:af:3f:c9:
        78:ac:99:50:3e:37:5b:ed:40:7d:49:d2:74:49:30:0a:dc:21:
        1b:ff:21:42:8a:03:7a:7a:ac:4b:c8:e5:62:a9:09:0a:42:1b:
        3e:f3:92:b8:42:91:34:89:e5:4b:5f:32:7a:8f:0f:d1:14:8d:
        37:57:10:f2:5c:74:c2:eb:02:bb:56:a4:f5:3e:a7:40:54:a8:
        65:d9:6b:2c:62:3c:82:91:eb:26:12:b5:81:a7:5e:4f:b5:07:
        e7:b6:b2:46:07:8f:76:64:3a:61:ca:a8:3b:e1:d1:77:b2:a3:
        50:c3:15:03:85:fd:31:08:02:b9:c8:45:2a:b5:bf:3c:53:2f:
        2e:03:72:3c:a2:c6:77:da:29:37:7a:7b:35:61:4c:eb:37:82:
        11:28:5b:22:6e:47:72:f7:7b:7f:45:b7:0c:35:25:58:42:69:
        de:1d:41:1f:2e:01:d5:00:2a:73:02:28:c6:43:56:61:86:49:
        8e:af:43:c2:86:bd:b8:b7:e8:e5:3f:20:2f:95:2e:fa:29:98:
        c1:f9:54:1e:fb:22:f7:d8:b0:2e:12:01:83:58:90:b3:7c:73:
        24:37:a5:98:50:2a:5d:6a:94:99:57:59:09:f9:c1:5a:6b:7b:
        ba:fb:20:b6:50:e0:8c:47:b7:e9:11:58:c9:c7:2e:6f:f7:f2:
        f1:a5:15:0e:1a:d1:35:ac:71:5d:67:22:24:f6:6b:ae:a1:c4:
        46:d3:40:98:be:18:c2:90
-----BEGIN CERTIFICATE-----
MIIEXjCCAkagAwIBAgIBPjANBgkqhkiG9w0BAQsFADBGMQswCQYDVQQGEwJDQTEN
MAsGA1UECgwEU0VMRjENMAsGA1UECwwEU0VMRjEZMBcGA1UEAwwQU0VMRiBJREVO
VElUWSBDQTAgFw0yNDA5MDkxMjQzMjBaGA8yMTI0MDgxNjEyNDMyMFowLzELMAkG
A1UEBhMCQ0ExETAPBgNVBAoMCG1iZWQgVExTMQ0wCwYDVQQDDARDZXJ0MIIBIjAN
BgkqhkiG9w0BAQEFAAOCAQ8AMIIBCgKCAQEA1VSS/gKy3zIhWyzyMfIdK3AE11Cl
hkjt7lZyDl0XiaXYe/WlU5yERmzTndULj8xjm2cnPhlGNCxDvZcA/UirWFofTXyH
Dt/qY/lT7s6SSCYs/meSZC7p0feft+dAh8s2y+V5KBkTYJy5l7OuyfsEGk0Wf/jc
Q+9b7Yfk3aIzEO/p2jDVx/TGHNMZebr7sWc7PWAFM3JKqWuUjq2L6S1ni6G2ZBfP
/ulhclCQdDiWk7Iu2LWgprNvwv4mrv5AO6oKRD0o9LQAZbiLU8OhgUz4aa8ZCjev
MkRq1F7+zdGmM33QHypO1cO0mQllFLidT7Vskh8n1WlBHlcj3GGi6/hplwIDAQAB
o2wwajAdBgNVHQ4EFgQU+WqkrgvCgkXdOC+c27HTy0Y2gRgwHwYDVR0jBBgwFoAU
l271sTig+lUoDdXM4sNB+W/3LlcwCQYDVR0TBAIwADALBgNVHQ8EBAMCBaAwEAYJ
YIZIAYb4QgEBBAMDAQAwDQYJKoZIhvcNAQELBQADggIBAFofBgwt76prcm1W5kVv
jVWQOmJqSYOHXRs0B2oXYs04PIKMC2JZRI0HhbBQeP6/TW2eE4nUAa+F3xes3TmX
vD8qLm8/93HQHg32UoAGJzpBDUcrTG98c9f4QTPwgEpVmrimVqXmFi1bmW8QYNwK
e4RLaQ/2C1M8yiZQ1wwBQdr+B7m6a4aH16JkGEYkwE0OilXL98qRjjCkpfFXkI/J
rI8qiVZuJ7x0qQJxlQA+XIFDchKD9hXBInFmVmIUyGLDd6vd9bzJ1Pthrldkjq8r
BrJM4+Qj3ztQ8TovVpTLQRlfPEfOvpaLLq8/yXismVA+N1vtQH1J0nRJMArcIRv/
IUKKA3p6rEvI5WKpCQpCGz7zkrhCkTSJ5UtfMnqPD9EUjTdXEPJcdMLrArtWpPU+
p0BUqGXZayxiPIKR6yYStYGnXk+1B+e2skYHj3ZkOmHKqDvh0Xeyo1DDFQOF/TEI
ArnIRSq1vzxTLy4DcjyixnfaKTd6ezVhTOs3ghEoWyJuR3L3e39Ftww1JVhCad4d
QR8uAdUAKnMCKMZDVmGGSY6vQ8KGvbi36OU/IC+VLvopmMH5VB77IvfYsC4SAYNY
kLN8cyQ3pZhQKl1qlJlXWQn5wVpre7r7ILZQ4IxHt+kRWMnHLm/38vGlFQ4a0TWs
cV1nIiT2a66hxEbTQJi+GMKQ
-----END CERTIFICATE-----
