Certificate:
    Data:
        Version: 3 (0x2)
        Serial Number: 63 (0x3f)
        Signature Algorithm: sha256WithRSAEncryption
        Issuer: C=CA, O=SELF, OU=SELF, CN=SELF IDENTITY CA
        Validity
            Not Before: Sep  9 12:46:48 2024 GMT
            Not After : Aug 16 12:46:48 2124 GMT
        Subject: C=CA, O=mbed TLS, CN=Cert
        Subject Public Key Info:
            Public Key Algorithm: rsaEncryption
                Public-Key: (2048 bit)
                Modulus:
                    00:d5:54:92:fe:02:b2:df:32:21:5b:2c:f2:31:f2:
                    1d:2b:70:04:d7:50:a5:86:48:ed:ee:56:72:0e:5d:
                    17:89:a5:d8:7b:f5:a5:53:9c:84:46:6c:d3:9d:d5:
                    0b:8f:cc:63:9b:67:27:3e:19:46:34:2c:43:bd:97:
                    00:fd:48:ab:58:5a:1f:4d:7c:87:0e:df:ea:63:f9:
                    53:ee:ce:92:48:26:2c:fe:67:92:64:2e:e9:d1:f7:
                    9f:b7:e7:40:87:cb:36:cb:e5:79:28:19:13:60:9c:
                    b9:97:b3:ae:c9:fb:04:1a:4d:16:7f:f8:dc:43:ef:
                    5b:ed:87:e4:dd:a2:33:10:ef:e9:da:30:d5:c7:f4:
                    c6:1c:d3:19:79:ba:fb:b1:67:3b:3d:60:05:33:72:
                    4a:a9:6b:94:8e:ad:8b:e9:2d:67:8b:a1:b6:64:17:
                    cf:fe:e9:61:72:50:90:74:38:96:93:b2:2e:d8:b5:
                    a0:a6:b3:6f:c2:fe:26:ae:fe:40:3b:aa:0a:44:3d:
                    28:f4:b4:00:65:b8:8b:53:c3:a1:81:4c:f8:69:af:
                    19:0a:37:af:32:44:6a:d4:5e:fe:cd:d1:a6:33:7d:
                    d0:1f:2a:4e:d5:c3:b4:99:09:65:14:b8:9d:4f:b5:
                    6c:92:1f:27:d5:69:41:1e:57:23:dc:61:a2:eb:f8:
                    69:97
                Exponent: 65537 (0x10001)
        X509v3 extensions:
            X509v3 Subject Key Identifier: 
                F9:6A:A4:AE:0B:C2:82:45:DD:38:2F:9C:DB:B1:D3:CB:46:36:81:18
            X509v3 Authority Key Identifier: 
                97:6E:F5:B1:38:A0:FA:55:28:0D:D5:CC:E2:C3:41:F9:6F:F7:2E:57
            X509v3 Basic Constraints: 
                CA:FALSE
            X509v3 Key Usage: 
                Digital Signature, Key Encipherment
            Netscape Cert Type: 
                ...
    Signature Algorithm: sha256WithRSAEncryption
    Signature Value:
        2b:18:0b:e1:e8:fc:04:8a:2a:1f:3c:82:81:25:fe:b5:cf:2c:
        9b:bf:03:5a:e0:d4:0c:38:20:ba:2b:9d:b9:25:6f:84:89:b0:
        0a:f4:11:86:89:28:d1:83:d3:b8:c7:c5:64:6b:ce:23:08:09:
        88:f0:73:dd:5a:3c:1e:a7:4d:8c:60:e3:8a:ff:9b:a2:df:00:
        52:a5:bd:ff:9e:cd:15:51:23:46:05:0d:5f:dc:8b:80:62:36:
        81:30:c1:b1:fa:66:a6:e8:32:50:b4:fc:da:fa:fa:bd:10:0e:
        c8:25:7b:2e:3b:95:04:5f:d6:68:2c:ba:48:20:6a:c5:42:cf:
        bf:aa:06:0c:1e:8e:1d:ce:c0:9d:39:c8:c9:96:3b:32:b7:a9:
        46:18:69:98:92:3e:c2:fd:e1:05:a6:ef:70:76:df:26:9e:b8:
        f1:7d:1e:9a:2e:d9:2d:39:1e:d8:51:45:a4:3a:ba:43:67:fa:
        a8:73:56:fa:b9:84:f4:32:29:4d:a6:12:bf:6b:e8:f6:c4:eb:
        3d:6b:d8:82:b7:73:e4:a4:7a:ed:88:1f:34:a2:48:11:88:a4:
        dc:7b:19:66:71:94:3d:5e:f4:a4:7b:2b:d1:d1:ed:48:61:1c:
        ae:29:ca:1d:ce:bb:10:56:71:65:ff:1d:dc:c4:07:0b:31:81:
        09:57:d7:8e:e2:d0:9a:01:c6:d2:ed:83:f2:a8:3f:e9:8b:d6:
        9d:77:ba:32:06:c7:18:f0:2f:c1:d3:98:d2:d5:c7:39:e5:7a:
        b8:db:d3:40:7b:f2:4c:9e:27:cf:84:1d:35:4b:ce:2b:0b:8f:
        3d:19:54:f4:62:f6:74:63:f3:c0:03:f6:d6:84:7a:10:80:f8:
        fc:98:d4:d8:f5:5b:01:bd:11:7d:cf:a4:c1:74:83:db:d8:6b:
        2a:f4:be:2e:bb:6e:b6:5d:59:ec:21:0c:91:9a:c7:51:2c:94:
        0c:bb:bd:ab:e9:77:ff:e4:0d:16:03:6d:a7:66:dc:4f:e1:8f:
        0c:ff:db:7e:74:1d:7b:30:9f:cb:f5:02:ad:96:cc:00:8f:14:
        f3:c7:3f:5c:a2:cc:42:9f:08:dc:d9:94:78:e4:db:9e:e8:de:
        9a:e5:42:a8:39:50:89:68:b4:c7:d0:26:aa:2f:92:0f:9a:67:
        8d:59:00:fd:21:67:28:b0:fb:f2:a4:a4:69:58:d4:20:3f:b2:
        a6:34:20:7f:5e:c5:3f:40:9f:19:8f:ce:c0:01:55:1c:24:64:
        15:87:3a:37:fd:fa:c7:60:2b:1a:f3:7e:23:12:d9:5d:1e:83:
        8b:73:cd:08:b7:0f:3d:cc:61:c7:9c:cc:63:b2:6f:99:f5:fa:
        46:c2:26:ea:66:03:fb:53
-----BEGIN CERTIFICATE-----
MIIEXjCCAkagAwIBAgIBPzANBgkqhkiG9w0BAQsFADBGMQswCQYDVQQGEwJDQTEN
MAsGA1UECgwEU0VMRjENMAsGA1UECwwEU0VMRjEZMBcGA1UEAwwQU0VMRiBJREVO
VElUWSBDQTAgFw0yNDA5MDkxMjQ2NDhaGA8yMTI0MDgxNjEyNDY0OFowLzELMAkG
A1UEBhMCQ0ExETAPBgNVBAoMCG1iZWQgVExTMQ0wCwYDVQQDDARDZXJ0MIIBIjAN
BgkqhkiG9w0BAQEFAAOCAQ8AMIIBCgKCAQEA1VSS/gKy3zIhWyzyMfIdK3AE11Cl
hkjt7lZyDl0XiaXYe/WlU5yERmzTndULj8xjm2cnPhlGNCxDvZcA/UirWFofTXyH
Dt/qY/lT7s6SSCYs/meSZC7p0feft+dAh8s2y+V5KBkTYJy5l7OuyfsEGk0Wf/jc
Q+9b7Yfk3aIzEO/p2jDVx/TGHNMZebr7sWc7PWAFM3JKqWuUjq2L6S1ni6G2ZBfP
/ulhclCQdDiWk7Iu2LWgprNvwv4mrv5AO6oKRD0o9LQAZbiLU8OhgUz4aa8ZCjev
MkRq1F7+zdGmM33QHypO1cO0mQllFLidT7Vskh8n1WlBHlcj3GGi6/hplwIDAQAB
o2wwajAdBgNVHQ4EFgQU+WqkrgvCgkXdOC+c27HTy0Y2gRgwHwYDVR0jBBgwFoAU
l271sTig+lUoDdXM4sNB+W/3LlcwCQYDVR0TBAIwADALBgNVHQ8EBAMCBaAwEAYJ
YIZIAYb4QgEBBAMDAQAwDQYJKoZIhvcNAQELBQADggIBACsYC+Ho/ASKKh88goEl
/rXPLJu/A1rg1Aw4ILornbklb4SJsAr0EYaJKNGD07jHxWRrziMICYjwc91aPB6n
TYxg44r/m6LfAFKlvf+ezRVRI0YFDV/ci4BiNoEwwbH6ZqboMlC0/Nr6+r0QDsgl
ey47lQRf1mgsukggasVCz7+qBgwejh3OwJ05yMmWOzK3qUYYaZiSPsL94QWm73B2
3yaeuPF9Hpou2S05HthRRaQ6ukNn+qhzVvq5hPQyKU2mEr9r6PbE6z1r2IK3c+Sk
eu2IHzSiSBGIpNx7GWZxlD1e9KR7K9HR7UhhHK4pyh3OuxBWcWX/HdzEBwsxgQlX
147i0JoBxtLtg/KoP+mL1p13ujIGxxjwL8HTmNLVxznlerjb00B78kyeJ8+EHTVL
zisLjz0ZVPRi9nRj88AD9taEehCA+PyY1Nj1WwG9EX3PpMF0g9vYayr0vi67brZd
WewhDJGax1EslAy7vavpd//kDRYDbadm3E/hjwz/2350HXswn8v1Aq2WzACPFPPH
P1yizEKfCNzZlHjk257o3prlQqg5UIlotMfQJqovkg+aZ41ZAP0hZyiw+/KkpGlY
1CA/sqY0IH9exT9AnxmPzsABVRwkZBWHOjf9+sdgKxrzfiMS2V0eg4tzzQi3Dz3M
YceczGOyb5n1+kbCJupmA/tT
-----END CERTIFICATE-----
