Certificate:
    Data:
        Version: 3 (0x2)
        Serial Number: 64 (0x40)
        Signature Algorithm: sha256WithRSAEncryption
        Issuer: C=CA, O=SELF, OU=SELF, CN=SELF IDENTITY CA
        Validity
            Not Before: Sep  9 12:48:27 2024 GMT
            Not After : Aug 16 12:48:27 2124 GMT
        Subject: C=CA, O=mbed TLS, CN=Cert
        Subject Public Key Info:
            Public Key Algorithm: rsaEncryption
                Public-Key: (2048 bit)
                Modulus:
                    00:d5:54:92:fe:02:b2:df:32:21:5b:2c:f2:31:f2:
                    1d:2b:70:04:d7:50:a5:86:48:ed:ee:56:72:0e:5d:
                    17:89:a5:d8:7b:f5:a5:53:9c:84:46:6c:d3:9d:d5:
                    0b:8f:cc:63:9b:67:27:3e:19:46:34:2c:43:bd:97:
                    00:fd:48:ab:58:5a:1f:4d:7c:87:0e:df:ea:63:f9:
                    53:ee:ce:92:48:26:2c:fe:67:92:64:2e:e9:d1:f7:
                    9f:b7:e7:40:87:cb:36:cb:e5:79:28:19:13:60:9c:
                    b9:97:b3:ae:c9:fb:04:1a:4d:16:7f:f8:dc:43:ef:
                    5b:ed:87:e4:dd:a2:33:10:ef:e9:da:30:d5:c7:f4:
                    c6:1c:d3:19:79:ba:fb:b1:67:3b:3d:60:05:33:72:
                    4a:a9:6b:94:8e:ad:8b:e9:2d:67:8b:a1:b6:64:17:
                    cf:fe:e9:61:72:50:90:74:38:96:93:b2:2e:d8:b5:
                    a0:a6:b3:6f:c2:fe:26:ae:fe:40:3b:aa:0a:44:3d:
                    28:f4:b4:00:65:b8:8b:53:c3:a1:81:4c:f8:69:af:
                    19:0a:37:af:32:44:6a:d4:5e:fe:cd:d1:a6:33:7d:
                    d0:1f:2a:4e:d5:c3:b4:99:09:65:14:b8:9d:4f:b5:
                    6c:92:1f:27:d5:69:41:1e:57:23:dc:61:a2:eb:f8:
                    69:97
                Exponent: 65537 (0x10001)
        X509v3 extensions:
            X509v3 Subject Key Identifier: 
                F9:6A:A4:AE:0B:C2:82:45:DD:38:2F:9C:DB:B1:D3:CB:46:36:81:18
            X509v3 Authority Key Identifier: 
                97:6E:F5:B1:38:A0:FA:55:28:0D:D5:CC:E2:C3:41:F9:6F:F7:2E:57
            X509v3 Basic Constraints: 
                CA:FALSE
            X509v3 Key Usage: 
                Digital Signature, Key Encipherment
            Netscape Cert Type: 
                ...
    Signature Algorithm: sha256WithRSAEncryption
    Signature Value:
        2d:34:17:c6:bc:15:7a:78:56:4a:2d:ce:ca:97:f8:ee:a8:45:
        19:83:40:4b:95:34:9b:4b:13:7b:48:62:c2:1f:f7:fb:78:d2:
        fd:b8:fe:94:51:38:b8:a3:33:fc:ac:14:f9:31:10:d9:cb:a7:
        a5:2e:bf:54:31:17:2c:75:52:11:eb:e2:70:4c:e0:80:8e:e6:
        26:67:42:4b:76:56:fb:2d:f5:b8:13:cd:96:b5:b8:8f:ab:92:
        3b:0f:66:f9:89:1f:d7:53:d9:61:6c:2b:c3:42:db:05:5a:91:
        8c:2b:bf:10:f9:35:e1:34:53:12:b3:0a:41:3d:63:a3:c6:8d:
        c0:45:9c:f8:fa:6e:5b:34:2a:3a:3a:d3:1c:4d:22:32:7e:1c:
        60:61:33:1a:0d:ad:be:db:b6:b2:b2:bc:3c:c0:54:d2:ac:db:
        4f:95:68:44:1a:1a:e7:4f:b9:ec:eb:7d:4f:b5:89:d2:6c:b6:
        ff:8a:57:74:59:59:66:28:af:c4:1b:6d:6b:64:20:65:a4:4b:
        36:7f:d4:83:8b:6f:4e:e6:64:34:b4:3e:7b:d5:67:c3:25:be:
        c6:b8:91:d9:8d:ef:9a:52:5b:cb:4d:90:44:c2:c3:72:a2:b2:
        f3:2f:b5:ab:8f:79:7a:ec:93:e8:c5:91:62:56:d6:a4:40:e9:
        fc:38:bd:dd:3d:f4:05:9f:a9:0e:ba:57:10:d7:1e:34:0d:fe:
        d8:a2:98:28:35:57:6c:69:64:ed:85:d9:21:c1:64:3a:72:a2:
        88:9a:10:47:1d:1c:03:9b:bd:e0:b1:9d:af:f7:81:6d:2d:89:
        19:15:56:50:40:f9:b4:f7:f1:9e:89:28:e9:02:f1:8e:d3:fc:
        75:ec:4c:86:63:17:a8:ff:f4:8f:c4:60:4f:12:5e:8b:64:cd:
        57:17:04:7f:48:82:18:06:34:3c:ae:86:e9:50:9a:06:00:22:
        48:a4:11:bf:49:b2:74:3e:2d:e6:b0:a6:96:ad:c7:15:6a:cf:
        60:9f:65:b7:91:9a:2f:6d:7e:f5:01:8e:e8:ec:4a:88:da:3c:
        3e:b7:f2:41:66:8c:51:66:05:5e:22:c5:94:b9:71:be:34:4c:
        d8:09:cd:f7:7b:14:39:26:f5:1a:0c:ab:b1:5c:32:7b:fc:f2:
        fc:bb:8b:56:2d:86:9b:d1:ee:3d:77:18:76:1e:f2:ab:a8:e5:
        a8:bb:34:73:3a:80:76:6b:19:d6:26:22:c2:80:c2:2c:e9:ae:
        83:c8:6e:b5:d9:e0:2d:96:a4:fc:33:e3:fe:b5:aa:33:db:a0:
        30:08:7a:22:7b:0c:38:50:0a:1e:13:22:6e:17:5f:69:42:2a:
        5c:61:8d:ca:af:b6:d5:81
-----BEGIN CERTIFICATE-----
MIIEXjCCAkagAwIBAgIBQDANBgkqhkiG9w0BAQsFADBGMQswCQYDVQQGEwJDQTEN
MAsGA1UECgwEU0VMRjENMAsGA1UECwwEU0VMRjEZMBcGA1UEAwwQU0VMRiBJREVO
VElUWSBDQTAgFw0yNDA5MDkxMjQ4MjdaGA8yMTI0MDgxNjEyNDgyN1owLzELMAkG
A1UEBhMCQ0ExETAPBgNVBAoMCG1iZWQgVExTMQ0wCwYDVQQDDARDZXJ0MIIBIjAN
BgkqhkiG9w0BAQEFAAOCAQ8AMIIBCgKCAQEA1VSS/gKy3zIhWyzyMfIdK3AE11Cl
hkjt7lZyDl0XiaXYe/WlU5yERmzTndULj8xjm2cnPhlGNCxDvZcA/UirWFofTXyH
Dt/qY/lT7s6SSCYs/meSZC7p0feft+dAh8s2y+V5KBkTYJy5l7OuyfsEGk0Wf/jc
Q+9b7Yfk3aIzEO/p2jDVx/TGHNMZebr7sWc7PWAFM3JKqWuUjq2L6S1ni6G2ZBfP
/ulhclCQdDiWk7Iu2LWgprNvwv4mrv5AO6oKRD0o9LQAZbiLU8OhgUz4aa8ZCjev
MkRq1F7+zdGmM33QHypO1cO0mQllFLidT7Vskh8n1WlBHlcj3GGi6/hplwIDAQAB
o2wwajAdBgNVHQ4EFgQU+WqkrgvCgkXdOC+c27HTy0Y2gRgwHwYDVR0jBBgwFoAU
l271sTig+lUoDdXM4sNB+W/3LlcwCQYDVR0TBAIwADALBgNVHQ8EBAMCBaAwEAYJ
YIZIAYb4QgEBBAMDAQAwDQYJKoZIhvcNAQELBQADggIBAC00F8a8FXp4VkotzsqX
+O6oRRmDQEuVNJtLE3tIYsIf9/t40v24/pRROLijM/ysFPkxENnLp6Uuv1QxFyx1
UhHr4nBM4ICO5iZnQkt2Vvst9bgTzZa1uI+rkjsPZvmJH9dT2WFsK8NC2wVakYwr
vxD5NeE0UxKzCkE9Y6PGjcBFnPj6bls0Kjo60xxNIjJ+HGBhMxoNrb7btrKyvDzA
VNKs20+VaEQaGudPuezrfU+1idJstv+KV3RZWWYor8QbbWtkIGWkSzZ/1IOLb07m
ZDS0PnvVZ8Mlvsa4kdmN75pSW8tNkETCw3KisvMvtauPeXrsk+jFkWJW1qRA6fw4
vd099AWfqQ66VxDXHjQN/tiimCg1V2xpZO2F2SHBZDpyooiaEEcdHAObveCxna/3
gW0tiRkVVlBA+bT38Z6JKOkC8Y7T/HXsTIZjF6j/9I/EYE8SXotkzVcXBH9IghgG
NDyuhulQmgYAIkikEb9JsnQ+LeawppatxxVqz2CfZbeRmi9tfvUBjujsSojaPD63
8kFmjFFmBV4ixZS5cb40TNgJzfd7FDkm9RoMq7FcMnv88vy7i1YthpvR7j13GHYe
8quo5ai7NHM6gHZrGdYmIsKAwizproPIbrXZ4C2WpPwz4/61qjPboDAIeiJ7DDhQ
Ch4TIm4XX2lCKlxhjcqvttWB
-----END CERTIFICATE-----
