Certificate:
    Data:
        Version: 3 (0x2)
        Serial Number: 65 (0x41)
        Signature Algorithm: sha256WithRSAEncryption
        Issuer: C=CA, O=SELF, OU=SELF, CN=SELF IDENTITY CA
        Validity
            Not Before: Sep  9 12:50:53 2024 GMT
            Not After : Aug 16 12:50:53 2124 GMT
        Subject: C=CA, O=mbed TLS, CN=Cert
        Subject Public Key Info:
            Public Key Algorithm: rsaEncryption
                Public-Key: (2048 bit)
                Modulus:
                    00:d5:54:92:fe:02:b2:df:32:21:5b:2c:f2:31:f2:
                    1d:2b:70:04:d7:50:a5:86:48:ed:ee:56:72:0e:5d:
                    17:89:a5:d8:7b:f5:a5:53:9c:84:46:6c:d3:9d:d5:
                    0b:8f:cc:63:9b:67:27:3e:19:46:34:2c:43:bd:97:
                    00:fd:48:ab:58:5a:1f:4d:7c:87:0e:df:ea:63:f9:
                    53:ee:ce:92:48:26:2c:fe:67:92:64:2e:e9:d1:f7:
                    9f:b7:e7:40:87:cb:36:cb:e5:79:28:19:13:60:9c:
                    b9:97:b3:ae:c9:fb:04:1a:4d:16:7f:f8:dc:43:ef:
                    5b:ed:87:e4:dd:a2:33:10:ef:e9:da:30:d5:c7:f4:
                    c6:1c:d3:19:79:ba:fb:b1:67:3b:3d:60:05:33:72:
                    4a:a9:6b:94:8e:ad:8b:e9:2d:67:8b:a1:b6:64:17:
                    cf:fe:e9:61:72:50:90:74:38:96:93:b2:2e:d8:b5:
                    a0:a6:b3:6f:c2:fe:26:ae:fe:40:3b:aa:0a:44:3d:
                    28:f4:b4:00:65:b8:8b:53:c3:a1:81:4c:f8:69:af:
                    19:0a:37:af:32:44:6a:d4:5e:fe:cd:d1:a6:33:7d:
                    d0:1f:2a:4e:d5:c3:b4:99:09:65:14:b8:9d:4f:b5:
                    6c:92:1f:27:d5:69:41:1e:57:23:dc:61:a2:eb:f8:
                    69:97
                Exponent: 65537 (0x10001)
        X509v3 extensions:
            X509v3 Subject Key Identifier: 
                F9:6A:A4:AE:0B:C2:82:45:DD:38:2F:9C:DB:B1:D3:CB:46:36:81:18
            X509v3 Authority Key Identifier: 
                97:6E:F5:B1:38:A0:FA:55:28:0D:D5:CC:E2:C3:41:F9:6F:F7:2E:57
            X509v3 Basic Constraints: 
                CA:FALSE
            X509v3 Key Usage: 
                Digital Signature, Key Encipherment
            Netscape Cert Type: 
                ...
    Signature Algorithm: sha256WithRSAEncryption
    Signature Value:
        46:20:99:32:fe:df:c1:18:00:e4:5b:2d:a4:c5:49:b6:7c:56:
        46:f0:7b:91:bc:44:2f:ab:a1:49:78:95:39:1a:0a:df:94:45:
        5b:6d:3d:6e:8b:fb:b1:be:50:cf:b9:c8:3e:65:09:18:87:01:
        fd:c6:bb:81:f5:ac:88:a0:01:f4:3c:8b:f1:d3:c8:c6:3d:fc:
        21:98:fb:9f:de:76:d6:f4:ba:1d:16:13:ab:d5:d7:82:13:f4:
        09:28:5e:92:da:81:24:cc:15:62:fb:b7:25:bf:ff:d4:25:d2:
        a4:0d:ba:04:7d:0c:3b:96:fd:ac:22:80:07:e0:eb:68:ed:2e:
        a1:e4:fa:ef:94:5e:1b:90:05:0d:d6:d7:45:4b:f1:a0:84:ad:
        fa:4d:a9:e5:f5:9f:75:f6:eb:bd:40:73:7e:2d:0b:ec:6f:85:
        70:d2:5f:b3:06:70:b8:1a:8d:f0:9c:99:46:38:1c:bd:01:b3:
        49:04:e0:14:18:5c:27:ec:f2:29:e8:85:ba:2b:11:88:ec:f0:
        33:cc:0c:38:8d:7c:c8:a8:81:23:a1:cd:75:be:3e:71:b2:5a:
        5a:4c:8a:ee:2f:8a:14:6f:2c:a0:ec:eb:a5:11:7e:5f:76:e4:
        08:54:98:78:80:9d:c8:19:b0:30:b7:3b:d7:1f:14:b6:cf:2e:
        4a:e6:8e:a0:50:03:3f:f9:c9:24:8e:a2:c5:9b:0f:ba:15:6e:
        a6:b1:c7:99:3f:b1:c0:e9:a4:d9:fe:86:05:4d:29:44:12:d7:
        4c:eb:69:a3:46:9c:38:dc:4d:f9:53:91:0b:d0:4d:3a:96:78:
        dc:4e:63:a5:77:00:33:ff:7b:74:cf:4a:fd:bd:71:eb:1d:ba:
        6f:b4:86:65:58:37:91:c6:ab:ba:f0:3e:75:ef:7c:96:4d:c1:
        a4:04:a8:3f:71:03:39:41:a1:38:dc:0c:0c:32:4b:99:5f:86:
        6f:2f:f2:1d:c5:a4:47:e8:80:a2:a0:84:89:c7:56:44:36:df:
        e4:9a:ce:70:f0:52:24:73:64:9c:15:d6:3c:6e:e0:da:19:80:
        8b:5f:af:a0:5f:b8:72:0c:29:3e:21:99:b1:41:c1:af:64:e4:
        a9:9f:31:ab:49:de:b8:fd:97:87:c2:0e:1a:0d:5f:83:16:58:
        16:0f:a9:27:42:8d:08:cf:45:ff:2c:ea:05:0e:60:ae:50:45:
        61:3f:4c:03:4b:12:bc:34:0d:ec:67:c3:c6:4b:a8:42:a5:cf:
        a0:18:e0:27:99:8b:84:35:de:0e:0c:98:88:76:74:fa:0b:dd:
        90:79:5a:e5:8b:d3:a3:2f:1e:58:51:3b:e2:cf:7c:24:aa:ef:
        4f:83:93:e1:62:d6:72:5f
-----BEGIN CERTIFICATE-----
MIIEXjCCAkagAwIBAgIBQTANBgkqhkiG9w0BAQsFADBGMQswCQYDVQQGEwJDQTEN
MAsGA1UECgwEU0VMRjENMAsGA1UECwwEU0VMRjEZMBcGA1UEAwwQU0VMRiBJREVO
VElUWSBDQTAgFw0yNDA5MDkxMjUwNTNaGA8yMTI0MDgxNjEyNTA1M1owLzELMAkG
A1UEBhMCQ0ExETAPBgNVBAoMCG1iZWQgVExTMQ0wCwYDVQQDDARDZXJ0MIIBIjAN
BgkqhkiG9w0BAQEFAAOCAQ8AMIIBCgKCAQEA1VSS/gKy3zIhWyzyMfIdK3AE11Cl
hkjt7lZyDl0XiaXYe/WlU5yERmzTndULj8xjm2cnPhlGNCxDvZcA/UirWFofTXyH
Dt/qY/lT7s6SSCYs/meSZC7p0feft+dAh8s2y+V5KBkTYJy5l7OuyfsEGk0Wf/jc
Q+9b7Yfk3aIzEO/p2jDVx/TGHNMZebr7sWc7PWAFM3JKqWuUjq2L6S1ni6G2ZBfP
/ulhclCQdDiWk7Iu2LWgprNvwv4mrv5AO6oKRD0o9LQAZbiLU8OhgUz4aa8ZCjev
MkRq1F7+zdGmM33QHypO1cO0mQllFLidT7Vskh8n1WlBHlcj3GGi6/hplwIDAQAB
o2wwajAdBgNVHQ4EFgQU+WqkrgvCgkXdOC+c27HTy0Y2gRgwHwYDVR0jBBgwFoAU
l271sTig+lUoDdXM4sNB+W/3LlcwCQYDVR0TBAIwADALBgNVHQ8EBAMCBaAwEAYJ
YIZIAYb4QgEBBAMDAQAwDQYJKoZIhvcNAQELBQADggIBAEYgmTL+38EYAORbLaTF
SbZ8Vkbwe5G8RC+roUl4lTkaCt+URVttPW6L+7G+UM+5yD5lCRiHAf3Gu4H1rIig
AfQ8i/HTyMY9/CGY+5/edtb0uh0WE6vV14IT9AkoXpLagSTMFWL7tyW//9Ql0qQN
ugR9DDuW/awigAfg62jtLqHk+u+UXhuQBQ3W10VL8aCErfpNqeX1n3X2671Ac34t
C+xvhXDSX7MGcLgajfCcmUY4HL0Bs0kE4BQYXCfs8inohborEYjs8DPMDDiNfMio
gSOhzXW+PnGyWlpMiu4vihRvLKDs66URfl925AhUmHiAncgZsDC3O9cfFLbPLkrm
jqBQAz/5ySSOosWbD7oVbqaxx5k/scDppNn+hgVNKUQS10zraaNGnDjcTflTkQvQ
TTqWeNxOY6V3ADP/e3TPSv29cesdum+0hmVYN5HGq7rwPnXvfJZNwaQEqD9xAzlB
oTjcDAwyS5lfhm8v8h3FpEfogKKghInHVkQ23+SaznDwUiRzZJwV1jxu4NoZgItf
r6BfuHIMKT4hmbFBwa9k5KmfMatJ3rj9l4fCDhoNX4MWWBYPqSdCjQjPRf8s6gUO
YK5QRWE/TANLErw0Dexnw8ZLqEKlz6AY4CeZi4Q13g4MmIh2dPoL3ZB5WuWL06Mv
HlhRO+LPfCSq70+Dk+Fi1nJf
-----END CERTIFICATE-----
