Certificate:
    Data:
        Version: 3 (0x2)
        Serial Number: 66 (0x42)
        Signature Algorithm: sha256WithRSAEncryption
        Issuer: C=CA, O=SELF, OU=SELF, CN=SELF IDENTITY CA
        Validity
            Not Before: Sep  9 12:51:27 2024 GMT
            Not After : Aug 16 12:51:27 2124 GMT
        Subject: C=CA, O=mbed TLS, CN=Cert
        Subject Public Key Info:
            Public Key Algorithm: rsaEncryption
                Public-Key: (2048 bit)
                Modulus:
                    00:d5:54:92:fe:02:b2:df:32:21:5b:2c:f2:31:f2:
                    1d:2b:70:04:d7:50:a5:86:48:ed:ee:56:72:0e:5d:
                    17:89:a5:d8:7b:f5:a5:53:9c:84:46:6c:d3:9d:d5:
                    0b:8f:cc:63:9b:67:27:3e:19:46:34:2c:43:bd:97:
                    00:fd:48:ab:58:5a:1f:4d:7c:87:0e:df:ea:63:f9:
                    53:ee:ce:92:48:26:2c:fe:67:92:64:2e:e9:d1:f7:
                    9f:b7:e7:40:87:cb:36:cb:e5:79:28:19:13:60:9c:
                    b9:97:b3:ae:c9:fb:04:1a:4d:16:7f:f8:dc:43:ef:
                    5b:ed:87:e4:dd:a2:33:10:ef:e9:da:30:d5:c7:f4:
                    c6:1c:d3:19:79:ba:fb:b1:67:3b:3d:60:05:33:72:
                    4a:a9:6b:94:8e:ad:8b:e9:2d:67:8b:a1:b6:64:17:
                    cf:fe:e9:61:72:50:90:74:38:96:93:b2:2e:d8:b5:
                    a0:a6:b3:6f:c2:fe:26:ae:fe:40:3b:aa:0a:44:3d:
                    28:f4:b4:00:65:b8:8b:53:c3:a1:81:4c:f8:69:af:
                    19:0a:37:af:32:44:6a:d4:5e:fe:cd:d1:a6:33:7d:
                    d0:1f:2a:4e:d5:c3:b4:99:09:65:14:b8:9d:4f:b5:
                    6c:92:1f:27:d5:69:41:1e:57:23:dc:61:a2:eb:f8:
                    69:97
                Exponent: 65537 (0x10001)
        X509v3 extensions:
            X509v3 Subject Key Identifier: 
                F9:6A:A4:AE:0B:C2:82:45:DD:38:2F:9C:DB:B1:D3:CB:46:36:81:18
            X509v3 Authority Key Identifier: 
                97:6E:F5:B1:38:A0:FA:55:28:0D:D5:CC:E2:C3:41:F9:6F:F7:2E:57
            X509v3 Basic Constraints: 
                CA:FALSE
            X509v3 Key Usage: 
                Digital Signature, Key Encipherment
            Netscape Cert Type: 
                ...
    Signature Algorithm: sha256WithRSAEncryption
    Signature Value:
        54:e2:cc:40:0a:7d:f5:db:6b:c9:c9:7a:f0:6f:6f:20:97:14:
        68:c5:53:2b:40:5e:f4:80:57:e0:48:5f:92:da:e9:63:77:73:
        4a:2b:dc:bd:43:1a:e6:f5:ba:42:66:bd:c9:66:48:3a:63:a7:
        e8:c7:8a:3f:9b:7c:51:2d:b1:3e:88:10:ff:42:6e:22:05:6a:
        d2:e2:15:1c:9b:cb:c4:ce:eb:a2:78:c2:bc:56:09:0f:37:10:
        0c:5a:b3:ba:1e:92:77:8f:f5:8d:5d:6c:f0:30:ad:50:fe:15:
        33:c5:66:26:c3:98:78:08:05:76:45:26:5d:cb:56:ac:81:88:
        1a:a0:2f:2c:b7:c2:2f:ce:52:e0:fd:67:86:fa:19:90:03:b5:
        60:fe:52:95:29:74:56:4b:a2:74:04:fb:75:84:48:4f:bf:09:
        c5:1f:7d:16:30:5b:4b:31:e0:bc:0d:14:d6:9d:b0:59:c6:ce:
        50:48:8f:30:30:15:ee:dc:76:3c:47:78:47:c0:fd:65:fb:88:
        f3:58:85:af:b9:0a:88:a7:06:c5:db:5d:25:60:87:55:d9:50:
        b6:b7:16:37:23:c9:3e:d1:6a:94:d0:42:b0:43:c0:40:5b:c8:
        d1:ac:2e:b5:06:65:db:74:71:30:0c:9c:ce:25:a6:5c:bd:f2:
        43:08:50:82:88:52:55:3d:2f:5a:ce:26:3f:b4:90:07:49:5d:
        12:02:fb:a7:98:bf:98:dc:b3:63:e2:04:cb:47:f1:b5:a4:ec:
        e3:f3:21:f1:e7:f1:b5:5e:21:86:98:29:9f:65:bb:e0:9f:d6:
        26:2d:88:87:3b:fe:96:8d:1f:21:47:a7:43:1f:cd:59:0d:7c:
        6c:f3:36:73:c6:7b:a0:31:1a:30:09:db:ae:2b:f1:49:d3:43:
        34:98:9c:8d:e9:6d:5b:93:e9:14:6c:c5:b7:08:c1:18:d3:29:
        0d:ea:83:16:4f:ab:ac:fc:fd:a1:6e:b3:c3:b8:fa:19:03:1e:
        cf:07:39:eb:94:24:9a:b1:aa:28:c4:8a:27:db:8c:82:b6:69:
        3d:27:32:39:f1:1c:27:3d:50:e6:9f:38:2b:1d:45:65:5e:71:
        d2:e1:03:b7:a2:8b:c3:f8:7c:95:8a:47:a7:05:c9:fd:5d:bb:
        4e:52:b9:70:b1:2b:f1:89:eb:54:88:6c:60:b8:b6:93:6e:6d:
        d9:12:4f:e9:a5:71:96:b2:0a:7e:f4:9e:68:0c:32:83:31:e0:
        48:0f:03:60:a2:08:65:d1:25:2e:71:7c:c6:f7:8a:76:fd:24:
        fb:33:45:72:45:bc:b4:97:18:44:b3:a5:a2:ed:44:a1:de:e7:
        52:01:f1:24:b1:e0:d2:8f
-----BEGIN CERTIFICATE-----
MIIEXjCCAkagAwIBAgIBQjANBgkqhkiG9w0BAQsFADBGMQswCQYDVQQGEwJDQTEN
MAsGA1UECgwEU0VMRjENMAsGA1UECwwEU0VMRjEZMBcGA1UEAwwQU0VMRiBJREVO
VElUWSBDQTAgFw0yNDA5MDkxMjUxMjdaGA8yMTI0MDgxNjEyNTEyN1owLzELMAkG
A1UEBhMCQ0ExETAPBgNVBAoMCG1iZWQgVExTMQ0wCwYDVQQDDARDZXJ0MIIBIjAN
BgkqhkiG9w0BAQEFAAOCAQ8AMIIBCgKCAQEA1VSS/gKy3zIhWyzyMfIdK3AE11Cl
hkjt7lZyDl0XiaXYe/WlU5yERmzTndULj8xjm2cnPhlGNCxDvZcA/UirWFofTXyH
Dt/qY/lT7s6SSCYs/meSZC7p0feft+dAh8s2y+V5KBkTYJy5l7OuyfsEGk0Wf/jc
Q+9b7Yfk3aIzEO/p2jDVx/TGHNMZebr7sWc7PWAFM3JKqWuUjq2L6S1ni6G2ZBfP
/ulhclCQdDiWk7Iu2LWgprNvwv4mrv5AO6oKRD0o9LQAZbiLU8OhgUz4aa8ZCjev
MkRq1F7+zdGmM33QHypO1cO0mQllFLidT7Vskh8n1WlBHlcj3GGi6/hplwIDAQAB
o2wwajAdBgNVHQ4EFgQU+WqkrgvCgkXdOC+c27HTy0Y2gRgwHwYDVR0jBBgwFoAU
l271sTig+lUoDdXM4sNB+W/3LlcwCQYDVR0TBAIwADALBgNVHQ8EBAMCBaAwEAYJ
YIZIAYb4QgEBBAMDAQAwDQYJKoZIhvcNAQELBQADggIBAFTizEAKffXba8nJevBv
byCXFGjFUytAXvSAV+BIX5La6WN3c0or3L1DGub1ukJmvclmSDpjp+jHij+bfFEt
sT6IEP9CbiIFatLiFRyby8TO66J4wrxWCQ83EAxas7oekneP9Y1dbPAwrVD+FTPF
ZibDmHgIBXZFJl3LVqyBiBqgLyy3wi/OUuD9Z4b6GZADtWD+UpUpdFZLonQE+3WE
SE+/CcUffRYwW0sx4LwNFNadsFnGzlBIjzAwFe7cdjxHeEfA/WX7iPNYha+5Coin
BsXbXSVgh1XZULa3FjcjyT7RapTQQrBDwEBbyNGsLrUGZdt0cTAMnM4lply98kMI
UIKIUlU9L1rOJj+0kAdJXRIC+6eYv5jcs2PiBMtH8bWk7OPzIfHn8bVeIYaYKZ9l
u+Cf1iYtiIc7/paNHyFHp0MfzVkNfGzzNnPGe6AxGjAJ264r8UnTQzSYnI3pbVuT
6RRsxbcIwRjTKQ3qgxZPq6z8/aFus8O4+hkDHs8HOeuUJJqxqijEiifbjIK2aT0n
MjnxHCc9UOafOCsdRWVecdLhA7eii8P4fJWKR6cFyf1du05SuXCxK/GJ61SIbGC4
tpNubdkST+mlcZayCn70nmgMMoMx4EgPA2CiCGXRJS5xfMb3inb9JPszRXJFvLSX
GESzpaLtRKHe51IB8SSx4NKP
-----END CERTIFICATE-----
