Certificate:
    Data:
        Version: 3 (0x2)
        Serial Number: 67 (0x43)
        Signature Algorithm: sha256WithRSAEncryption
        Issuer: C=CA, O=SELF, OU=SELF, CN=SELF IDENTITY CA
        Validity
            Not Before: Sep  9 12:53:04 2024 GMT
            Not After : Aug 16 12:53:04 2124 GMT
        Subject: C=CA, O=mbed TLS, CN=Cert
        Subject Public Key Info:
            Public Key Algorithm: rsaEncryption
                Public-Key: (2048 bit)
                Modulus:
                    00:d5:54:92:fe:02:b2:df:32:21:5b:2c:f2:31:f2:
                    1d:2b:70:04:d7:50:a5:86:48:ed:ee:56:72:0e:5d:
                    17:89:a5:d8:7b:f5:a5:53:9c:84:46:6c:d3:9d:d5:
                    0b:8f:cc:63:9b:67:27:3e:19:46:34:2c:43:bd:97:
                    00:fd:48:ab:58:5a:1f:4d:7c:87:0e:df:ea:63:f9:
                    53:ee:ce:92:48:26:2c:fe:67:92:64:2e:e9:d1:f7:
                    9f:b7:e7:40:87:cb:36:cb:e5:79:28:19:13:60:9c:
                    b9:97:b3:ae:c9:fb:04:1a:4d:16:7f:f8:dc:43:ef:
                    5b:ed:87:e4:dd:a2:33:10:ef:e9:da:30:d5:c7:f4:
                    c6:1c:d3:19:79:ba:fb:b1:67:3b:3d:60:05:33:72:
                    4a:a9:6b:94:8e:ad:8b:e9:2d:67:8b:a1:b6:64:17:
                    cf:fe:e9:61:72:50:90:74:38:96:93:b2:2e:d8:b5:
                    a0:a6:b3:6f:c2:fe:26:ae:fe:40:3b:aa:0a:44:3d:
                    28:f4:b4:00:65:b8:8b:53:c3:a1:81:4c:f8:69:af:
                    19:0a:37:af:32:44:6a:d4:5e:fe:cd:d1:a6:33:7d:
                    d0:1f:2a:4e:d5:c3:b4:99:09:65:14:b8:9d:4f:b5:
                    6c:92:1f:27:d5:69:41:1e:57:23:dc:61:a2:eb:f8:
                    69:97
                Exponent: 65537 (0x10001)
        X509v3 extensions:
            X509v3 Subject Key Identifier: 
                F9:6A:A4:AE:0B:C2:82:45:DD:38:2F:9C:DB:B1:D3:CB:46:36:81:18
            X509v3 Authority Key Identifier: 
                97:6E:F5:B1:38:A0:FA:55:28:0D:D5:CC:E2:C3:41:F9:6F:F7:2E:57
            X509v3 Basic Constraints: 
                CA:FALSE
            X509v3 Key Usage: 
                Digital Signature, Key Encipherment
            Netscape Cert Type: 
                ...
    Signature Algorithm: sha256WithRSAEncryption
    Signature Value:
        24:94:e3:0b:68:08:a7:c9:43:e9:ea:63:15:cb:44:3b:c4:c1:
        b8:82:b1:13:15:07:96:47:bb:f9:92:2b:93:d7:da:69:01:78:
        2c:0f:0b:f9:5d:52:4f:f3:50:e9:f9:1a:67:20:26:f8:bb:18:
        2d:84:a3:81:83:26:50:d0:48:9a:e9:6c:43:d5:03:31:11:1b:
        32:d7:c5:1d:19:dd:6d:7a:08:c3:7c:64:67:72:43:50:a5:34:
        5b:e0:70:6d:ab:2b:8c:ac:2f:88:3d:19:26:cf:85:5d:93:d9:
        aa:aa:50:91:b2:6e:34:34:7c:b2:47:e3:7a:6b:3a:fc:aa:e0:
        82:0d:68:a4:b0:e9:d5:25:1c:e3:75:1c:b0:87:e3:ea:1f:76:
        a6:1d:99:1f:ec:55:04:02:4d:1d:a6:a1:7b:f7:7e:d3:d5:e2:
        b2:96:dc:2e:db:65:a5:25:ca:98:35:24:f2:00:a2:3f:90:ea:
        d4:ab:b5:cd:e9:b6:d3:bd:0f:3e:69:21:b4:94:c0:17:ee:29:
        b8:5a:8c:53:50:1e:7e:70:e6:43:fe:c2:4d:2c:71:2c:18:4e:
        f1:16:d8:04:ef:0a:81:ae:01:53:37:20:74:db:28:51:73:2c:
        58:59:69:db:9c:4b:d1:b3:f7:ea:06:ad:b4:95:34:1a:02:43:
        d5:1e:7a:23:23:b1:47:15:6d:25:ba:ae:96:0b:a2:09:c8:af:
        41:50:1b:ec:59:66:80:33:8a:ca:b3:f2:29:6d:17:f0:da:89:
        bc:66:db:d6:fd:fe:8c:38:c8:ee:5d:05:cd:7e:85:95:8e:08:
        13:01:ed:21:c6:98:e2:5b:cc:b9:3b:d5:2a:61:c0:c7:17:b5:
        3f:6b:3e:52:4a:da:f8:59:6d:20:90:92:1b:b4:d1:0d:30:75:
        26:3b:23:e6:b8:2f:75:f3:64:53:90:0c:7d:1a:01:f3:1a:69:
        0e:0e:12:7f:22:cd:fe:91:19:67:92:db:71:a9:29:d8:d0:71:
        6e:ff:45:c9:e0:34:ea:a4:c6:4e:d0:01:fe:66:4d:32:e3:cb:
        5a:b5:5e:0a:fb:e2:1e:1d:50:9f:f5:1b:21:ac:8e:a8:f5:b6:
        ea:47:a4:c6:09:2b:02:5c:bd:f8:8f:31:08:8c:5f:90:c4:61:
        86:aa:b5:b8:26:3b:c8:c0:74:f6:a4:8e:83:dd:df:f2:6d:dc:
        5a:fe:b1:29:75:b6:db:5e:7b:06:ff:d1:f1:66:2d:c1:d4:b4:
        b0:9d:2b:8c:40:34:51:fc:44:b1:cd:cd:40:4a:28:76:e9:0d:
        97:c4:fe:ba:af:b5:bf:55:33:a5:1e:df:9d:75:d7:bc:f2:34:
        89:b5:0a:7e:b6:1e:6e:69
-----BEGIN CERTIFICATE-----
MIIEXjCCAkagAwIBAgIBQzANBgkqhkiG9w0BAQsFADBGMQswCQYDVQQGEwJDQTEN
MAsGA1UECgwEU0VMRjENMAsGA1UECwwEU0VMRjEZMBcGA1UEAwwQU0VMRiBJREVO
VElUWSBDQTAgFw0yNDA5MDkxMjUzMDRaGA8yMTI0MDgxNjEyNTMwNFowLzELMAkG
A1UEBhMCQ0ExETAPBgNVBAoMCG1iZWQgVExTMQ0wCwYDVQQDDARDZXJ0MIIBIjAN
BgkqhkiG9w0BAQEFAAOCAQ8AMIIBCgKCAQEA1VSS/gKy3zIhWyzyMfIdK3AE11Cl
hkjt7lZyDl0XiaXYe/WlU5yERmzTndULj8xjm2cnPhlGNCxDvZcA/UirWFofTXyH
Dt/qY/lT7s6SSCYs/meSZC7p0feft+dAh8s2y+V5KBkTYJy5l7OuyfsEGk0Wf/jc
Q+9b7Yfk3aIzEO/p2jDVx/TGHNMZebr7sWc7PWAFM3JKqWuUjq2L6S1ni6G2ZBfP
/ulhclCQdDiWk7Iu2LWgprNvwv4mrv5AO6oKRD0o9LQAZbiLU8OhgUz4aa8ZCjev
MkRq1F7+zdGmM33QHypO1cO0mQllFLidT7Vskh8n1WlBHlcj3GGi6/hplwIDAQAB
o2wwajAdBgNVHQ4EFgQU+WqkrgvCgkXdOC+c27HTy0Y2gRgwHwYDVR0jBBgwFoAU
l271sTig+lUoDdXM4sNB+W/3LlcwCQYDVR0TBAIwADALBgNVHQ8EBAMCBaAwEAYJ
YIZIAYb4QgEBBAMDAQAwDQYJKoZIhvcNAQELBQADggIBACSU4wtoCKfJQ+nqYxXL
RDvEwbiCsRMVB5ZHu/mSK5PX2mkBeCwPC/ldUk/zUOn5GmcgJvi7GC2Eo4GDJlDQ
SJrpbEPVAzERGzLXxR0Z3W16CMN8ZGdyQ1ClNFvgcG2rK4ysL4g9GSbPhV2T2aqq
UJGybjQ0fLJH43prOvyq4IINaKSw6dUlHON1HLCH4+ofdqYdmR/sVQQCTR2moXv3
ftPV4rKW3C7bZaUlypg1JPIAoj+Q6tSrtc3pttO9Dz5pIbSUwBfuKbhajFNQHn5w
5kP+wk0scSwYTvEW2ATvCoGuAVM3IHTbKFFzLFhZaducS9Gz9+oGrbSVNBoCQ9Ue
eiMjsUcVbSW6rpYLognIr0FQG+xZZoAzisqz8iltF/Daibxm29b9/ow4yO5dBc1+
hZWOCBMB7SHGmOJbzLk71SphwMcXtT9rPlJK2vhZbSCQkhu00Q0wdSY7I+a4L3Xz
ZFOQDH0aAfMaaQ4OEn8izf6RGWeS23GpKdjQcW7/RcngNOqkxk7QAf5mTTLjy1q1
Xgr74h4dUJ/1GyGsjqj1tupHpMYJKwJcvfiPMQiMX5DEYYaqtbgmO8jAdPakjoPd
3/Jt3Fr+sSl1ttteewb/0fFmLcHUtLCdK4xANFH8RLHNzUBKKHbpDZfE/rqvtb9V
M6Ue351117zyNIm1Cn62Hm5p
-----END CERTIFICATE-----
