Certificate:
    Data:
        Version: 3 (0x2)
        Serial Number: 68 (0x44)
        Signature Algorithm: sha256WithRSAEncryption
        Issuer: C=CA, O=SELF, OU=SELF, CN=SELF IDENTITY CA
        Validity
            Not Before: Sep  9 12:53:33 2024 GMT
            Not After : Aug 16 12:53:33 2124 GMT
        Subject: C=CA, O=mbed TLS, CN=Cert
        Subject Public Key Info:
            Public Key Algorithm: rsaEncryption
                Public-Key: (2048 bit)
                Modulus:
                    00:d5:54:92:fe:02:b2:df:32:21:5b:2c:f2:31:f2:
                    1d:2b:70:04:d7:50:a5:86:48:ed:ee:56:72:0e:5d:
                    17:89:a5:d8:7b:f5:a5:53:9c:84:46:6c:d3:9d:d5:
                    0b:8f:cc:63:9b:67:27:3e:19:46:34:2c:43:bd:97:
                    00:fd:48:ab:58:5a:1f:4d:7c:87:0e:df:ea:63:f9:
                    53:ee:ce:92:48:26:2c:fe:67:92:64:2e:e9:d1:f7:
                    9f:b7:e7:40:87:cb:36:cb:e5:79:28:19:13:60:9c:
                    b9:97:b3:ae:c9:fb:04:1a:4d:16:7f:f8:dc:43:ef:
                    5b:ed:87:e4:dd:a2:33:10:ef:e9:da:30:d5:c7:f4:
                    c6:1c:d3:19:79:ba:fb:b1:67:3b:3d:60:05:33:72:
                    4a:a9:6b:94:8e:ad:8b:e9:2d:67:8b:a1:b6:64:17:
                    cf:fe:e9:61:72:50:90:74:38:96:93:b2:2e:d8:b5:
                    a0:a6:b3:6f:c2:fe:26:ae:fe:40:3b:aa:0a:44:3d:
                    28:f4:b4:00:65:b8:8b:53:c3:a1:81:4c:f8:69:af:
                    19:0a:37:af:32:44:6a:d4:5e:fe:cd:d1:a6:33:7d:
                    d0:1f:2a:4e:d5:c3:b4:99:09:65:14:b8:9d:4f:b5:
                    6c:92:1f:27:d5:69:41:1e:57:23:dc:61:a2:eb:f8:
                    69:97
                Exponent: 65537 (0x10001)
        X509v3 extensions:
            X509v3 Subject Key Identifier: 
                F9:6A:A4:AE:0B:C2:82:45:DD:38:2F:9C:DB:B1:D3:CB:46:36:81:18
            X509v3 Authority Key Identifier: 
                97:6E:F5:B1:38:A0:FA:55:28:0D:D5:CC:E2:C3:41:F9:6F:F7:2E:57
            X509v3 Basic Constraints: 
                CA:FALSE
            X509v3 Key Usage: 
                Digital Signature, Key Encipherment
            Netscape Cert Type: 
                ...
    Signature Algorithm: sha256WithRSAEncryption
    Signature Value:
        28:33:b8:97:95:7a:81:a5:9b:e0:bc:67:e7:71:3c:bc:b1:1a:
        61:99:23:6a:5d:92:b7:85:ca:cc:4e:d9:73:80:fd:9b:cc:d0:
        a9:4e:55:09:4a:68:63:cc:3e:d5:fd:2a:33:c3:cb:6c:a9:89:
        8d:95:c4:2b:46:06:4d:2a:e8:64:cd:84:e2:fc:96:c1:fc:b1:
        ff:55:b1:ce:d8:5a:7f:be:58:52:e8:25:f2:d1:bf:70:e2:ee:
        44:8b:8d:e1:0b:f1:bf:8b:4b:82:15:a7:d9:d4:11:98:e1:a4:
        8e:ba:0c:69:f3:15:a2:33:a7:d3:aa:ec:96:7d:64:2c:1a:a0:
        66:4e:97:9b:5b:9b:2d:4e:e5:84:bc:fb:63:33:d9:d1:11:09:
        14:8d:1d:87:82:5d:2f:cb:91:59:d4:00:1f:6c:1b:69:bf:59:
        35:fa:9f:0e:9a:13:6c:ce:49:e9:2c:d9:17:18:48:8f:c0:e6:
        a3:18:98:8b:ec:1d:a6:ed:db:03:a6:2c:eb:bd:17:c2:6a:8a:
        89:6b:54:db:8d:67:2e:0d:71:77:e9:43:85:b3:4c:a1:eb:df:
        11:e4:ee:25:6c:80:44:1b:59:47:b2:08:a5:a1:3e:15:93:3d:
        6f:0a:b5:9c:c7:66:28:68:10:38:80:cd:6d:29:2d:da:4e:f0:
        2f:ed:1d:9f:d2:d2:ad:14:9d:2f:96:bb:38:93:34:10:c6:65:
        34:d0:ca:c6:e5:1f:a1:09:6a:20:5a:e7:ca:93:cd:77:30:3e:
        d8:c5:cb:8d:17:27:6f:fc:2c:c6:77:21:b8:de:2d:76:e1:fe:
        8d:fd:51:08:20:4e:8e:5a:45:bf:61:20:fb:36:d3:70:1f:9b:
        41:b9:fb:c9:7a:2e:7a:91:ce:03:fd:79:71:01:9f:53:97:9f:
        7f:92:1d:b7:30:77:63:8a:c7:38:92:97:35:5f:cd:9d:a2:28:
        1f:01:e8:a1:87:85:ed:b0:a5:a5:3a:da:71:95:43:9f:b9:7d:
        1a:7e:10:2c:a3:df:08:2e:ec:72:0d:ef:62:76:87:6c:eb:62:
        83:2b:e8:5a:78:9b:78:a5:88:92:78:14:4a:d6:b8:40:72:c5:
        3f:00:d0:2b:83:f1:84:36:78:8c:f8:40:4c:d0:4e:58:52:04:
        a7:45:5a:35:4e:50:78:63:7c:df:c2:06:7f:bc:44:b7:99:87:
        ee:f4:ff:af:a8:ea:40:b8:52:df:a4:2b:e0:6f:fa:8f:4e:6f:
        d4:bb:46:03:b2:c4:e7:87:bd:f4:a3:be:98:f5:8b:f1:13:19:
        be:9b:0e:59:4b:4f:ae:42:8e:e8:f9:71:a8:00:03:62:f5:e6:
        57:8a:ec:d3:89:97:ae:59
-----BEGIN CERTIFICATE-----
MIIEXjCCAkagAwIBAgIBRDANBgkqhkiG9w0BAQsFADBGMQswCQYDVQQGEwJDQTEN
MAsGA1UECgwEU0VMRjENMAsGA1UECwwEU0VMRjEZMBcGA1UEAwwQU0VMRiBJREVO
VElUWSBDQTAgFw0yNDA5MDkxMjUzMzNaGA8yMTI0MDgxNjEyNTMzM1owLzELMAkG
A1UEBhMCQ0ExETAPBgNVBAoMCG1iZWQgVExTMQ0wCwYDVQQDDARDZXJ0MIIBIjAN
BgkqhkiG9w0BAQEFAAOCAQ8AMIIBCgKCAQEA1VSS/gKy3zIhWyzyMfIdK3AE11Cl
hkjt7lZyDl0XiaXYe/WlU5yERmzTndULj8xjm2cnPhlGNCxDvZcA/UirWFofTXyH
Dt/qY/lT7s6SSCYs/meSZC7p0feft+dAh8s2y+V5KBkTYJy5l7OuyfsEGk0Wf/jc
Q+9b7Yfk3aIzEO/p2jDVx/TGHNMZebr7sWc7PWAFM3JKqWuUjq2L6S1ni6G2ZBfP
/ulhclCQdDiWk7Iu2LWgprNvwv4mrv5AO6oKRD0o9LQAZbiLU8OhgUz4aa8ZCjev
MkRq1F7+zdGmM33QHypO1cO0mQllFLidT7Vskh8n1WlBHlcj3GGi6/hplwIDAQAB
o2wwajAdBgNVHQ4EFgQU+WqkrgvCgkXdOC+c27HTy0Y2gRgwHwYDVR0jBBgwFoAU
l271sTig+lUoDdXM4sNB+W/3LlcwCQYDVR0TBAIwADALBgNVHQ8EBAMCBaAwEAYJ
YIZIAYb4QgEBBAMDAQAwDQYJKoZIhvcNAQELBQADggIBACgzuJeVeoGlm+C8Z+dx
PLyxGmGZI2pdkreFysxO2XOA/ZvM0KlOVQlKaGPMPtX9KjPDy2ypiY2VxCtGBk0q
6GTNhOL8lsH8sf9Vsc7YWn++WFLoJfLRv3Di7kSLjeEL8b+LS4IVp9nUEZjhpI66
DGnzFaIzp9Oq7JZ9ZCwaoGZOl5tbmy1O5YS8+2Mz2dERCRSNHYeCXS/LkVnUAB9s
G2m/WTX6nw6aE2zOSeks2RcYSI/A5qMYmIvsHabt2wOmLOu9F8JqiolrVNuNZy4N
cXfpQ4WzTKHr3xHk7iVsgEQbWUeyCKWhPhWTPW8KtZzHZihoEDiAzW0pLdpO8C/t
HZ/S0q0UnS+WuziTNBDGZTTQysblH6EJaiBa58qTzXcwPtjFy40XJ2/8LMZ3Ibje
LXbh/o39UQggTo5aRb9hIPs203Afm0G5+8l6LnqRzgP9eXEBn1OXn3+SHbcwd2OK
xziSlzVfzZ2iKB8B6KGHhe2wpaU62nGVQ5+5fRp+ECyj3wgu7HIN72J2h2zrYoMr
6Fp4m3iliJJ4FErWuEByxT8A0CuD8YQ2eIz4QEzQTlhSBKdFWjVOUHhjfN/CBn+8
RLeZh+70/6+o6kC4Ut+kK+Bv+o9Ob9S7RgOyxOeHvfSjvpj1i/ETGb6bDllLT65C
juj5cagAA2L15leK7NOJl65Z
-----END CERTIFICATE-----
