Certificate:
    Data:
        Version: 3 (0x2)
        Serial Number: 69 (0x45)
        Signature Algorithm: sha256WithRSAEncryption
        Issuer: C=CA, O=SELF, OU=SELF, CN=SELF IDENTITY CA
        Validity
            Not Before: Sep  9 12:54:22 2024 GMT
            Not After : Aug 16 12:54:22 2124 GMT
        Subject: C=CA, O=mbed TLS, CN=Cert
        Subject Public Key Info:
            Public Key Algorithm: rsaEncryption
                Public-Key: (2048 bit)
                Modulus:
                    00:d5:54:92:fe:02:b2:df:32:21:5b:2c:f2:31:f2:
                    1d:2b:70:04:d7:50:a5:86:48:ed:ee:56:72:0e:5d:
                    17:89:a5:d8:7b:f5:a5:53:9c:84:46:6c:d3:9d:d5:
                    0b:8f:cc:63:9b:67:27:3e:19:46:34:2c:43:bd:97:
                    00:fd:48:ab:58:5a:1f:4d:7c:87:0e:df:ea:63:f9:
                    53:ee:ce:92:48:26:2c:fe:67:92:64:2e:e9:d1:f7:
                    9f:b7:e7:40:87:cb:36:cb:e5:79:28:19:13:60:9c:
                    b9:97:b3:ae:c9:fb:04:1a:4d:16:7f:f8:dc:43:ef:
                    5b:ed:87:e4:dd:a2:33:10:ef:e9:da:30:d5:c7:f4:
                    c6:1c:d3:19:79:ba:fb:b1:67:3b:3d:60:05:33:72:
                    4a:a9:6b:94:8e:ad:8b:e9:2d:67:8b:a1:b6:64:17:
                    cf:fe:e9:61:72:50:90:74:38:96:93:b2:2e:d8:b5:
                    a0:a6:b3:6f:c2:fe:26:ae:fe:40:3b:aa:0a:44:3d:
                    28:f4:b4:00:65:b8:8b:53:c3:a1:81:4c:f8:69:af:
                    19:0a:37:af:32:44:6a:d4:5e:fe:cd:d1:a6:33:7d:
                    d0:1f:2a:4e:d5:c3:b4:99:09:65:14:b8:9d:4f:b5:
                    6c:92:1f:27:d5:69:41:1e:57:23:dc:61:a2:eb:f8:
                    69:97
                Exponent: 65537 (0x10001)
        X509v3 extensions:
            X509v3 Subject Key Identifier: 
                F9:6A:A4:AE:0B:C2:82:45:DD:38:2F:9C:DB:B1:D3:CB:46:36:81:18
            X509v3 Authority Key Identifier: 
                97:6E:F5:B1:38:A0:FA:55:28:0D:D5:CC:E2:C3:41:F9:6F:F7:2E:57
            X509v3 Basic Constraints: 
                CA:FALSE
            X509v3 Key Usage: 
                Digital Signature, Key Encipherment
            Netscape Cert Type: 
                ...
    Signature Algorithm: sha256WithRSAEncryption
    Signature Value:
        76:3c:3d:ba:65:29:b5:45:ad:71:3e:04:27:8c:bd:e4:88:6f:
        29:26:bc:44:0e:67:a1:f0:b5:03:7b:15:06:ae:e1:b9:7c:a8:
        b0:cb:df:ef:0d:65:52:b8:bf:b0:f6:74:63:f3:85:69:52:b7:
        47:97:a4:c8:f2:67:9b:95:d2:b3:64:85:50:47:2f:f5:80:39:
        75:df:92:b9:ad:88:f3:18:26:dc:db:b7:a7:56:2c:3b:c4:57:
        73:a0:73:80:fc:bb:0a:bb:53:38:27:aa:e7:90:c4:4e:a0:5b:
        d9:26:1c:76:e4:c9:4e:c5:8b:72:f8:15:0a:e0:d0:21:06:cf:
        b9:09:78:a0:5a:fc:ae:b4:07:b7:67:75:c6:c8:53:b0:59:85:
        d6:86:22:fb:fe:25:56:44:63:8d:10:22:cc:0e:98:2e:9b:07:
        bc:b3:88:bf:23:a3:68:9a:76:f2:93:28:eb:84:c7:56:95:f3:
        61:35:2b:2c:63:b6:91:e4:8d:aa:e3:f9:8d:8f:a0:43:2a:7f:
        a9:2f:a3:a0:97:c9:6e:d1:c2:f3:fb:10:ed:b9:0d:58:a4:53:
        f9:fa:29:c4:47:72:3c:91:80:65:e9:88:1a:51:2b:dc:69:0e:
        39:20:2a:09:d0:e0:ac:46:4e:8f:78:c8:6b:ef:69:7e:f2:1e:
        c4:ce:5c:76:f6:12:e2:8e:00:36:82:69:69:79:40:0f:76:d2:
        ab:25:fa:15:d5:32:4d:2c:5a:d9:74:56:f8:99:dd:0c:56:7e:
        a6:fb:e7:32:37:12:00:e4:a5:6d:89:c9:64:f9:47:f0:53:71:
        1c:f9:2a:d9:07:bd:fe:14:c0:80:a9:2d:12:1e:ff:85:a0:c1:
        ef:d9:a1:73:c9:92:be:bb:4b:8a:69:03:74:59:24:8f:25:27:
        fb:9b:98:2e:5b:cf:73:79:3e:da:f7:ea:9d:5c:b6:8a:3b:59:
        1c:37:d0:25:e6:ab:8e:0c:3b:ee:6a:a8:a7:a3:03:2a:f0:4f:
        cd:fc:8f:ab:fb:e8:bc:c6:ed:16:68:10:c6:bb:18:bc:db:d5:
        17:fb:56:43:db:44:96:80:d0:b3:75:8d:62:f6:d0:cc:49:dd:
        a4:91:d1:fe:3b:33:03:a4:06:5f:fc:c5:e5:26:1b:c1:10:90:
        36:f9:8a:84:ad:4a:a3:4a:71:98:1a:fd:b8:26:03:45:09:7a:
        e2:cd:51:86:ea:a3:b3:bc:9a:9a:a2:2a:af:d7:25:de:6a:11:
        fb:bd:a9:da:84:41:c0:f6:2d:05:53:e5:a1:00:74:21:e2:d2:
        84:a0:ec:48:28:f7:6e:61:0e:d7:09:8a:28:e1:79:c6:1e:39:
        74:60:39:95:e6:d0:31:d2
-----BEGIN CERTIFICATE-----
MIIEXjCCAkagAwIBAgIBRTANBgkqhkiG9w0BAQsFADBGMQswCQYDVQQGEwJDQTEN
MAsGA1UECgwEU0VMRjENMAsGA1UECwwEU0VMRjEZMBcGA1UEAwwQU0VMRiBJREVO
VElUWSBDQTAgFw0yNDA5MDkxMjU0MjJaGA8yMTI0MDgxNjEyNTQyMlowLzELMAkG
A1UEBhMCQ0ExETAPBgNVBAoMCG1iZWQgVExTMQ0wCwYDVQQDDARDZXJ0MIIBIjAN
BgkqhkiG9w0BAQEFAAOCAQ8AMIIBCgKCAQEA1VSS/gKy3zIhWyzyMfIdK3AE11Cl
hkjt7lZyDl0XiaXYe/WlU5yERmzTndULj8xjm2cnPhlGNCxDvZcA/UirWFofTXyH
Dt/qY/lT7s6SSCYs/meSZC7p0feft+dAh8s2y+V5KBkTYJy5l7OuyfsEGk0Wf/jc
Q+9b7Yfk3aIzEO/p2jDVx/TGHNMZebr7sWc7PWAFM3JKqWuUjq2L6S1ni6G2ZBfP
/ulhclCQdDiWk7Iu2LWgprNvwv4mrv5AO6oKRD0o9LQAZbiLU8OhgUz4aa8ZCjev
MkRq1F7+zdGmM33QHypO1cO0mQllFLidT7Vskh8n1WlBHlcj3GGi6/hplwIDAQAB
o2wwajAdBgNVHQ4EFgQU+WqkrgvCgkXdOC+c27HTy0Y2gRgwHwYDVR0jBBgwFoAU
l271sTig+lUoDdXM4sNB+W/3LlcwCQYDVR0TBAIwADALBgNVHQ8EBAMCBaAwEAYJ
YIZIAYb4QgEBBAMDAQAwDQYJKoZIhvcNAQELBQADggIBAHY8PbplKbVFrXE+BCeM
veSIbykmvEQOZ6HwtQN7FQau4bl8qLDL3+8NZVK4v7D2dGPzhWlSt0eXpMjyZ5uV
0rNkhVBHL/WAOXXfkrmtiPMYJtzbt6dWLDvEV3Ogc4D8uwq7UzgnqueQxE6gW9km
HHbkyU7Fi3L4FQrg0CEGz7kJeKBa/K60B7dndcbIU7BZhdaGIvv+JVZEY40QIswO
mC6bB7yziL8jo2iadvKTKOuEx1aV82E1KyxjtpHkjarj+Y2PoEMqf6kvo6CXyW7R
wvP7EO25DVikU/n6KcRHcjyRgGXpiBpRK9xpDjkgKgnQ4KxGTo94yGvvaX7yHsTO
XHb2EuKOADaCaWl5QA920qsl+hXVMk0sWtl0VviZ3QxWfqb75zI3EgDkpW2JyWT5
R/BTcRz5KtkHvf4UwICpLRIe/4Wgwe/ZoXPJkr67S4ppA3RZJI8lJ/ubmC5bz3N5
Ptr36p1ctoo7WRw30CXmq44MO+5qqKejAyrwT838j6v76LzG7RZoEMa7GLzb1Rf7
VkPbRJaA0LN1jWL20MxJ3aSR0f47MwOkBl/8xeUmG8EQkDb5ioStSqNKcZga/bgm
A0UJeuLNUYbqo7O8mpqiKq/XJd5qEfu9qdqEQcD2LQVT5aEAdCHi0oSg7Ego925h
DtcJiijhecYeOXRgOZXm0DHS
-----END CERTIFICATE-----
