Certificate:
    Data:
        Version: 3 (0x2)
        Serial Number: 70 (0x46)
        Signature Algorithm: sha256WithRSAEncryption
        Issuer: C=CA, O=SELF, OU=SELF, CN=SELF IDENTITY CA
        Validity
            Not Before: Sep  9 12:55:31 2024 GMT
            Not After : Aug 16 12:55:31 2124 GMT
        Subject: C=CA, O=mbed TLS, CN=Cert
        Subject Public Key Info:
            Public Key Algorithm: rsaEncryption
                Public-Key: (2048 bit)
                Modulus:
                    00:d5:54:92:fe:02:b2:df:32:21:5b:2c:f2:31:f2:
                    1d:2b:70:04:d7:50:a5:86:48:ed:ee:56:72:0e:5d:
                    17:89:a5:d8:7b:f5:a5:53:9c:84:46:6c:d3:9d:d5:
                    0b:8f:cc:63:9b:67:27:3e:19:46:34:2c:43:bd:97:
                    00:fd:48:ab:58:5a:1f:4d:7c:87:0e:df:ea:63:f9:
                    53:ee:ce:92:48:26:2c:fe:67:92:64:2e:e9:d1:f7:
                    9f:b7:e7:40:87:cb:36:cb:e5:79:28:19:13:60:9c:
                    b9:97:b3:ae:c9:fb:04:1a:4d:16:7f:f8:dc:43:ef:
                    5b:ed:87:e4:dd:a2:33:10:ef:e9:da:30:d5:c7:f4:
                    c6:1c:d3:19:79:ba:fb:b1:67:3b:3d:60:05:33:72:
                    4a:a9:6b:94:8e:ad:8b:e9:2d:67:8b:a1:b6:64:17:
                    cf:fe:e9:61:72:50:90:74:38:96:93:b2:2e:d8:b5:
                    a0:a6:b3:6f:c2:fe:26:ae:fe:40:3b:aa:0a:44:3d:
                    28:f4:b4:00:65:b8:8b:53:c3:a1:81:4c:f8:69:af:
                    19:0a:37:af:32:44:6a:d4:5e:fe:cd:d1:a6:33:7d:
                    d0:1f:2a:4e:d5:c3:b4:99:09:65:14:b8:9d:4f:b5:
                    6c:92:1f:27:d5:69:41:1e:57:23:dc:61:a2:eb:f8:
                    69:97
                Exponent: 65537 (0x10001)
        X509v3 extensions:
            X509v3 Subject Key Identifier: 
                F9:6A:A4:AE:0B:C2:82:45:DD:38:2F:9C:DB:B1:D3:CB:46:36:81:18
            X509v3 Authority Key Identifier: 
                97:6E:F5:B1:38:A0:FA:55:28:0D:D5:CC:E2:C3:41:F9:6F:F7:2E:57
            X509v3 Basic Constraints: 
                CA:FALSE
            X509v3 Key Usage: 
                Digital Signature, Key Encipherment
            Netscape Cert Type: 
                ...
    Signature Algorithm: sha256WithRSAEncryption
    Signature Value:
        09:93:e8:4a:5f:9f:f5:06:aa:82:06:86:e9:d5:44:03:63:8f:
        e2:de:54:78:8c:4d:08:44:04:fc:a6:cd:7f:7b:ac:ca:60:bd:
        42:82:af:29:79:59:96:ec:b7:8c:d8:9e:f0:d2:b6:91:fd:cb:
        51:8a:72:38:c2:7c:ab:24:ae:2e:98:e3:ab:78:43:03:e6:d4:
        b4:f0:db:eb:47:e3:4c:b8:e4:43:52:ac:ed:8b:82:3b:e1:7f:
        d4:d9:c2:9f:9f:f5:c0:93:52:05:20:75:b0:cc:fc:f6:05:ee:
        74:b0:8e:0d:91:b9:f8:bc:85:82:4a:a4:01:00:55:ef:f4:e3:
        a4:59:26:c6:6c:37:c0:e2:8f:97:11:0d:a1:b6:ab:0a:76:52:
        b3:b2:f0:7a:59:6c:2d:19:4f:7d:f8:b7:8a:f3:b0:dd:12:72:
        28:55:60:f7:a1:7d:c9:4f:95:aa:a7:bf:0d:6a:26:8e:ee:f4:
        24:6a:98:7a:7d:46:66:25:9f:71:f2:cd:23:e6:aa:1a:8f:ae:
        14:f5:12:f5:f6:fe:9f:00:4b:75:36:44:98:d9:df:a9:58:b3:
        4d:e4:32:b6:07:ca:34:9e:54:8d:02:e0:98:20:1d:ef:d2:25:
        83:f6:44:88:6b:84:f9:85:a8:94:c1:57:7e:71:b9:db:83:43:
        55:5e:6c:26:9f:ae:87:dc:78:0a:f9:47:52:39:8c:93:9c:12:
        11:f9:b8:22:f7:0c:77:ae:05:af:07:2a:13:0e:c9:ee:e8:1d:
        64:15:9c:1b:8f:4c:ea:32:93:40:d0:cc:ae:b1:9f:86:b9:7b:
        0d:60:c3:82:c6:9e:d2:45:ec:02:a6:20:5c:02:d3:9a:e1:ac:
        fd:c4:ee:40:2f:36:4d:ea:f3:68:17:1f:c8:82:42:04:9d:68:
        25:32:ed:7e:73:d4:b1:d8:79:45:57:06:62:78:68:4b:ca:25:
        7b:77:b6:78:f2:2a:32:43:4c:4c:0b:2a:94:ad:62:5e:d9:99:
        5e:e7:5e:1b:64:0b:f3:f8:23:6f:58:78:0d:a0:19:a7:62:64:
        e2:28:63:50:6d:3a:c8:ca:a4:2c:5b:b9:e0:cf:ff:bf:d6:6b:
        55:99:1b:48:8a:0b:2d:a9:6a:2d:0a:ce:41:b8:28:24:4b:bb:
        99:6a:7d:e5:1f:97:c1:0e:60:a6:11:b3:28:d7:0f:e5:49:6c:
        e6:95:b7:40:d4:b5:d8:42:96:42:f5:47:ad:34:7e:13:51:db:
        d0:25:56:29:19:0e:bb:f3:6a:b0:25:58:cc:64:40:70:8b:96:
        26:55:cd:d5:ec:21:fc:33:34:48:b9:88:ae:c1:af:22:b9:07:
        da:5c:8a:da:66:2f:7b:d9
-----BEGIN CERTIFICATE-----
MIIEXjCCAkagAwIBAgIBRjANBgkqhkiG9w0BAQsFADBGMQswCQYDVQQGEwJDQTEN
MAsGA1UECgwEU0VMRjENMAsGA1UECwwEU0VMRjEZMBcGA1UEAwwQU0VMRiBJREVO
VElUWSBDQTAgFw0yNDA5MDkxMjU1MzFaGA8yMTI0MDgxNjEyNTUzMVowLzELMAkG
A1UEBhMCQ0ExETAPBgNVBAoMCG1iZWQgVExTMQ0wCwYDVQQDDARDZXJ0MIIBIjAN
BgkqhkiG9w0BAQEFAAOCAQ8AMIIBCgKCAQEA1VSS/gKy3zIhWyzyMfIdK3AE11Cl
hkjt7lZyDl0XiaXYe/WlU5yERmzTndULj8xjm2cnPhlGNCxDvZcA/UirWFofTXyH
Dt/qY/lT7s6SSCYs/meSZC7p0feft+dAh8s2y+V5KBkTYJy5l7OuyfsEGk0Wf/jc
Q+9b7Yfk3aIzEO/p2jDVx/TGHNMZebr7sWc7PWAFM3JKqWuUjq2L6S1ni6G2ZBfP
/ulhclCQdDiWk7Iu2LWgprNvwv4mrv5AO6oKRD0o9LQAZbiLU8OhgUz4aa8ZCjev
MkRq1F7+zdGmM33QHypO1cO0mQllFLidT7Vskh8n1WlBHlcj3GGi6/hplwIDAQAB
o2wwajAdBgNVHQ4EFgQU+WqkrgvCgkXdOC+c27HTy0Y2gRgwHwYDVR0jBBgwFoAU
l271sTig+lUoDdXM4sNB+W/3LlcwCQYDVR0TBAIwADALBgNVHQ8EBAMCBaAwEAYJ
YIZIAYb4QgEBBAMDAQAwDQYJKoZIhvcNAQELBQADggIBAAmT6Epfn/UGqoIGhunV
RANjj+LeVHiMTQhEBPymzX97rMpgvUKCryl5WZbst4zYnvDStpH9y1GKcjjCfKsk
ri6Y46t4QwPm1LTw2+tH40y45ENSrO2Lgjvhf9TZwp+f9cCTUgUgdbDM/PYF7nSw
jg2Rufi8hYJKpAEAVe/046RZJsZsN8Dij5cRDaG2qwp2UrOy8HpZbC0ZT334t4rz
sN0ScihVYPehfclPlaqnvw1qJo7u9CRqmHp9RmYln3HyzSPmqhqPrhT1EvX2/p8A
S3U2RJjZ36lYs03kMrYHyjSeVI0C4JggHe/SJYP2RIhrhPmFqJTBV35xuduDQ1Ve
bCafrofceAr5R1I5jJOcEhH5uCL3DHeuBa8HKhMOye7oHWQVnBuPTOoyk0DQzK6x
n4a5ew1gw4LGntJF7AKmIFwC05rhrP3E7kAvNk3q82gXH8iCQgSdaCUy7X5z1LHY
eUVXBmJ4aEvKJXt3tnjyKjJDTEwLKpStYl7ZmV7nXhtkC/P4I29YeA2gGadiZOIo
Y1BtOsjKpCxbueDP/7/Wa1WZG0iKCy2pai0KzkG4KCRLu5lqfeUfl8EOYKYRsyjX
D+VJbOaVt0DUtdhClkL1R600fhNR29AlVikZDrvzarAlWMxkQHCLliZVzdXsIfwz
NEi5iK7BryK5B9pcitpmL3vZ
-----END CERTIFICATE-----
