Certificate:
    Data:
        Version: 3 (0x2)
        Serial Number: 71 (0x47)
        Signature Algorithm: sha256WithRSAEncryption
        Issuer: C=CA, O=SELF, OU=SELF, CN=SELF IDENTITY CA
        Validity
            Not Before: Sep  9 12:58:05 2024 GMT
            Not After : Aug 16 12:58:05 2124 GMT
        Subject: C=CA, O=mbed TLS, CN=Cert
        Subject Public Key Info:
            Public Key Algorithm: rsaEncryption
                Public-Key: (2048 bit)
                Modulus:
                    00:d5:54:92:fe:02:b2:df:32:21:5b:2c:f2:31:f2:
                    1d:2b:70:04:d7:50:a5:86:48:ed:ee:56:72:0e:5d:
                    17:89:a5:d8:7b:f5:a5:53:9c:84:46:6c:d3:9d:d5:
                    0b:8f:cc:63:9b:67:27:3e:19:46:34:2c:43:bd:97:
                    00:fd:48:ab:58:5a:1f:4d:7c:87:0e:df:ea:63:f9:
                    53:ee:ce:92:48:26:2c:fe:67:92:64:2e:e9:d1:f7:
                    9f:b7:e7:40:87:cb:36:cb:e5:79:28:19:13:60:9c:
                    b9:97:b3:ae:c9:fb:04:1a:4d:16:7f:f8:dc:43:ef:
                    5b:ed:87:e4:dd:a2:33:10:ef:e9:da:30:d5:c7:f4:
                    c6:1c:d3:19:79:ba:fb:b1:67:3b:3d:60:05:33:72:
                    4a:a9:6b:94:8e:ad:8b:e9:2d:67:8b:a1:b6:64:17:
                    cf:fe:e9:61:72:50:90:74:38:96:93:b2:2e:d8:b5:
                    a0:a6:b3:6f:c2:fe:26:ae:fe:40:3b:aa:0a:44:3d:
                    28:f4:b4:00:65:b8:8b:53:c3:a1:81:4c:f8:69:af:
                    19:0a:37:af:32:44:6a:d4:5e:fe:cd:d1:a6:33:7d:
                    d0:1f:2a:4e:d5:c3:b4:99:09:65:14:b8:9d:4f:b5:
                    6c:92:1f:27:d5:69:41:1e:57:23:dc:61:a2:eb:f8:
                    69:97
                Exponent: 65537 (0x10001)
        X509v3 extensions:
            X509v3 Subject Key Identifier: 
                F9:6A:A4:AE:0B:C2:82:45:DD:38:2F:9C:DB:B1:D3:CB:46:36:81:18
            X509v3 Authority Key Identifier: 
                97:6E:F5:B1:38:A0:FA:55:28:0D:D5:CC:E2:C3:41:F9:6F:F7:2E:57
            X509v3 Basic Constraints: 
                CA:FALSE
            X509v3 Key Usage: 
                Digital Signature, Key Encipherment
            Netscape Cert Type: 
                ...
    Signature Algorithm: sha256WithRSAEncryption
    Signature Value:
        9b:5d:c6:61:d7:e5:02:0b:81:61:59:f0:44:46:54:67:c5:14:
        70:bf:dc:fc:47:5d:64:7d:0c:92:8b:ef:cf:45:0e:25:a8:35:
        2c:c2:d3:8d:fe:29:f6:7e:c7:b7:5a:0b:b0:f0:e7:db:03:ec:
        f1:50:fa:45:85:c6:70:43:ea:4a:4b:84:74:38:44:26:5b:fa:
        77:4c:2b:c2:c5:14:5a:60:44:b7:cb:f2:53:7f:14:70:19:7f:
        f7:f9:55:dc:09:91:a5:f6:89:f3:6e:6e:d6:a3:05:3a:92:aa:
        d9:fa:0d:3d:9c:7c:3f:67:82:6a:c0:a3:60:0c:52:75:d8:0a:
        48:f5:03:ee:6a:3d:31:ed:d9:13:0d:3d:5a:92:62:0b:37:88:
        69:f2:1a:29:94:69:9f:67:61:c3:c2:f5:b6:30:d4:ac:11:d4:
        e4:80:e9:82:bb:ef:57:f1:2f:f3:82:3e:c5:23:28:cf:25:40:
        5c:fc:0c:62:09:82:95:53:c9:8f:8b:7e:c1:24:1b:d6:2e:97:
        eb:e5:be:a8:d5:47:55:54:5f:3d:a8:50:c6:fe:e4:d0:df:bd:
        df:03:de:cc:29:9f:8b:fc:b9:f5:47:a9:24:16:f5:6d:a9:4d:
        c9:0b:23:89:a7:7f:cf:14:cc:79:22:f9:e2:ea:23:77:fe:c5:
        3a:1a:68:24:a7:42:86:dc:73:3a:65:28:4f:a1:ef:d8:ad:ff:
        1d:3f:46:78:c9:93:f3:0d:53:10:8f:8d:0d:f7:c5:c6:e2:47:
        30:8d:17:ab:90:62:14:bb:5c:81:75:94:44:70:ad:fb:2f:2a:
        f7:e0:60:d2:e6:27:04:ba:4c:30:77:55:0c:25:8a:f7:94:34:
        5e:1c:7c:09:58:25:d3:25:a1:94:5b:28:0d:29:64:22:e7:c1:
        18:e9:fe:d5:af:62:d7:c5:d4:09:50:c7:95:11:6e:02:42:e3:
        72:02:3a:a3:47:3c:c2:d1:90:db:e8:2b:fb:54:75:c5:d1:d7:
        b3:f0:08:8c:08:21:20:e4:b4:10:61:e4:2b:06:cc:40:fc:5f:
        16:72:7c:65:d9:e2:25:65:06:bc:5c:42:bb:e7:19:7c:30:80:
        a2:85:18:8f:54:5c:b0:f0:1c:ec:89:ba:33:a5:50:e3:8c:ba:
        d5:db:d3:cf:11:a7:54:07:dc:58:ca:be:91:33:61:96:54:f3:
        6e:e3:35:37:e5:8e:b2:09:d9:99:3c:9a:0d:4c:25:f1:86:7e:
        8f:60:8f:d8:22:05:06:bd:d5:a8:58:77:0b:de:05:5e:fe:54:
        fe:a3:64:1e:80:92:c7:53:ee:fc:b8:ec:22:5b:5e:50:48:3c:
        b4:5c:a3:fd:13:f3:55:4e
-----BEGIN CERTIFICATE-----
MIIEXjCCAkagAwIBAgIBRzANBgkqhkiG9w0BAQsFADBGMQswCQYDVQQGEwJDQTEN
MAsGA1UECgwEU0VMRjENMAsGA1UECwwEU0VMRjEZMBcGA1UEAwwQU0VMRiBJREVO
VElUWSBDQTAgFw0yNDA5MDkxMjU4MDVaGA8yMTI0MDgxNjEyNTgwNVowLzELMAkG
A1UEBhMCQ0ExETAPBgNVBAoMCG1iZWQgVExTMQ0wCwYDVQQDDARDZXJ0MIIBIjAN
BgkqhkiG9w0BAQEFAAOCAQ8AMIIBCgKCAQEA1VSS/gKy3zIhWyzyMfIdK3AE11Cl
hkjt7lZyDl0XiaXYe/WlU5yERmzTndULj8xjm2cnPhlGNCxDvZcA/UirWFofTXyH
Dt/qY/lT7s6SSCYs/meSZC7p0feft+dAh8s2y+V5KBkTYJy5l7OuyfsEGk0Wf/jc
Q+9b7Yfk3aIzEO/p2jDVx/TGHNMZebr7sWc7PWAFM3JKqWuUjq2L6S1ni6G2ZBfP
/ulhclCQdDiWk7Iu2LWgprNvwv4mrv5AO6oKRD0o9LQAZbiLU8OhgUz4aa8ZCjev
MkRq1F7+zdGmM33QHypO1cO0mQllFLidT7Vskh8n1WlBHlcj3GGi6/hplwIDAQAB
o2wwajAdBgNVHQ4EFgQU+WqkrgvCgkXdOC+c27HTy0Y2gRgwHwYDVR0jBBgwFoAU
l271sTig+lUoDdXM4sNB+W/3LlcwCQYDVR0TBAIwADALBgNVHQ8EBAMCBaAwEAYJ
YIZIAYb4QgEBBAMDAQAwDQYJKoZIhvcNAQELBQADggIBAJtdxmHX5QILgWFZ8ERG
VGfFFHC/3PxHXWR9DJKL789FDiWoNSzC043+KfZ+x7daC7Dw59sD7PFQ+kWFxnBD
6kpLhHQ4RCZb+ndMK8LFFFpgRLfL8lN/FHAZf/f5VdwJkaX2ifNubtajBTqSqtn6
DT2cfD9ngmrAo2AMUnXYCkj1A+5qPTHt2RMNPVqSYgs3iGnyGimUaZ9nYcPC9bYw
1KwR1OSA6YK771fxL/OCPsUjKM8lQFz8DGIJgpVTyY+LfsEkG9Yul+vlvqjVR1VU
Xz2oUMb+5NDfvd8D3swpn4v8ufVHqSQW9W2pTckLI4mnf88UzHki+eLqI3f+xToa
aCSnQobcczplKE+h79it/x0/RnjJk/MNUxCPjQ33xcbiRzCNF6uQYhS7XIF1lERw
rfsvKvfgYNLmJwS6TDB3VQwliveUNF4cfAlYJdMloZRbKA0pZCLnwRjp/tWvYtfF
1AlQx5URbgJC43ICOqNHPMLRkNvoK/tUdcXR17PwCIwIISDktBBh5CsGzED8XxZy
fGXZ4iVlBrxcQrvnGXwwgKKFGI9UXLDwHOyJujOlUOOMutXb088Rp1QH3FjKvpEz
YZZU827jNTfljrIJ2Zk8mg1MJfGGfo9gj9giBQa91ahYdwveBV7+VP6jZB6AksdT
7vy47CJbXlBIPLRco/0T81VO
-----END CERTIFICATE-----
