Certificate:
    Data:
        Version: 3 (0x2)
        Serial Number: 72 (0x48)
        Signature Algorithm: sha256WithRSAEncryption
        Issuer: C=CA, O=SELF, OU=SELF, CN=SELF IDENTITY CA
        Validity
            Not Before: Sep  9 13:11:25 2024 GMT
            Not After : Aug 16 13:11:25 2124 GMT
        Subject: C=CA, O=mbed TLS, CN=Cert
        Subject Public Key Info:
            Public Key Algorithm: rsaEncryption
                Public-Key: (2048 bit)
                Modulus:
                    00:d5:54:92:fe:02:b2:df:32:21:5b:2c:f2:31:f2:
                    1d:2b:70:04:d7:50:a5:86:48:ed:ee:56:72:0e:5d:
                    17:89:a5:d8:7b:f5:a5:53:9c:84:46:6c:d3:9d:d5:
                    0b:8f:cc:63:9b:67:27:3e:19:46:34:2c:43:bd:97:
                    00:fd:48:ab:58:5a:1f:4d:7c:87:0e:df:ea:63:f9:
                    53:ee:ce:92:48:26:2c:fe:67:92:64:2e:e9:d1:f7:
                    9f:b7:e7:40:87:cb:36:cb:e5:79:28:19:13:60:9c:
                    b9:97:b3:ae:c9:fb:04:1a:4d:16:7f:f8:dc:43:ef:
                    5b:ed:87:e4:dd:a2:33:10:ef:e9:da:30:d5:c7:f4:
                    c6:1c:d3:19:79:ba:fb:b1:67:3b:3d:60:05:33:72:
                    4a:a9:6b:94:8e:ad:8b:e9:2d:67:8b:a1:b6:64:17:
                    cf:fe:e9:61:72:50:90:74:38:96:93:b2:2e:d8:b5:
                    a0:a6:b3:6f:c2:fe:26:ae:fe:40:3b:aa:0a:44:3d:
                    28:f4:b4:00:65:b8:8b:53:c3:a1:81:4c:f8:69:af:
                    19:0a:37:af:32:44:6a:d4:5e:fe:cd:d1:a6:33:7d:
                    d0:1f:2a:4e:d5:c3:b4:99:09:65:14:b8:9d:4f:b5:
                    6c:92:1f:27:d5:69:41:1e:57:23:dc:61:a2:eb:f8:
                    69:97
                Exponent: 65537 (0x10001)
        X509v3 extensions:
            X509v3 Subject Key Identifier: 
                F9:6A:A4:AE:0B:C2:82:45:DD:38:2F:9C:DB:B1:D3:CB:46:36:81:18
            X509v3 Authority Key Identifier: 
                97:6E:F5:B1:38:A0:FA:55:28:0D:D5:CC:E2:C3:41:F9:6F:F7:2E:57
            X509v3 Basic Constraints: 
                CA:FALSE
            X509v3 Key Usage: 
                Digital Signature, Key Encipherment
            Netscape Cert Type: 
                ...
    Signature Algorithm: sha256WithRSAEncryption
    Signature Value:
        64:47:cc:ec:92:e5:1c:f2:60:4d:53:0b:65:ce:33:dc:36:b4:
        39:8f:3d:d5:b1:7c:f2:55:39:db:d5:2a:aa:dc:69:e0:4b:39:
        5f:57:e9:e5:9e:d8:31:4e:14:9d:7c:40:ff:1f:30:36:87:52:
        ba:b3:6d:d1:46:5b:92:6e:03:1f:12:cd:08:52:ae:ab:3a:ab:
        b0:12:7f:62:f9:da:e3:92:8c:9d:ea:a1:a3:a6:4c:59:d8:6e:
        a7:cc:bc:2c:fa:91:d5:14:95:25:fd:90:08:1f:a0:04:a4:ed:
        05:6f:e0:93:2b:08:d9:df:d5:69:c2:3c:b3:9a:e3:57:eb:f8:
        8d:90:b2:13:2b:a7:2d:34:f3:34:5e:77:24:b6:65:cd:0a:f0:
        ff:6e:99:ea:b2:91:2f:a0:7a:50:26:fb:ee:5e:5c:aa:ad:7d:
        d5:cd:7a:19:dc:a1:32:3c:3f:75:7d:d9:a7:7e:83:85:29:67:
        60:00:28:4e:01:21:d7:2e:2a:23:84:52:d3:ca:4d:25:27:f0:
        52:5c:e6:d0:4f:63:95:f2:c1:3f:df:ec:7f:3f:1c:6c:3a:fa:
        5f:b5:6c:c4:8b:1f:03:40:a8:a2:5c:44:b8:01:f4:38:ab:4d:
        bf:d2:65:cd:18:53:41:12:19:f2:bc:20:17:6a:ff:fb:db:75:
        82:74:0f:7f:e2:02:1b:b1:e9:48:11:ad:8c:9c:17:f3:11:20:
        e8:29:fb:2e:d0:c7:15:be:6a:55:6c:44:cd:d4:c2:32:40:b0:
        ed:8a:6c:c3:c8:dd:31:5b:d3:3e:c0:42:26:c0:a2:c4:3b:05:
        61:e9:11:77:ce:cd:f1:56:30:8f:e6:96:50:72:03:10:b5:20:
        c4:71:4a:42:f2:ea:52:f4:e5:98:2f:c4:0e:06:9d:00:93:ff:
        9a:73:7a:f5:0b:9e:9b:a2:59:36:98:2d:af:64:0a:41:a2:7a:
        23:b6:69:6a:38:23:44:37:07:84:ac:6b:a6:1e:0d:dd:04:54:
        88:58:c9:f6:d5:62:b5:39:61:b0:1c:56:34:ed:be:14:57:1b:
        19:63:48:7a:f6:21:50:4f:43:59:bc:5b:25:c4:93:70:40:4c:
        6a:c7:9f:ca:01:90:99:80:77:aa:b9:0e:a2:e4:19:1d:9a:d7:
        5d:3a:05:40:8f:65:53:05:aa:05:08:32:58:aa:72:9f:f6:65:
        36:23:fc:80:bc:f9:01:18:b3:cd:9d:66:4b:98:5f:e6:45:6b:
        c7:a7:80:17:ea:92:43:27:d0:c5:d9:e7:78:f8:9a:b0:71:1c:
        b6:95:05:35:68:7f:5e:33:b2:46:20:62:97:ef:cc:4b:41:c3:
        46:96:1c:29:e0:94:bd:2a
-----BEGIN CERTIFICATE-----
MIIEXjCCAkagAwIBAgIBSDANBgkqhkiG9w0BAQsFADBGMQswCQYDVQQGEwJDQTEN
MAsGA1UECgwEU0VMRjENMAsGA1UECwwEU0VMRjEZMBcGA1UEAwwQU0VMRiBJREVO
VElUWSBDQTAgFw0yNDA5MDkxMzExMjVaGA8yMTI0MDgxNjEzMTEyNVowLzELMAkG
A1UEBhMCQ0ExETAPBgNVBAoMCG1iZWQgVExTMQ0wCwYDVQQDDARDZXJ0MIIBIjAN
BgkqhkiG9w0BAQEFAAOCAQ8AMIIBCgKCAQEA1VSS/gKy3zIhWyzyMfIdK3AE11Cl
hkjt7lZyDl0XiaXYe/WlU5yERmzTndULj8xjm2cnPhlGNCxDvZcA/UirWFofTXyH
Dt/qY/lT7s6SSCYs/meSZC7p0feft+dAh8s2y+V5KBkTYJy5l7OuyfsEGk0Wf/jc
Q+9b7Yfk3aIzEO/p2jDVx/TGHNMZebr7sWc7PWAFM3JKqWuUjq2L6S1ni6G2ZBfP
/ulhclCQdDiWk7Iu2LWgprNvwv4mrv5AO6oKRD0o9LQAZbiLU8OhgUz4aa8ZCjev
MkRq1F7+zdGmM33QHypO1cO0mQllFLidT7Vskh8n1WlBHlcj3GGi6/hplwIDAQAB
o2wwajAdBgNVHQ4EFgQU+WqkrgvCgkXdOC+c27HTy0Y2gRgwHwYDVR0jBBgwFoAU
l271sTig+lUoDdXM4sNB+W/3LlcwCQYDVR0TBAIwADALBgNVHQ8EBAMCBaAwEAYJ
YIZIAYb4QgEBBAMDAQAwDQYJKoZIhvcNAQELBQADggIBAGRHzOyS5RzyYE1TC2XO
M9w2tDmPPdWxfPJVOdvVKqrcaeBLOV9X6eWe2DFOFJ18QP8fMDaHUrqzbdFGW5Ju
Ax8SzQhSrqs6q7ASf2L52uOSjJ3qoaOmTFnYbqfMvCz6kdUUlSX9kAgfoASk7QVv
4JMrCNnf1WnCPLOa41fr+I2QshMrpy008zRedyS2Zc0K8P9umeqykS+gelAm++5e
XKqtfdXNehncoTI8P3V92ad+g4UpZ2AAKE4BIdcuKiOEUtPKTSUn8FJc5tBPY5Xy
wT/f7H8/HGw6+l+1bMSLHwNAqKJcRLgB9DirTb/SZc0YU0ESGfK8IBdq//vbdYJ0
D3/iAhux6UgRrYycF/MRIOgp+y7QxxW+alVsRM3UwjJAsO2KbMPI3TFb0z7AQibA
osQ7BWHpEXfOzfFWMI/mllByAxC1IMRxSkLy6lL05ZgvxA4GnQCT/5pzevULnpui
WTaYLa9kCkGieiO2aWo4I0Q3B4Ssa6YeDd0EVIhYyfbVYrU5YbAcVjTtvhRXGxlj
SHr2IVBPQ1m8WyXEk3BATGrHn8oBkJmAd6q5DqLkGR2a1106BUCPZVMFqgUIMliq
cp/2ZTYj/IC8+QEYs82dZkuYX+ZFa8engBfqkkMn0MXZ53j4mrBxHLaVBTVof14z
skYgYpfvzEtBw0aWHCnglL0q
-----END CERTIFICATE-----
