Certificate:
    Data:
        Version: 3 (0x2)
        Serial Number: 73 (0x49)
        Signature Algorithm: sha256WithRSAEncryption
        Issuer: C=CA, O=SELF, OU=SELF, CN=SELF IDENTITY CA
        Validity
            Not Before: Sep  9 13:12:28 2024 GMT
            Not After : Aug 16 13:12:28 2124 GMT
        Subject: C=CA, O=mbed TLS, CN=Cert
        Subject Public Key Info:
            Public Key Algorithm: rsaEncryption
                Public-Key: (2048 bit)
                Modulus:
                    00:d5:54:92:fe:02:b2:df:32:21:5b:2c:f2:31:f2:
                    1d:2b:70:04:d7:50:a5:86:48:ed:ee:56:72:0e:5d:
                    17:89:a5:d8:7b:f5:a5:53:9c:84:46:6c:d3:9d:d5:
                    0b:8f:cc:63:9b:67:27:3e:19:46:34:2c:43:bd:97:
                    00:fd:48:ab:58:5a:1f:4d:7c:87:0e:df:ea:63:f9:
                    53:ee:ce:92:48:26:2c:fe:67:92:64:2e:e9:d1:f7:
                    9f:b7:e7:40:87:cb:36:cb:e5:79:28:19:13:60:9c:
                    b9:97:b3:ae:c9:fb:04:1a:4d:16:7f:f8:dc:43:ef:
                    5b:ed:87:e4:dd:a2:33:10:ef:e9:da:30:d5:c7:f4:
                    c6:1c:d3:19:79:ba:fb:b1:67:3b:3d:60:05:33:72:
                    4a:a9:6b:94:8e:ad:8b:e9:2d:67:8b:a1:b6:64:17:
                    cf:fe:e9:61:72:50:90:74:38:96:93:b2:2e:d8:b5:
                    a0:a6:b3:6f:c2:fe:26:ae:fe:40:3b:aa:0a:44:3d:
                    28:f4:b4:00:65:b8:8b:53:c3:a1:81:4c:f8:69:af:
                    19:0a:37:af:32:44:6a:d4:5e:fe:cd:d1:a6:33:7d:
                    d0:1f:2a:4e:d5:c3:b4:99:09:65:14:b8:9d:4f:b5:
                    6c:92:1f:27:d5:69:41:1e:57:23:dc:61:a2:eb:f8:
                    69:97
                Exponent: 65537 (0x10001)
        X509v3 extensions:
            X509v3 Subject Key Identifier: 
                F9:6A:A4:AE:0B:C2:82:45:DD:38:2F:9C:DB:B1:D3:CB:46:36:81:18
            X509v3 Authority Key Identifier: 
                97:6E:F5:B1:38:A0:FA:55:28:0D:D5:CC:E2:C3:41:F9:6F:F7:2E:57
            X509v3 Basic Constraints: 
                CA:FALSE
            X509v3 Key Usage: 
                Digital Signature, Key Encipherment
            Netscape Cert Type: 
                ...
    Signature Algorithm: sha256WithRSAEncryption
    Signature Value:
        46:4d:e5:6a:d5:30:6f:2b:53:9b:6e:e3:d0:c8:5d:cc:62:47:
        b1:d3:d9:23:24:8d:4b:39:42:0c:d2:c7:a8:de:94:0a:f6:dc:
        52:7c:a0:d3:8d:ed:70:a0:2b:5a:a1:22:f1:6c:2d:36:88:86:
        94:6d:01:05:e7:8f:80:69:4e:25:3f:8f:29:f5:99:e3:ab:f4:
        fc:6f:91:13:fa:4b:bb:11:85:87:00:8c:ca:de:30:e2:11:c6:
        cf:00:6a:17:18:c7:c1:55:16:38:86:41:0b:bf:be:b0:c6:d7:
        29:15:3c:bf:a6:34:23:72:ca:f5:af:a9:c7:1a:b6:fc:3b:3a:
        fa:ca:db:98:cc:a2:b1:07:1b:32:e8:49:a6:d7:26:a9:b2:0b:
        c5:67:1e:8a:db:e3:ba:f4:ff:34:26:54:67:4f:4a:2e:9e:c7:
        e8:00:a4:6e:ba:7b:20:13:15:db:aa:ce:c5:7f:39:b2:69:b7:
        7e:5b:7e:b0:8d:56:29:f6:62:33:e2:80:d7:5a:4e:d3:e0:bb:
        ce:41:2f:25:f7:f0:71:5c:ef:23:0f:71:7f:5e:da:cc:22:1e:
        a3:aa:58:37:51:b9:7e:7e:78:e6:0a:3b:18:b8:be:eb:18:2a:
        04:31:b5:1e:b6:da:03:15:1b:d5:e3:c9:ea:f4:88:df:64:79:
        ed:7b:78:ba:43:59:4e:b3:00:b0:d6:7a:bf:16:8a:4a:1d:2c:
        c4:da:55:56:6a:ad:91:3c:79:5f:25:c9:f0:c2:f2:03:d7:2c:
        10:37:88:16:3b:0a:35:89:dd:8d:fb:7e:27:8f:21:6c:95:b1:
        d5:79:5f:f3:4b:4e:77:67:82:3e:eb:5b:fd:2c:2e:47:30:f3:
        1a:90:fc:d8:2f:1a:59:b1:9d:b5:07:15:84:e7:f6:5b:5b:e8:
        a4:7b:64:32:04:5d:99:b9:b9:10:9b:29:a7:0f:78:38:3d:7b:
        d8:ae:89:ee:21:20:ca:4d:ed:39:ad:09:3c:18:8b:63:01:30:
        3f:7e:b7:18:a8:f3:35:0c:8b:1b:ff:78:65:29:b8:38:bf:55:
        25:4b:cc:9c:76:e1:c1:ca:c4:ea:4d:37:ac:4b:5d:f8:ce:a1:
        c8:38:95:5d:a2:08:c0:f5:0e:b4:19:da:01:56:78:f1:66:ba:
        d7:76:ce:4b:ec:a8:de:60:5e:0c:88:df:9a:1d:e1:71:10:f6:
        16:ab:04:c9:31:e8:55:ec:ed:3f:ee:e8:30:ec:da:69:6c:09:
        51:7f:b6:19:84:94:cb:b1:62:0c:84:46:f6:9b:28:d9:5b:e5:
        94:14:e8:cc:c3:d3:11:9a:a1:9c:2d:df:eb:63:1e:19:5b:ae:
        9a:eb:26:5c:92:05:2e:80
-----BEGIN CERTIFICATE-----
MIIEXjCCAkagAwIBAgIBSTANBgkqhkiG9w0BAQsFADBGMQswCQYDVQQGEwJDQTEN
MAsGA1UECgwEU0VMRjENMAsGA1UECwwEU0VMRjEZMBcGA1UEAwwQU0VMRiBJREVO
VElUWSBDQTAgFw0yNDA5MDkxMzEyMjhaGA8yMTI0MDgxNjEzMTIyOFowLzELMAkG
A1UEBhMCQ0ExETAPBgNVBAoMCG1iZWQgVExTMQ0wCwYDVQQDDARDZXJ0MIIBIjAN
BgkqhkiG9w0BAQEFAAOCAQ8AMIIBCgKCAQEA1VSS/gKy3zIhWyzyMfIdK3AE11Cl
hkjt7lZyDl0XiaXYe/WlU5yERmzTndULj8xjm2cnPhlGNCxDvZcA/UirWFofTXyH
Dt/qY/lT7s6SSCYs/meSZC7p0feft+dAh8s2y+V5KBkTYJy5l7OuyfsEGk0Wf/jc
Q+9b7Yfk3aIzEO/p2jDVx/TGHNMZebr7sWc7PWAFM3JKqWuUjq2L6S1ni6G2ZBfP
/ulhclCQdDiWk7Iu2LWgprNvwv4mrv5AO6oKRD0o9LQAZbiLU8OhgUz4aa8ZCjev
MkRq1F7+zdGmM33QHypO1cO0mQllFLidT7Vskh8n1WlBHlcj3GGi6/hplwIDAQAB
o2wwajAdBgNVHQ4EFgQU+WqkrgvCgkXdOC+c27HTy0Y2gRgwHwYDVR0jBBgwFoAU
l271sTig+lUoDdXM4sNB+W/3LlcwCQYDVR0TBAIwADALBgNVHQ8EBAMCBaAwEAYJ
YIZIAYb4QgEBBAMDAQAwDQYJKoZIhvcNAQELBQADggIBAEZN5WrVMG8rU5tu49DI
XcxiR7HT2SMkjUs5QgzSx6jelAr23FJ8oNON7XCgK1qhIvFsLTaIhpRtAQXnj4Bp
TiU/jyn1meOr9PxvkRP6S7sRhYcAjMreMOIRxs8AahcYx8FVFjiGQQu/vrDG1ykV
PL+mNCNyyvWvqccatvw7OvrK25jMorEHGzLoSabXJqmyC8VnHorb47r0/zQmVGdP
Si6ex+gApG66eyATFduqzsV/ObJpt35bfrCNVin2YjPigNdaTtPgu85BLyX38HFc
7yMPcX9e2swiHqOqWDdRuX5+eOYKOxi4vusYKgQxtR622gMVG9Xjyer0iN9kee17
eLpDWU6zALDWer8WikodLMTaVVZqrZE8eV8lyfDC8gPXLBA3iBY7CjWJ3Y37fieP
IWyVsdV5X/NLTndngj7rW/0sLkcw8xqQ/NgvGlmxnbUHFYTn9ltb6KR7ZDIEXZm5
uRCbKacPeDg9e9iuie4hIMpN7TmtCTwYi2MBMD9+txio8zUMixv/eGUpuDi/VSVL
zJx24cHKxOpNN6xLXfjOocg4lV2iCMD1DrQZ2gFWePFmutd2zkvsqN5gXgyI35od
4XEQ9harBMkx6FXs7T/u6DDs2mlsCVF/thmElMuxYgyERvabKNlb5ZQU6MzD0xGa
oZwt3+tjHhlbrprrJlySBS6A
-----END CERTIFICATE-----
