Certificate:
    Data:
        Version: 3 (0x2)
        Serial Number: 74 (0x4a)
        Signature Algorithm: sha256WithRSAEncryption
        Issuer: C=CA, O=SELF, OU=SELF, CN=SELF IDENTITY CA
        Validity
            Not Before: Sep  9 13:13:06 2024 GMT
            Not After : Aug 16 13:13:06 2124 GMT
        Subject: C=CA, O=mbed TLS, CN=Cert
        Subject Public Key Info:
            Public Key Algorithm: rsaEncryption
                Public-Key: (2048 bit)
                Modulus:
                    00:d5:54:92:fe:02:b2:df:32:21:5b:2c:f2:31:f2:
                    1d:2b:70:04:d7:50:a5:86:48:ed:ee:56:72:0e:5d:
                    17:89:a5:d8:7b:f5:a5:53:9c:84:46:6c:d3:9d:d5:
                    0b:8f:cc:63:9b:67:27:3e:19:46:34:2c:43:bd:97:
                    00:fd:48:ab:58:5a:1f:4d:7c:87:0e:df:ea:63:f9:
                    53:ee:ce:92:48:26:2c:fe:67:92:64:2e:e9:d1:f7:
                    9f:b7:e7:40:87:cb:36:cb:e5:79:28:19:13:60:9c:
                    b9:97:b3:ae:c9:fb:04:1a:4d:16:7f:f8:dc:43:ef:
                    5b:ed:87:e4:dd:a2:33:10:ef:e9:da:30:d5:c7:f4:
                    c6:1c:d3:19:79:ba:fb:b1:67:3b:3d:60:05:33:72:
                    4a:a9:6b:94:8e:ad:8b:e9:2d:67:8b:a1:b6:64:17:
                    cf:fe:e9:61:72:50:90:74:38:96:93:b2:2e:d8:b5:
                    a0:a6:b3:6f:c2:fe:26:ae:fe:40:3b:aa:0a:44:3d:
                    28:f4:b4:00:65:b8:8b:53:c3:a1:81:4c:f8:69:af:
                    19:0a:37:af:32:44:6a:d4:5e:fe:cd:d1:a6:33:7d:
                    d0:1f:2a:4e:d5:c3:b4:99:09:65:14:b8:9d:4f:b5:
                    6c:92:1f:27:d5:69:41:1e:57:23:dc:61:a2:eb:f8:
                    69:97
                Exponent: 65537 (0x10001)
        X509v3 extensions:
            X509v3 Subject Key Identifier: 
                F9:6A:A4:AE:0B:C2:82:45:DD:38:2F:9C:DB:B1:D3:CB:46:36:81:18
            X509v3 Authority Key Identifier: 
                97:6E:F5:B1:38:A0:FA:55:28:0D:D5:CC:E2:C3:41:F9:6F:F7:2E:57
            X509v3 Basic Constraints: 
                CA:FALSE
            X509v3 Key Usage: 
                Digital Signature, Key Encipherment
            Netscape Cert Type: 
                ...
    Signature Algorithm: sha256WithRSAEncryption
    Signature Value:
        66:18:b1:c1:85:55:d0:d9:e3:a6:f8:4f:d8:86:59:e3:41:40:
        c7:3b:df:f3:a5:f1:4b:cb:e2:5d:3f:6c:7f:a1:8c:22:74:69:
        7d:f9:b2:19:e0:6f:ee:52:d8:88:50:51:9c:3f:cc:96:30:23:
        93:1e:16:4b:7f:e1:88:e4:6e:95:44:64:d7:69:c7:0c:15:6c:
        09:d3:f8:77:ec:eb:76:0c:e8:40:b0:97:1f:6a:73:94:a6:86:
        aa:29:34:9e:a9:97:bc:0f:ae:f3:64:4c:96:24:83:5e:14:72:
        15:dd:99:ec:ac:d7:e5:84:ab:92:cd:5a:2c:66:a6:7f:8a:8f:
        26:07:5d:04:0f:4f:25:d2:10:3c:5e:21:b0:03:45:af:a4:b0:
        10:65:d8:ea:1b:e6:30:73:89:9c:37:96:6e:44:67:e5:7b:15:
        70:6a:86:07:70:7d:a0:24:07:fb:dc:66:c7:51:1f:78:0c:58:
        fa:d2:a1:b2:e1:aa:06:76:2e:aa:84:3e:dd:d7:ba:64:52:c4:
        ca:17:b1:c1:ad:8b:12:59:26:18:dd:60:22:8f:1e:00:d8:dd:
        15:97:51:4d:60:50:93:4a:41:7f:b4:53:b4:23:c8:02:d8:95:
        7d:27:bd:d7:89:39:8c:2a:82:91:e0:d0:15:d3:a9:72:c7:6a:
        95:1b:ad:30:2a:f3:56:a9:67:1d:1e:09:62:3b:3f:5f:4a:e8:
        99:5b:6b:d7:ba:5b:e9:90:dc:bc:8f:78:d1:0c:c3:65:04:0d:
        e4:8a:80:bb:2b:9d:ba:88:71:9c:50:eb:96:7e:91:6c:df:32:
        85:4d:ac:7e:2d:5b:8a:c8:20:5b:cb:ea:59:9e:90:af:87:7b:
        17:18:53:1e:8f:46:63:76:e6:b5:d8:2f:41:32:03:a1:18:40:
        d7:20:7d:3f:8c:27:57:0a:e7:d4:9d:09:fa:f5:f6:d9:25:dd:
        34:c5:4c:86:8a:61:5a:f4:10:3e:09:ad:cb:34:ca:bd:44:e2:
        39:ee:ac:f0:31:f8:96:bf:8e:1a:fb:9c:cc:65:67:91:27:9a:
        6a:ef:af:ec:c1:b0:0a:7c:90:f7:bd:6b:6e:72:9e:f9:d1:57:
        b4:df:74:ef:55:2a:f2:79:af:fb:78:1c:ef:be:45:b2:a8:72:
        17:a6:f9:fd:a8:e1:f2:60:30:16:70:8e:58:db:26:dd:75:c7:
        26:cb:22:d9:8a:51:46:64:28:33:11:e9:7c:5e:e1:2f:0c:0a:
        82:2c:c6:20:d2:25:e6:fb:67:dd:b1:c6:7c:2a:e6:b5:9c:f8:
        04:86:a3:ed:3c:52:5c:c2:0c:8d:b0:99:a1:38:a0:89:e7:a1:
        3e:61:48:6f:1f:85:c7:40
-----BEGIN CERTIFICATE-----
MIIEXjCCAkagAwIBAgIBSjANBgkqhkiG9w0BAQsFADBGMQswCQYDVQQGEwJDQTEN
MAsGA1UECgwEU0VMRjENMAsGA1UECwwEU0VMRjEZMBcGA1UEAwwQU0VMRiBJREVO
VElUWSBDQTAgFw0yNDA5MDkxMzEzMDZaGA8yMTI0MDgxNjEzMTMwNlowLzELMAkG
A1UEBhMCQ0ExETAPBgNVBAoMCG1iZWQgVExTMQ0wCwYDVQQDDARDZXJ0MIIBIjAN
BgkqhkiG9w0BAQEFAAOCAQ8AMIIBCgKCAQEA1VSS/gKy3zIhWyzyMfIdK3AE11Cl
hkjt7lZyDl0XiaXYe/WlU5yERmzTndULj8xjm2cnPhlGNCxDvZcA/UirWFofTXyH
Dt/qY/lT7s6SSCYs/meSZC7p0feft+dAh8s2y+V5KBkTYJy5l7OuyfsEGk0Wf/jc
Q+9b7Yfk3aIzEO/p2jDVx/TGHNMZebr7sWc7PWAFM3JKqWuUjq2L6S1ni6G2ZBfP
/ulhclCQdDiWk7Iu2LWgprNvwv4mrv5AO6oKRD0o9LQAZbiLU8OhgUz4aa8ZCjev
MkRq1F7+zdGmM33QHypO1cO0mQllFLidT7Vskh8n1WlBHlcj3GGi6/hplwIDAQAB
o2wwajAdBgNVHQ4EFgQU+WqkrgvCgkXdOC+c27HTy0Y2gRgwHwYDVR0jBBgwFoAU
l271sTig+lUoDdXM4sNB+W/3LlcwCQYDVR0TBAIwADALBgNVHQ8EBAMCBaAwEAYJ
YIZIAYb4QgEBBAMDAQAwDQYJKoZIhvcNAQELBQADggIBAGYYscGFVdDZ46b4T9iG
WeNBQMc73/Ol8UvL4l0/bH+hjCJ0aX35shngb+5S2IhQUZw/zJYwI5MeFkt/4Yjk
bpVEZNdpxwwVbAnT+Hfs63YM6ECwlx9qc5SmhqopNJ6pl7wPrvNkTJYkg14UchXd
meys1+WEq5LNWixmpn+KjyYHXQQPTyXSEDxeIbADRa+ksBBl2Oob5jBziZw3lm5E
Z+V7FXBqhgdwfaAkB/vcZsdRH3gMWPrSobLhqgZ2LqqEPt3XumRSxMoXscGtixJZ
JhjdYCKPHgDY3RWXUU1gUJNKQX+0U7QjyALYlX0nvdeJOYwqgpHg0BXTqXLHapUb
rTAq81apZx0eCWI7P19K6Jlba9e6W+mQ3LyPeNEMw2UEDeSKgLsrnbqIcZxQ65Z+
kWzfMoVNrH4tW4rIIFvL6lmekK+HexcYUx6PRmN25rXYL0EyA6EYQNcgfT+MJ1cK
59SdCfr19tkl3TTFTIaKYVr0ED4Jrcs0yr1E4jnurPAx+Ja/jhr7nMxlZ5Enmmrv
r+zBsAp8kPe9a25ynvnRV7TfdO9VKvJ5r/t4HO++RbKochem+f2o4fJgMBZwjljb
Jt11xybLItmKUUZkKDMR6Xxe4S8MCoIsxiDSJeb7Z92xxnwq5rWc+ASGo+08UlzC
DI2wmaE4oInnoT5hSG8fhcdA
-----END CERTIFICATE-----
