Certificate:
    Data:
        Version: 3 (0x2)
        Serial Number: 75 (0x4b)
        Signature Algorithm: sha256WithRSAEncryption
        Issuer: C=CA, O=SELF, OU=SELF, CN=SELF IDENTITY CA
        Validity
            Not Before: Sep  9 13:20:05 2024 GMT
            Not After : Aug 16 13:20:05 2124 GMT
        Subject: C=CA, O=mbed TLS, CN=Cert
        Subject Public Key Info:
            Public Key Algorithm: rsaEncryption
                Public-Key: (2048 bit)
                Modulus:
                    00:d5:54:92:fe:02:b2:df:32:21:5b:2c:f2:31:f2:
                    1d:2b:70:04:d7:50:a5:86:48:ed:ee:56:72:0e:5d:
                    17:89:a5:d8:7b:f5:a5:53:9c:84:46:6c:d3:9d:d5:
                    0b:8f:cc:63:9b:67:27:3e:19:46:34:2c:43:bd:97:
                    00:fd:48:ab:58:5a:1f:4d:7c:87:0e:df:ea:63:f9:
                    53:ee:ce:92:48:26:2c:fe:67:92:64:2e:e9:d1:f7:
                    9f:b7:e7:40:87:cb:36:cb:e5:79:28:19:13:60:9c:
                    b9:97:b3:ae:c9:fb:04:1a:4d:16:7f:f8:dc:43:ef:
                    5b:ed:87:e4:dd:a2:33:10:ef:e9:da:30:d5:c7:f4:
                    c6:1c:d3:19:79:ba:fb:b1:67:3b:3d:60:05:33:72:
                    4a:a9:6b:94:8e:ad:8b:e9:2d:67:8b:a1:b6:64:17:
                    cf:fe:e9:61:72:50:90:74:38:96:93:b2:2e:d8:b5:
                    a0:a6:b3:6f:c2:fe:26:ae:fe:40:3b:aa:0a:44:3d:
                    28:f4:b4:00:65:b8:8b:53:c3:a1:81:4c:f8:69:af:
                    19:0a:37:af:32:44:6a:d4:5e:fe:cd:d1:a6:33:7d:
                    d0:1f:2a:4e:d5:c3:b4:99:09:65:14:b8:9d:4f:b5:
                    6c:92:1f:27:d5:69:41:1e:57:23:dc:61:a2:eb:f8:
                    69:97
                Exponent: 65537 (0x10001)
        X509v3 extensions:
            X509v3 Subject Key Identifier: 
                F9:6A:A4:AE:0B:C2:82:45:DD:38:2F:9C:DB:B1:D3:CB:46:36:81:18
            X509v3 Authority Key Identifier: 
                97:6E:F5:B1:38:A0:FA:55:28:0D:D5:CC:E2:C3:41:F9:6F:F7:2E:57
            X509v3 Basic Constraints: 
                CA:FALSE
            X509v3 Key Usage: 
                Digital Signature, Key Encipherment
            Netscape Cert Type: 
                ...
    Signature Algorithm: sha256WithRSAEncryption
    Signature Value:
        a2:f1:f1:0e:03:90:eb:6f:3c:bd:06:b9:71:1d:0b:f6:58:3f:
        5b:05:57:d6:20:94:10:55:03:98:d8:4b:7b:5d:83:2c:8f:d4:
        f3:d5:14:3e:be:b9:cc:58:f0:ab:81:b2:d7:c7:54:88:7b:ab:
        bb:12:4d:93:66:61:de:91:8c:cd:12:05:e7:4a:78:8c:79:de:
        ab:ef:35:e6:ca:b8:cb:b6:9d:ef:90:f6:0a:c0:89:23:c9:95:
        21:5e:a5:54:14:1c:c2:ce:5c:e9:4b:c8:8b:95:4f:b6:2b:ea:
        d8:01:42:5f:a7:b2:6e:5c:8b:c9:e0:72:f2:43:17:1f:27:c2:
        20:18:7a:c6:00:2b:ad:a6:c8:fa:ec:66:e8:c9:68:1b:e9:6c:
        2d:ad:17:35:8b:65:36:58:8a:80:3a:b7:6f:e4:06:76:be:0d:
        3b:db:19:4a:49:20:f8:95:1a:92:3e:9a:71:12:5d:19:1f:2b:
        4a:ce:7a:8a:29:2c:b8:7d:c0:e0:98:57:ef:24:73:22:6c:53:
        e9:2a:56:26:4d:aa:a1:24:52:3a:9f:d5:25:dc:3b:c9:e8:61:
        10:41:61:b9:fb:0f:10:fb:a7:7e:5d:53:d2:64:7d:5d:a5:c7:
        7d:ae:d3:77:92:6f:19:18:74:c1:5a:c0:52:e7:1b:ec:3c:b4:
        98:76:4a:47:d0:a2:1d:81:c9:54:8d:f3:2c:51:cc:7b:1d:91:
        93:1a:13:d9:5e:00:77:76:53:af:2a:67:c4:7d:7d:86:c3:42:
        59:66:f4:d1:a6:e3:5d:c7:7b:89:79:52:5a:32:02:f0:0d:e7:
        09:8f:65:27:a0:b6:0c:0f:0c:99:00:5d:43:05:e1:dd:76:8c:
        c5:b9:f0:c6:d5:bf:82:5c:8b:32:8a:e5:00:6d:e5:39:82:96:
        0e:96:3b:84:98:6c:09:6b:8e:01:91:0e:62:78:92:85:ba:8c:
        8b:6e:4f:15:b4:45:43:6e:66:dc:8a:d7:3f:34:19:f8:cf:e9:
        8a:b6:d2:4a:7f:d0:c1:2e:36:59:20:17:28:da:bb:32:d4:75:
        7a:90:57:a0:f7:96:9c:55:d8:82:aa:94:ca:93:35:80:e3:0a:
        f4:60:ac:a9:70:cd:f3:cb:41:21:c9:ee:ed:1c:0b:f6:0b:31:
        6d:45:25:10:38:fc:58:b3:6a:26:27:27:9f:b8:73:89:34:70:
        0e:ab:46:2b:4f:35:1e:30:43:44:1c:da:04:56:3f:a0:00:f8:
        89:45:91:ef:f0:4c:ed:7e:6c:37:f3:2d:29:f5:0f:59:d8:1c:
        72:ee:cd:fa:e4:59:6e:a9:23:a2:b1:e3:e8:5b:6a:b8:c0:cb:
        70:5d:f7:2b:a3:e9:08:a7
-----BEGIN CERTIFICATE-----
MIIEXjCCAkagAwIBAgIBSzANBgkqhkiG9w0BAQsFADBGMQswCQYDVQQGEwJDQTEN
MAsGA1UECgwEU0VMRjENMAsGA1UECwwEU0VMRjEZMBcGA1UEAwwQU0VMRiBJREVO
VElUWSBDQTAgFw0yNDA5MDkxMzIwMDVaGA8yMTI0MDgxNjEzMjAwNVowLzELMAkG
A1UEBhMCQ0ExETAPBgNVBAoMCG1iZWQgVExTMQ0wCwYDVQQDDARDZXJ0MIIBIjAN
BgkqhkiG9w0BAQEFAAOCAQ8AMIIBCgKCAQEA1VSS/gKy3zIhWyzyMfIdK3AE11Cl
hkjt7lZyDl0XiaXYe/WlU5yERmzTndULj8xjm2cnPhlGNCxDvZcA/UirWFofTXyH
Dt/qY/lT7s6SSCYs/meSZC7p0feft+dAh8s2y+V5KBkTYJy5l7OuyfsEGk0Wf/jc
Q+9b7Yfk3aIzEO/p2jDVx/TGHNMZebr7sWc7PWAFM3JKqWuUjq2L6S1ni6G2ZBfP
/ulhclCQdDiWk7Iu2LWgprNvwv4mrv5AO6oKRD0o9LQAZbiLU8OhgUz4aa8ZCjev
MkRq1F7+zdGmM33QHypO1cO0mQllFLidT7Vskh8n1WlBHlcj3GGi6/hplwIDAQAB
o2wwajAdBgNVHQ4EFgQU+WqkrgvCgkXdOC+c27HTy0Y2gRgwHwYDVR0jBBgwFoAU
l271sTig+lUoDdXM4sNB+W/3LlcwCQYDVR0TBAIwADALBgNVHQ8EBAMCBaAwEAYJ
YIZIAYb4QgEBBAMDAQAwDQYJKoZIhvcNAQELBQADggIBAKLx8Q4DkOtvPL0GuXEd
C/ZYP1sFV9YglBBVA5jYS3tdgyyP1PPVFD6+ucxY8KuBstfHVIh7q7sSTZNmYd6R
jM0SBedKeIx53qvvNebKuMu2ne+Q9grAiSPJlSFepVQUHMLOXOlLyIuVT7Yr6tgB
Ql+nsm5ci8ngcvJDFx8nwiAYesYAK62myPrsZujJaBvpbC2tFzWLZTZYioA6t2/k
Bna+DTvbGUpJIPiVGpI+mnESXRkfK0rOeoopLLh9wOCYV+8kcyJsU+kqViZNqqEk
Ujqf1SXcO8noYRBBYbn7DxD7p35dU9JkfV2lx32u03eSbxkYdMFawFLnG+w8tJh2
SkfQoh2ByVSN8yxRzHsdkZMaE9leAHd2U68qZ8R9fYbDQllm9NGm413He4l5Uloy
AvAN5wmPZSegtgwPDJkAXUMF4d12jMW58MbVv4JcizKK5QBt5TmClg6WO4SYbAlr
jgGRDmJ4koW6jItuTxW0RUNuZtyK1z80GfjP6Yq20kp/0MEuNlkgFyjauzLUdXqQ
V6D3lpxV2IKqlMqTNYDjCvRgrKlwzfPLQSHJ7u0cC/YLMW1FJRA4/FizaiYnJ5+4
c4k0cA6rRitPNR4wQ0Qc2gRWP6AA+IlFke/wTO1+bDfzLSn1D1nYHHLuzfrkWW6p
I6Kx4+hbarjAy3Bd9yuj6Qin
-----END CERTIFICATE-----
