Certificate:
    Data:
        Version: 3 (0x2)
        Serial Number: 76 (0x4c)
        Signature Algorithm: sha256WithRSAEncryption
        Issuer: C=CA, O=SELF, OU=SELF, CN=SELF IDENTITY CA
        Validity
            Not Before: Sep  9 13:26:06 2024 GMT
            Not After : Aug 16 13:26:06 2124 GMT
        Subject: C=CA, O=mbed TLS, CN=Cert
        Subject Public Key Info:
            Public Key Algorithm: rsaEncryption
                Public-Key: (2048 bit)
                Modulus:
                    00:d5:54:92:fe:02:b2:df:32:21:5b:2c:f2:31:f2:
                    1d:2b:70:04:d7:50:a5:86:48:ed:ee:56:72:0e:5d:
                    17:89:a5:d8:7b:f5:a5:53:9c:84:46:6c:d3:9d:d5:
                    0b:8f:cc:63:9b:67:27:3e:19:46:34:2c:43:bd:97:
                    00:fd:48:ab:58:5a:1f:4d:7c:87:0e:df:ea:63:f9:
                    53:ee:ce:92:48:26:2c:fe:67:92:64:2e:e9:d1:f7:
                    9f:b7:e7:40:87:cb:36:cb:e5:79:28:19:13:60:9c:
                    b9:97:b3:ae:c9:fb:04:1a:4d:16:7f:f8:dc:43:ef:
                    5b:ed:87:e4:dd:a2:33:10:ef:e9:da:30:d5:c7:f4:
                    c6:1c:d3:19:79:ba:fb:b1:67:3b:3d:60:05:33:72:
                    4a:a9:6b:94:8e:ad:8b:e9:2d:67:8b:a1:b6:64:17:
                    cf:fe:e9:61:72:50:90:74:38:96:93:b2:2e:d8:b5:
                    a0:a6:b3:6f:c2:fe:26:ae:fe:40:3b:aa:0a:44:3d:
                    28:f4:b4:00:65:b8:8b:53:c3:a1:81:4c:f8:69:af:
                    19:0a:37:af:32:44:6a:d4:5e:fe:cd:d1:a6:33:7d:
                    d0:1f:2a:4e:d5:c3:b4:99:09:65:14:b8:9d:4f:b5:
                    6c:92:1f:27:d5:69:41:1e:57:23:dc:61:a2:eb:f8:
                    69:97
                Exponent: 65537 (0x10001)
        X509v3 extensions:
            X509v3 Subject Key Identifier: 
                F9:6A:A4:AE:0B:C2:82:45:DD:38:2F:9C:DB:B1:D3:CB:46:36:81:18
            X509v3 Authority Key Identifier: 
                97:6E:F5:B1:38:A0:FA:55:28:0D:D5:CC:E2:C3:41:F9:6F:F7:2E:57
            X509v3 Basic Constraints: 
                CA:FALSE
            X509v3 Key Usage: 
                Digital Signature, Key Encipherment
            Netscape Cert Type: 
                ...
    Signature Algorithm: sha256WithRSAEncryption
    Signature Value:
        9a:22:28:c8:8c:8d:f1:d1:52:79:33:ab:46:9e:95:3c:2c:a5:
        fb:ea:b7:e8:81:18:d8:11:e0:b4:d0:cd:07:d7:22:a6:d9:6b:
        94:13:cc:ac:2e:f1:ad:f0:2a:92:61:6b:4b:8e:f5:22:a2:2a:
        f3:d4:89:e9:49:51:7f:62:8d:98:30:ad:80:06:b8:9b:3d:7f:
        46:05:41:61:14:cc:65:6d:c8:0a:d4:13:79:54:c4:05:e7:f3:
        5e:01:26:a0:1e:9c:af:ac:2f:13:e3:80:e3:b2:59:41:d3:f8:
        0f:45:aa:22:a9:47:a5:4c:36:c4:30:17:85:ec:15:0f:33:12:
        49:58:db:09:57:8e:7c:0c:48:0b:ef:1b:19:49:cc:8f:16:b0:
        40:96:53:ea:6e:bf:35:64:ff:f7:15:70:c9:5e:42:81:b9:2c:
        ba:57:da:11:15:e6:58:d6:b9:d7:f2:6d:7d:44:56:9b:31:38:
        c5:13:ac:62:b4:f7:c6:6e:17:f0:15:f1:85:6b:43:f5:30:b6:
        f4:37:f2:a5:4f:c5:5a:45:fa:56:99:bd:f3:c7:f4:c2:5e:dc:
        4b:58:cd:b0:4a:3d:10:ba:b6:78:ae:3d:45:69:d9:b2:7e:dc:
        9c:7e:55:65:d9:dc:4f:58:94:bc:89:47:22:86:4c:1e:9c:16:
        04:da:05:a2:8d:27:23:c5:da:45:7f:86:0b:99:4e:cd:dc:37:
        71:6a:7b:15:fd:c2:e1:d3:9d:02:0c:f4:0c:2c:2e:e3:97:9f:
        43:5b:f2:27:a3:9e:16:ff:a1:15:71:ab:c7:f9:32:20:f8:96:
        e0:0d:88:2c:2e:79:10:4d:4e:ed:aa:ac:33:0d:e2:68:34:18:
        9f:74:54:04:58:ad:6f:09:93:a7:e7:a8:fa:67:e1:fe:1a:be:
        e5:2d:11:cb:a4:e3:4b:26:70:3c:da:ae:b1:b2:31:46:6d:05:
        f0:bc:72:5b:bb:82:17:d0:a3:ea:d6:2b:be:66:e7:11:3d:16:
        8f:3e:7c:85:f7:71:ff:58:22:e5:81:ec:f1:81:47:e4:16:69:
        dd:4e:4c:56:40:db:91:f4:cc:4d:59:b1:3b:75:b2:27:70:4e:
        18:f5:06:12:cc:64:db:49:b3:42:5c:6f:7b:ca:fa:fe:6d:56:
        d7:d1:e6:59:d9:80:d5:e1:7f:4d:94:c4:c6:31:32:c5:27:24:
        25:4d:9a:cb:f7:15:a5:0b:17:0e:1b:bf:af:14:0b:be:70:e5:
        af:ce:4f:81:3a:3e:12:2e:7b:03:c2:14:9f:98:b5:bc:3a:c1:
        de:0a:86:83:0e:5b:05:70:7a:8c:fb:c5:87:fe:63:6a:aa:39:
        b2:85:d3:c1:a7:7d:e4:45
-----BEGIN CERTIFICATE-----
MIIEXjCCAkagAwIBAgIBTDANBgkqhkiG9w0BAQsFADBGMQswCQYDVQQGEwJDQTEN
MAsGA1UECgwEU0VMRjENMAsGA1UECwwEU0VMRjEZMBcGA1UEAwwQU0VMRiBJREVO
VElUWSBDQTAgFw0yNDA5MDkxMzI2MDZaGA8yMTI0MDgxNjEzMjYwNlowLzELMAkG
A1UEBhMCQ0ExETAPBgNVBAoMCG1iZWQgVExTMQ0wCwYDVQQDDARDZXJ0MIIBIjAN
BgkqhkiG9w0BAQEFAAOCAQ8AMIIBCgKCAQEA1VSS/gKy3zIhWyzyMfIdK3AE11Cl
hkjt7lZyDl0XiaXYe/WlU5yERmzTndULj8xjm2cnPhlGNCxDvZcA/UirWFofTXyH
Dt/qY/lT7s6SSCYs/meSZC7p0feft+dAh8s2y+V5KBkTYJy5l7OuyfsEGk0Wf/jc
Q+9b7Yfk3aIzEO/p2jDVx/TGHNMZebr7sWc7PWAFM3JKqWuUjq2L6S1ni6G2ZBfP
/ulhclCQdDiWk7Iu2LWgprNvwv4mrv5AO6oKRD0o9LQAZbiLU8OhgUz4aa8ZCjev
MkRq1F7+zdGmM33QHypO1cO0mQllFLidT7Vskh8n1WlBHlcj3GGi6/hplwIDAQAB
o2wwajAdBgNVHQ4EFgQU+WqkrgvCgkXdOC+c27HTy0Y2gRgwHwYDVR0jBBgwFoAU
l271sTig+lUoDdXM4sNB+W/3LlcwCQYDVR0TBAIwADALBgNVHQ8EBAMCBaAwEAYJ
YIZIAYb4QgEBBAMDAQAwDQYJKoZIhvcNAQELBQADggIBAJoiKMiMjfHRUnkzq0ae
lTwspfvqt+iBGNgR4LTQzQfXIqbZa5QTzKwu8a3wKpJha0uO9SKiKvPUielJUX9i
jZgwrYAGuJs9f0YFQWEUzGVtyArUE3lUxAXn814BJqAenK+sLxPjgOOyWUHT+A9F
qiKpR6VMNsQwF4XsFQ8zEklY2wlXjnwMSAvvGxlJzI8WsECWU+puvzVk//cVcMle
QoG5LLpX2hEV5ljWudfybX1EVpsxOMUTrGK098ZuF/AV8YVrQ/UwtvQ38qVPxVpF
+laZvfPH9MJe3EtYzbBKPRC6tniuPUVp2bJ+3Jx+VWXZ3E9YlLyJRyKGTB6cFgTa
BaKNJyPF2kV/hguZTs3cN3FqexX9wuHTnQIM9AwsLuOXn0Nb8iejnhb/oRVxq8f5
MiD4luANiCwueRBNTu2qrDMN4mg0GJ90VARYrW8Jk6fnqPpn4f4avuUtEcuk40sm
cDzarrGyMUZtBfC8clu7ghfQo+rWK75m5xE9Fo8+fIX3cf9YIuWB7PGBR+QWad1O
TFZA25H0zE1ZsTt1sidwThj1BhLMZNtJs0Jcb3vK+v5tVtfR5lnZgNXhf02UxMYx
MsUnJCVNmsv3FaULFw4bv68UC75w5a/OT4E6PhIuewPCFJ+Ytbw6wd4KhoMOWwVw
eoz7xYf+Y2qqObKF08GnfeRF
-----END CERTIFICATE-----
