Certificate:
    Data:
        Version: 3 (0x2)
        Serial Number: 77 (0x4d)
        Signature Algorithm: sha256WithRSAEncryption
        Issuer: C=CA, O=SELF, OU=SELF, CN=SELF IDENTITY CA
        Validity
            Not Before: Sep  9 13:26:39 2024 GMT
            Not After : Aug 16 13:26:39 2124 GMT
        Subject: C=CA, O=mbed TLS, CN=Cert
        Subject Public Key Info:
            Public Key Algorithm: rsaEncryption
                Public-Key: (2048 bit)
                Modulus:
                    00:d5:54:92:fe:02:b2:df:32:21:5b:2c:f2:31:f2:
                    1d:2b:70:04:d7:50:a5:86:48:ed:ee:56:72:0e:5d:
                    17:89:a5:d8:7b:f5:a5:53:9c:84:46:6c:d3:9d:d5:
                    0b:8f:cc:63:9b:67:27:3e:19:46:34:2c:43:bd:97:
                    00:fd:48:ab:58:5a:1f:4d:7c:87:0e:df:ea:63:f9:
                    53:ee:ce:92:48:26:2c:fe:67:92:64:2e:e9:d1:f7:
                    9f:b7:e7:40:87:cb:36:cb:e5:79:28:19:13:60:9c:
                    b9:97:b3:ae:c9:fb:04:1a:4d:16:7f:f8:dc:43:ef:
                    5b:ed:87:e4:dd:a2:33:10:ef:e9:da:30:d5:c7:f4:
                    c6:1c:d3:19:79:ba:fb:b1:67:3b:3d:60:05:33:72:
                    4a:a9:6b:94:8e:ad:8b:e9:2d:67:8b:a1:b6:64:17:
                    cf:fe:e9:61:72:50:90:74:38:96:93:b2:2e:d8:b5:
                    a0:a6:b3:6f:c2:fe:26:ae:fe:40:3b:aa:0a:44:3d:
                    28:f4:b4:00:65:b8:8b:53:c3:a1:81:4c:f8:69:af:
                    19:0a:37:af:32:44:6a:d4:5e:fe:cd:d1:a6:33:7d:
                    d0:1f:2a:4e:d5:c3:b4:99:09:65:14:b8:9d:4f:b5:
                    6c:92:1f:27:d5:69:41:1e:57:23:dc:61:a2:eb:f8:
                    69:97
                Exponent: 65537 (0x10001)
        X509v3 extensions:
            X509v3 Subject Key Identifier: 
                F9:6A:A4:AE:0B:C2:82:45:DD:38:2F:9C:DB:B1:D3:CB:46:36:81:18
            X509v3 Authority Key Identifier: 
                97:6E:F5:B1:38:A0:FA:55:28:0D:D5:CC:E2:C3:41:F9:6F:F7:2E:57
            X509v3 Basic Constraints: 
                CA:FALSE
            X509v3 Key Usage: 
                Digital Signature, Key Encipherment
            Netscape Cert Type: 
                ...
    Signature Algorithm: sha256WithRSAEncryption
    Signature Value:
        48:42:a1:63:56:cb:fd:6b:53:62:21:a9:69:58:ff:48:6a:44:
        6a:fa:38:2b:73:b8:aa:dc:9b:86:3f:da:30:d6:7e:cf:02:95:
        a6:13:a6:d2:dc:c3:e8:2e:e7:c5:35:96:29:40:d9:18:c8:e0:
        a0:cc:d9:85:35:48:44:43:32:64:a9:69:2f:83:02:91:14:b0:
        40:8c:e7:5d:6f:bd:6f:22:07:3e:ff:2b:c3:7e:c4:f7:6c:65:
        d4:ab:a8:36:46:f4:99:d5:04:08:60:ac:fb:69:80:dc:73:81:
        66:3c:41:64:bb:51:44:c1:1c:6b:26:2f:a2:54:44:34:49:cf:
        47:d0:48:13:8f:4b:03:7f:e6:90:3e:63:dc:66:50:d2:a5:79:
        66:06:ce:4e:8d:b6:bc:c3:18:0f:72:3b:5a:7d:2f:2a:b2:00:
        59:ed:c2:89:f6:c0:3e:85:6d:34:fc:4d:a3:ab:07:e7:08:ec:
        9c:cf:49:08:d8:ed:79:77:bb:d9:11:2b:55:31:ac:2e:9d:e7:
        9a:e4:bd:b8:ff:8f:e1:23:ea:b3:0a:81:43:72:46:5f:77:50:
        79:2a:46:ca:28:5c:eb:46:39:d8:a2:17:d6:19:6d:8c:47:6e:
        6d:46:39:9c:f4:3b:a9:dc:06:2c:5d:36:f7:05:7c:fd:5c:f4:
        82:18:9c:19:ce:54:2a:bc:8b:b2:1d:0f:1c:dc:3c:df:d5:40:
        0f:dd:7c:14:10:59:71:02:1c:cb:4d:55:f6:1e:f6:d6:3f:cb:
        f4:89:47:92:49:10:fc:4b:e6:56:ab:0f:a4:30:33:68:c5:1e:
        6a:47:c1:d3:44:78:55:33:4b:00:97:7c:53:df:c9:0a:88:53:
        3a:1c:26:12:53:38:9d:92:ed:07:26:9d:14:3e:87:a0:05:8d:
        21:71:cb:51:b9:9f:b0:be:29:e9:7f:ba:60:a5:f8:16:9a:6f:
        44:cc:ce:9d:50:29:5a:e2:64:77:13:5e:f8:54:f7:a2:cd:1e:
        2b:c2:92:47:ed:e1:4d:08:4f:9b:1e:a6:b5:93:8c:3e:cf:dd:
        d6:e8:10:c9:07:d1:f3:70:52:8e:fd:50:70:68:38:7d:d9:a6:
        2e:66:08:b9:5c:23:66:b1:35:49:56:e5:ee:52:d3:35:80:c9:
        21:f0:6f:95:e8:3d:a9:1a:61:e9:1f:ac:73:c5:b6:5f:0f:66:
        a1:93:ea:74:4c:7d:ee:11:19:88:74:d2:d8:0c:65:11:1c:f7:
        12:78:8c:56:54:77:c8:11:f1:c9:f8:2e:b4:ea:87:a4:16:84:
        99:00:3d:ae:cb:1e:d2:44:f3:6c:0d:8c:81:e6:7a:24:c7:10:
        28:b9:91:a2:d4:78:3b:ec
-----BEGIN CERTIFICATE-----
MIIEXjCCAkagAwIBAgIBTTANBgkqhkiG9w0BAQsFADBGMQswCQYDVQQGEwJDQTEN
MAsGA1UECgwEU0VMRjENMAsGA1UECwwEU0VMRjEZMBcGA1UEAwwQU0VMRiBJREVO
VElUWSBDQTAgFw0yNDA5MDkxMzI2MzlaGA8yMTI0MDgxNjEzMjYzOVowLzELMAkG
A1UEBhMCQ0ExETAPBgNVBAoMCG1iZWQgVExTMQ0wCwYDVQQDDARDZXJ0MIIBIjAN
BgkqhkiG9w0BAQEFAAOCAQ8AMIIBCgKCAQEA1VSS/gKy3zIhWyzyMfIdK3AE11Cl
hkjt7lZyDl0XiaXYe/WlU5yERmzTndULj8xjm2cnPhlGNCxDvZcA/UirWFofTXyH
Dt/qY/lT7s6SSCYs/meSZC7p0feft+dAh8s2y+V5KBkTYJy5l7OuyfsEGk0Wf/jc
Q+9b7Yfk3aIzEO/p2jDVx/TGHNMZebr7sWc7PWAFM3JKqWuUjq2L6S1ni6G2ZBfP
/ulhclCQdDiWk7Iu2LWgprNvwv4mrv5AO6oKRD0o9LQAZbiLU8OhgUz4aa8ZCjev
MkRq1F7+zdGmM33QHypO1cO0mQllFLidT7Vskh8n1WlBHlcj3GGi6/hplwIDAQAB
o2wwajAdBgNVHQ4EFgQU+WqkrgvCgkXdOC+c27HTy0Y2gRgwHwYDVR0jBBgwFoAU
l271sTig+lUoDdXM4sNB+W/3LlcwCQYDVR0TBAIwADALBgNVHQ8EBAMCBaAwEAYJ
YIZIAYb4QgEBBAMDAQAwDQYJKoZIhvcNAQELBQADggIBAEhCoWNWy/1rU2IhqWlY
/0hqRGr6OCtzuKrcm4Y/2jDWfs8ClaYTptLcw+gu58U1lilA2RjI4KDM2YU1SERD
MmSpaS+DApEUsECM511vvW8iBz7/K8N+xPdsZdSrqDZG9JnVBAhgrPtpgNxzgWY8
QWS7UUTBHGsmL6JURDRJz0fQSBOPSwN/5pA+Y9xmUNKleWYGzk6NtrzDGA9yO1p9
LyqyAFntwon2wD6FbTT8TaOrB+cI7JzPSQjY7Xl3u9kRK1UxrC6d55rkvbj/j+Ej
6rMKgUNyRl93UHkqRsooXOtGOdiiF9YZbYxHbm1GOZz0O6ncBixdNvcFfP1c9IIY
nBnOVCq8i7IdDxzcPN/VQA/dfBQQWXECHMtNVfYe9tY/y/SJR5JJEPxL5larD6Qw
M2jFHmpHwdNEeFUzSwCXfFPfyQqIUzocJhJTOJ2S7QcmnRQ+h6AFjSFxy1G5n7C+
Kel/umCl+Baab0TMzp1QKVriZHcTXvhU96LNHivCkkft4U0IT5seprWTjD7P3dbo
EMkH0fNwUo79UHBoOH3Zpi5mCLlcI2axNUlW5e5S0zWAySHwb5XoPakaYekfrHPF
tl8PZqGT6nRMfe4RGYh00tgMZREc9xJ4jFZUd8gR8cn4LrTqh6QWhJkAPa7LHtJE
82wNjIHmeiTHECi5kaLUeDvs
-----END CERTIFICATE-----
