Certificate:
    Data:
        Version: 3 (0x2)
        Serial Number: 78 (0x4e)
        Signature Algorithm: sha256WithRSAEncryption
        Issuer: C=CA, O=SELF, OU=SELF, CN=SELF IDENTITY CA
        Validity
            Not Before: Sep  9 13:27:07 2024 GMT
            Not After : Aug 16 13:27:07 2124 GMT
        Subject: C=CA, O=mbed TLS, CN=Cert
        Subject Public Key Info:
            Public Key Algorithm: rsaEncryption
                Public-Key: (2048 bit)
                Modulus:
                    00:d5:54:92:fe:02:b2:df:32:21:5b:2c:f2:31:f2:
                    1d:2b:70:04:d7:50:a5:86:48:ed:ee:56:72:0e:5d:
                    17:89:a5:d8:7b:f5:a5:53:9c:84:46:6c:d3:9d:d5:
                    0b:8f:cc:63:9b:67:27:3e:19:46:34:2c:43:bd:97:
                    00:fd:48:ab:58:5a:1f:4d:7c:87:0e:df:ea:63:f9:
                    53:ee:ce:92:48:26:2c:fe:67:92:64:2e:e9:d1:f7:
                    9f:b7:e7:40:87:cb:36:cb:e5:79:28:19:13:60:9c:
                    b9:97:b3:ae:c9:fb:04:1a:4d:16:7f:f8:dc:43:ef:
                    5b:ed:87:e4:dd:a2:33:10:ef:e9:da:30:d5:c7:f4:
                    c6:1c:d3:19:79:ba:fb:b1:67:3b:3d:60:05:33:72:
                    4a:a9:6b:94:8e:ad:8b:e9:2d:67:8b:a1:b6:64:17:
                    cf:fe:e9:61:72:50:90:74:38:96:93:b2:2e:d8:b5:
                    a0:a6:b3:6f:c2:fe:26:ae:fe:40:3b:aa:0a:44:3d:
                    28:f4:b4:00:65:b8:8b:53:c3:a1:81:4c:f8:69:af:
                    19:0a:37:af:32:44:6a:d4:5e:fe:cd:d1:a6:33:7d:
                    d0:1f:2a:4e:d5:c3:b4:99:09:65:14:b8:9d:4f:b5:
                    6c:92:1f:27:d5:69:41:1e:57:23:dc:61:a2:eb:f8:
                    69:97
                Exponent: 65537 (0x10001)
        X509v3 extensions:
            X509v3 Subject Key Identifier: 
                F9:6A:A4:AE:0B:C2:82:45:DD:38:2F:9C:DB:B1:D3:CB:46:36:81:18
            X509v3 Authority Key Identifier: 
                97:6E:F5:B1:38:A0:FA:55:28:0D:D5:CC:E2:C3:41:F9:6F:F7:2E:57
            X509v3 Basic Constraints: 
                CA:FALSE
            X509v3 Key Usage: 
                Digital Signature, Key Encipherment
            Netscape Cert Type: 
                ...
    Signature Algorithm: sha256WithRSAEncryption
    Signature Value:
        68:1e:f5:e2:34:57:7c:4f:ec:c4:c4:95:8a:1c:47:dc:36:7d:
        7e:03:32:00:4b:27:e4:63:55:5f:57:d0:19:43:ef:e5:35:5e:
        6f:8a:76:8e:1f:96:6f:db:96:62:d5:cf:69:37:47:d0:66:f2:
        b3:24:2f:8f:e4:e6:20:c2:ad:d8:00:08:22:24:b2:18:fe:ae:
        b1:10:37:12:4e:68:f9:98:e1:bf:23:d6:6e:41:5c:c9:e5:04:
        b3:1b:a4:72:3f:54:fd:02:a3:7d:b8:3b:45:74:79:76:59:ef:
        4e:30:02:10:f2:a1:f6:c9:1a:ea:b3:d4:b7:09:c4:87:6f:b2:
        95:6a:d9:76:06:1a:bd:d7:31:15:d5:e8:39:98:28:5a:13:c8:
        d9:a8:76:12:96:35:6a:9e:12:28:60:ec:e9:2f:82:a9:2c:99:
        cd:31:c2:a9:cd:fa:7c:5f:3d:16:1a:24:6e:c3:ae:f2:6a:65:
        1c:50:de:9d:9c:97:d9:d9:66:78:0c:47:e1:24:e6:52:73:a3:
        43:03:70:2c:2b:56:7d:40:65:ea:91:dc:a6:a2:a7:d4:7e:0b:
        05:e0:91:9e:85:34:54:5a:2f:f6:a0:55:ae:4e:54:82:3a:82:
        3d:90:5b:d3:96:38:d3:0e:85:a1:f9:a1:bb:4b:0c:a6:3a:a1:
        f8:cf:6d:41:c4:bc:20:2f:56:95:28:a6:a2:3e:46:48:f1:0a:
        82:d7:ec:ad:95:ca:88:61:d0:91:4e:70:de:1c:ab:84:bc:0d:
        35:1d:b6:b2:40:6a:00:95:8f:ef:e8:ee:da:a0:dc:b9:2c:3a:
        be:70:11:2e:c5:dc:4e:c8:24:42:b1:bb:d0:0c:0d:85:2a:f3:
        0d:a1:a9:7f:18:7d:25:e4:68:a6:d1:6e:2c:94:02:ed:c0:29:
        d3:7d:5e:bc:f8:5f:63:33:f9:e1:44:e9:57:a8:bc:91:87:d6:
        0f:0d:02:34:33:08:0c:cf:5b:90:27:5f:5c:6d:8e:50:cf:dd:
        19:ff:58:c1:55:68:46:85:20:e7:35:3a:7f:9f:92:7a:ad:f4:
        fa:21:14:aa:14:c0:8a:26:6d:4c:ed:8b:9d:cc:34:5b:6b:4a:
        98:22:dd:76:dd:36:eb:61:30:ee:5a:e2:ff:8b:6b:0e:95:00:
        70:46:7d:26:37:be:2f:9a:20:34:98:df:5e:e3:4b:7b:0e:bb:
        cb:f5:dc:0a:9f:fc:3c:f2:0d:0b:b1:bb:9f:9a:25:0a:0c:30:
        f5:25:a0:3c:21:18:19:15:68:a2:c2:b5:0f:f6:e1:37:27:a8:
        d5:96:4c:02:a0:ab:a5:22:0e:6a:51:f6:e7:9b:3a:91:28:de:
        41:fc:90:21:2f:16:37:30
-----BEGIN CERTIFICATE-----
MIIEXjCCAkagAwIBAgIBTjANBgkqhkiG9w0BAQsFADBGMQswCQYDVQQGEwJDQTEN
MAsGA1UECgwEU0VMRjENMAsGA1UECwwEU0VMRjEZMBcGA1UEAwwQU0VMRiBJREVO
VElUWSBDQTAgFw0yNDA5MDkxMzI3MDdaGA8yMTI0MDgxNjEzMjcwN1owLzELMAkG
A1UEBhMCQ0ExETAPBgNVBAoMCG1iZWQgVExTMQ0wCwYDVQQDDARDZXJ0MIIBIjAN
BgkqhkiG9w0BAQEFAAOCAQ8AMIIBCgKCAQEA1VSS/gKy3zIhWyzyMfIdK3AE11Cl
hkjt7lZyDl0XiaXYe/WlU5yERmzTndULj8xjm2cnPhlGNCxDvZcA/UirWFofTXyH
Dt/qY/lT7s6SSCYs/meSZC7p0feft+dAh8s2y+V5KBkTYJy5l7OuyfsEGk0Wf/jc
Q+9b7Yfk3aIzEO/p2jDVx/TGHNMZebr7sWc7PWAFM3JKqWuUjq2L6S1ni6G2ZBfP
/ulhclCQdDiWk7Iu2LWgprNvwv4mrv5AO6oKRD0o9LQAZbiLU8OhgUz4aa8ZCjev
MkRq1F7+zdGmM33QHypO1cO0mQllFLidT7Vskh8n1WlBHlcj3GGi6/hplwIDAQAB
o2wwajAdBgNVHQ4EFgQU+WqkrgvCgkXdOC+c27HTy0Y2gRgwHwYDVR0jBBgwFoAU
l271sTig+lUoDdXM4sNB+W/3LlcwCQYDVR0TBAIwADALBgNVHQ8EBAMCBaAwEAYJ
YIZIAYb4QgEBBAMDAQAwDQYJKoZIhvcNAQELBQADggIBAGge9eI0V3xP7MTElYoc
R9w2fX4DMgBLJ+RjVV9X0BlD7+U1Xm+Kdo4flm/blmLVz2k3R9Bm8rMkL4/k5iDC
rdgACCIkshj+rrEQNxJOaPmY4b8j1m5BXMnlBLMbpHI/VP0Co324O0V0eXZZ704w
AhDyofbJGuqz1LcJxIdvspVq2XYGGr3XMRXV6DmYKFoTyNmodhKWNWqeEihg7Okv
gqksmc0xwqnN+nxfPRYaJG7DrvJqZRxQ3p2cl9nZZngMR+Ek5lJzo0MDcCwrVn1A
ZeqR3Kaip9R+CwXgkZ6FNFRaL/agVa5OVII6gj2QW9OWONMOhaH5obtLDKY6ofjP
bUHEvCAvVpUopqI+RkjxCoLX7K2Vyohh0JFOcN4cq4S8DTUdtrJAagCVj+/o7tqg
3LksOr5wES7F3E7IJEKxu9AMDYUq8w2hqX8YfSXkaKbRbiyUAu3AKdN9Xrz4X2Mz
+eFE6VeovJGH1g8NAjQzCAzPW5AnX1xtjlDP3Rn/WMFVaEaFIOc1On+fknqt9Poh
FKoUwIombUzti53MNFtrSpgi3XbdNuthMO5a4v+Law6VAHBGfSY3vi+aIDSY317j
S3sOu8v13Aqf/DzyDQuxu5+aJQoMMPUloDwhGBkVaKLCtQ/24TcnqNWWTAKgq6Ui
DmpR9uebOpEo3kH8kCEvFjcw
-----END CERTIFICATE-----
