Certificate:
    Data:
        Version: 3 (0x2)
        Serial Number: 79 (0x4f)
        Signature Algorithm: sha256WithRSAEncryption
        Issuer: C=CA, O=SELF, OU=SELF, CN=SELF IDENTITY CA
        Validity
            Not Before: Sep  9 13:29:40 2024 GMT
            Not After : Aug 16 13:29:40 2124 GMT
        Subject: C=CA, O=mbed TLS, CN=Cert
        Subject Public Key Info:
            Public Key Algorithm: rsaEncryption
                Public-Key: (2048 bit)
                Modulus:
                    00:d5:54:92:fe:02:b2:df:32:21:5b:2c:f2:31:f2:
                    1d:2b:70:04:d7:50:a5:86:48:ed:ee:56:72:0e:5d:
                    17:89:a5:d8:7b:f5:a5:53:9c:84:46:6c:d3:9d:d5:
                    0b:8f:cc:63:9b:67:27:3e:19:46:34:2c:43:bd:97:
                    00:fd:48:ab:58:5a:1f:4d:7c:87:0e:df:ea:63:f9:
                    53:ee:ce:92:48:26:2c:fe:67:92:64:2e:e9:d1:f7:
                    9f:b7:e7:40:87:cb:36:cb:e5:79:28:19:13:60:9c:
                    b9:97:b3:ae:c9:fb:04:1a:4d:16:7f:f8:dc:43:ef:
                    5b:ed:87:e4:dd:a2:33:10:ef:e9:da:30:d5:c7:f4:
                    c6:1c:d3:19:79:ba:fb:b1:67:3b:3d:60:05:33:72:
                    4a:a9:6b:94:8e:ad:8b:e9:2d:67:8b:a1:b6:64:17:
                    cf:fe:e9:61:72:50:90:74:38:96:93:b2:2e:d8:b5:
                    a0:a6:b3:6f:c2:fe:26:ae:fe:40:3b:aa:0a:44:3d:
                    28:f4:b4:00:65:b8:8b:53:c3:a1:81:4c:f8:69:af:
                    19:0a:37:af:32:44:6a:d4:5e:fe:cd:d1:a6:33:7d:
                    d0:1f:2a:4e:d5:c3:b4:99:09:65:14:b8:9d:4f:b5:
                    6c:92:1f:27:d5:69:41:1e:57:23:dc:61:a2:eb:f8:
                    69:97
                Exponent: 65537 (0x10001)
        X509v3 extensions:
            X509v3 Subject Key Identifier: 
                F9:6A:A4:AE:0B:C2:82:45:DD:38:2F:9C:DB:B1:D3:CB:46:36:81:18
            X509v3 Authority Key Identifier: 
                97:6E:F5:B1:38:A0:FA:55:28:0D:D5:CC:E2:C3:41:F9:6F:F7:2E:57
            X509v3 Basic Constraints: 
                CA:FALSE
            X509v3 Key Usage: 
                Digital Signature, Key Encipherment
            Netscape Cert Type: 
                ...
    Signature Algorithm: sha256WithRSAEncryption
    Signature Value:
        94:76:44:83:09:9c:9b:d3:43:f1:78:3e:ff:eb:eb:4b:aa:a6:
        4f:24:76:db:b9:0e:18:df:7f:7e:e4:c2:48:c2:a7:70:44:7f:
        be:95:87:1e:7b:e4:b8:5b:04:e5:a6:88:46:f3:00:e6:7d:91:
        a8:2b:3c:01:46:b9:50:5c:a7:bc:1c:21:25:9d:72:14:e8:88:
        7e:10:a1:d9:2d:0c:c5:9b:b7:97:45:5d:5f:49:87:68:2b:ca:
        16:6c:70:17:30:38:81:8f:0f:e9:fc:35:c4:c5:03:cc:75:52:
        dc:46:8a:e4:d8:d7:2a:a5:f6:a0:cb:77:fd:c5:45:26:0d:72:
        28:c9:20:65:7f:1f:e9:70:09:c4:b4:d1:dc:57:46:73:81:f5:
        fb:29:ac:4b:4d:90:f0:89:9f:81:7e:35:e6:46:99:8c:04:d2:
        ee:d3:17:43:57:51:54:bc:b4:49:aa:eb:6e:f6:f6:b1:e0:60:
        12:35:b4:4c:64:54:99:2c:b2:48:d5:e1:ca:b7:19:7f:e5:49:
        45:e8:96:de:a2:85:48:5b:8e:0e:6c:7e:c2:38:01:2c:5a:af:
        5c:18:3a:33:c3:06:9d:d2:7b:85:9b:54:26:41:7c:cd:de:45:
        93:f6:d3:a9:47:0f:fb:0e:79:d3:b5:57:e0:0a:cd:ff:46:8a:
        a9:63:10:c2:47:66:6a:c3:1d:4c:50:30:96:fa:51:ce:4e:d8:
        50:63:8b:d5:09:c2:56:1d:24:dc:3a:26:89:3e:99:c6:a7:a0:
        e3:e9:f2:2e:d1:59:9c:16:c6:22:60:14:c9:dc:7c:60:97:7b:
        35:87:3c:d1:0e:f1:2b:a6:9e:88:cf:90:a5:ab:e7:e7:33:a2:
        f9:9b:b8:25:5c:ea:2b:7a:80:27:e0:28:64:17:5e:26:42:f1:
        2c:a6:f6:1c:97:d7:de:5a:d3:12:6e:e7:5e:39:5e:00:99:eb:
        5b:d7:59:5d:1b:34:5b:75:43:23:0f:96:bd:f3:b1:0a:56:92:
        e5:6d:67:86:e3:a4:24:bb:4e:00:e4:bd:2b:70:f2:d4:ff:56:
        27:6d:39:63:cd:1a:b6:39:02:a0:5e:ba:4f:9f:21:8f:6b:0e:
        ac:23:eb:84:e3:11:d5:a4:b8:22:27:e9:bd:c3:4a:fc:0b:2d:
        ed:64:59:da:5e:d4:43:7c:67:bc:71:17:86:d7:f1:c5:9c:c6:
        ba:34:9f:f5:ff:19:d9:13:8b:ec:b2:6e:e5:98:b9:e1:a0:aa:
        21:e7:d4:a6:74:f8:d4:ed:f8:45:c8:e6:18:66:83:2e:58:c9:
        02:62:59:c4:71:94:3d:e0:29:1a:66:69:41:68:71:ea:cb:9c:
        e7:d9:35:74:68:85:95:d4
-----BEGIN CERTIFICATE-----
MIIEXjCCAkagAwIBAgIBTzANBgkqhkiG9w0BAQsFADBGMQswCQYDVQQGEwJDQTEN
MAsGA1UECgwEU0VMRjENMAsGA1UECwwEU0VMRjEZMBcGA1UEAwwQU0VMRiBJREVO
VElUWSBDQTAgFw0yNDA5MDkxMzI5NDBaGA8yMTI0MDgxNjEzMjk0MFowLzELMAkG
A1UEBhMCQ0ExETAPBgNVBAoMCG1iZWQgVExTMQ0wCwYDVQQDDARDZXJ0MIIBIjAN
BgkqhkiG9w0BAQEFAAOCAQ8AMIIBCgKCAQEA1VSS/gKy3zIhWyzyMfIdK3AE11Cl
hkjt7lZyDl0XiaXYe/WlU5yERmzTndULj8xjm2cnPhlGNCxDvZcA/UirWFofTXyH
Dt/qY/lT7s6SSCYs/meSZC7p0feft+dAh8s2y+V5KBkTYJy5l7OuyfsEGk0Wf/jc
Q+9b7Yfk3aIzEO/p2jDVx/TGHNMZebr7sWc7PWAFM3JKqWuUjq2L6S1ni6G2ZBfP
/ulhclCQdDiWk7Iu2LWgprNvwv4mrv5AO6oKRD0o9LQAZbiLU8OhgUz4aa8ZCjev
MkRq1F7+zdGmM33QHypO1cO0mQllFLidT7Vskh8n1WlBHlcj3GGi6/hplwIDAQAB
o2wwajAdBgNVHQ4EFgQU+WqkrgvCgkXdOC+c27HTy0Y2gRgwHwYDVR0jBBgwFoAU
l271sTig+lUoDdXM4sNB+W/3LlcwCQYDVR0TBAIwADALBgNVHQ8EBAMCBaAwEAYJ
YIZIAYb4QgEBBAMDAQAwDQYJKoZIhvcNAQELBQADggIBAJR2RIMJnJvTQ/F4Pv/r
60uqpk8kdtu5Dhjff37kwkjCp3BEf76Vhx575LhbBOWmiEbzAOZ9kagrPAFGuVBc
p7wcISWdchToiH4QodktDMWbt5dFXV9Jh2gryhZscBcwOIGPD+n8NcTFA8x1UtxG
iuTY1yql9qDLd/3FRSYNcijJIGV/H+lwCcS00dxXRnOB9fsprEtNkPCJn4F+NeZG
mYwE0u7TF0NXUVS8tEmq62729rHgYBI1tExkVJksskjV4cq3GX/lSUXolt6ihUhb
jg5sfsI4ASxar1wYOjPDBp3Se4WbVCZBfM3eRZP206lHD/sOedO1V+AKzf9Giqlj
EMJHZmrDHUxQMJb6Uc5O2FBji9UJwlYdJNw6Jok+mcanoOPp8i7RWZwWxiJgFMnc
fGCXezWHPNEO8SumnojPkKWr5+czovmbuCVc6it6gCfgKGQXXiZC8Sym9hyX195a
0xJu5145XgCZ61vXWV0bNFt1QyMPlr3zsQpWkuVtZ4bjpCS7TgDkvStw8tT/Vidt
OWPNGrY5AqBeuk+fIY9rDqwj64TjEdWkuCIn6b3DSvwLLe1kWdpe1EN8Z7xxF4bX
8cWcxro0n/X/GdkTi+yybuWYueGgqiHn1KZ0+NTt+EXI5hhmgy5YyQJiWcRxlD3g
KRpmaUFocerLnOfZNXRohZXU
-----END CERTIFICATE-----
