Certificate:
    Data:
        Version: 3 (0x2)
        Serial Number: 80 (0x50)
        Signature Algorithm: sha256WithRSAEncryption
        Issuer: C=CA, O=SELF, OU=SELF, CN=SELF IDENTITY CA
        Validity
            Not Before: Sep  9 13:30:40 2024 GMT
            Not After : Aug 16 13:30:40 2124 GMT
        Subject: C=CA, O=mbed TLS, CN=Cert
        Subject Public Key Info:
            Public Key Algorithm: rsaEncryption
                Public-Key: (2048 bit)
                Modulus:
                    00:d5:54:92:fe:02:b2:df:32:21:5b:2c:f2:31:f2:
                    1d:2b:70:04:d7:50:a5:86:48:ed:ee:56:72:0e:5d:
                    17:89:a5:d8:7b:f5:a5:53:9c:84:46:6c:d3:9d:d5:
                    0b:8f:cc:63:9b:67:27:3e:19:46:34:2c:43:bd:97:
                    00:fd:48:ab:58:5a:1f:4d:7c:87:0e:df:ea:63:f9:
                    53:ee:ce:92:48:26:2c:fe:67:92:64:2e:e9:d1:f7:
                    9f:b7:e7:40:87:cb:36:cb:e5:79:28:19:13:60:9c:
                    b9:97:b3:ae:c9:fb:04:1a:4d:16:7f:f8:dc:43:ef:
                    5b:ed:87:e4:dd:a2:33:10:ef:e9:da:30:d5:c7:f4:
                    c6:1c:d3:19:79:ba:fb:b1:67:3b:3d:60:05:33:72:
                    4a:a9:6b:94:8e:ad:8b:e9:2d:67:8b:a1:b6:64:17:
                    cf:fe:e9:61:72:50:90:74:38:96:93:b2:2e:d8:b5:
                    a0:a6:b3:6f:c2:fe:26:ae:fe:40:3b:aa:0a:44:3d:
                    28:f4:b4:00:65:b8:8b:53:c3:a1:81:4c:f8:69:af:
                    19:0a:37:af:32:44:6a:d4:5e:fe:cd:d1:a6:33:7d:
                    d0:1f:2a:4e:d5:c3:b4:99:09:65:14:b8:9d:4f:b5:
                    6c:92:1f:27:d5:69:41:1e:57:23:dc:61:a2:eb:f8:
                    69:97
                Exponent: 65537 (0x10001)
        X509v3 extensions:
            X509v3 Subject Key Identifier: 
                F9:6A:A4:AE:0B:C2:82:45:DD:38:2F:9C:DB:B1:D3:CB:46:36:81:18
            X509v3 Authority Key Identifier: 
                97:6E:F5:B1:38:A0:FA:55:28:0D:D5:CC:E2:C3:41:F9:6F:F7:2E:57
            X509v3 Basic Constraints: 
                CA:FALSE
            X509v3 Key Usage: 
                Digital Signature, Key Encipherment
            Netscape Cert Type: 
                ...
    Signature Algorithm: sha256WithRSAEncryption
    Signature Value:
        12:43:44:8f:4d:89:08:d5:7c:89:ee:1f:c0:22:cf:d6:15:d5:
        39:2b:ee:05:8c:29:0b:6e:da:47:bf:89:0e:d1:39:93:ea:b6:
        8e:04:ff:aa:69:65:31:9e:0f:3d:11:1c:4e:31:a3:df:57:6c:
        27:f7:b3:f6:64:92:6f:29:b0:7f:32:a2:51:70:b5:1d:65:d5:
        ba:67:85:df:e2:dc:b3:ec:2f:49:6d:1c:f1:f9:85:2b:62:90:
        18:e9:11:aa:51:4c:f2:de:9e:cc:7c:9a:2d:fd:af:06:f9:ac:
        dc:84:f3:30:85:0f:5b:62:83:de:3b:6b:00:01:0b:eb:2f:4e:
        74:93:61:d3:c9:c9:e2:74:a0:3e:f9:e0:7f:a6:b4:97:e0:5e:
        e5:38:45:bb:dd:41:0c:50:df:88:7b:00:7b:32:4b:9e:c9:bf:
        e0:bd:05:2b:bb:97:5b:17:20:58:c2:79:9a:88:b6:56:fe:14:
        bf:23:2f:53:50:6c:60:27:0e:fd:17:62:dc:28:0e:56:97:1c:
        04:5b:30:1d:8e:00:a2:57:f0:f6:91:d7:4f:35:4a:78:04:25:
        b8:d6:21:86:cf:f7:69:08:6b:a0:a7:ab:1c:c7:ff:38:47:e7:
        7c:ce:2c:ac:97:81:98:aa:19:cd:a9:b6:6e:47:86:44:a1:dc:
        7b:cf:ea:7e:9f:f3:eb:31:8d:6c:14:12:f2:24:44:5e:c6:55:
        a9:78:bf:ca:10:ab:89:27:8c:61:3e:84:5d:b7:1f:0c:f3:8f:
        35:2a:a3:92:c1:a3:b4:86:8a:bd:a5:5f:91:d5:a8:c5:38:8e:
        dc:44:21:76:74:67:71:0d:ab:12:c8:e9:e6:da:3a:fe:07:5a:
        f4:95:e8:d4:6e:5f:83:23:01:ad:f1:0e:41:36:59:f0:5c:3a:
        37:c6:00:a7:1c:fc:9f:ba:58:24:37:3e:0a:83:c6:75:e5:be:
        ad:58:44:fc:6d:1b:1d:55:05:c4:8a:fb:6d:e9:92:9a:e1:54:
        c0:87:39:6b:c1:60:52:18:db:b1:35:92:53:eb:be:ae:28:b4:
        51:0e:8b:6b:fc:bb:e7:23:30:99:fb:55:a4:22:9e:c5:6a:b1:
        be:ac:a6:fc:26:da:90:af:5a:53:cd:f6:53:f7:ee:e9:08:ec:
        cf:d7:d3:f2:86:e1:d7:e5:89:2d:69:21:ea:ca:e7:89:de:5c:
        3a:2d:64:9a:7a:9a:b9:73:63:f6:ae:15:cb:17:f4:9e:91:20:
        a7:54:2c:36:4d:e3:42:b6:9e:f2:2d:30:b6:f3:81:0f:48:18:
        13:bf:0d:48:7c:b3:25:03:6e:f5:f0:c4:ad:c4:0c:c8:df:9d:
        c2:0e:7a:22:62:7e:75:18
-----BEGIN CERTIFICATE-----
MIIEXjCCAkagAwIBAgIBUDANBgkqhkiG9w0BAQsFADBGMQswCQYDVQQGEwJDQTEN
MAsGA1UECgwEU0VMRjENMAsGA1UECwwEU0VMRjEZMBcGA1UEAwwQU0VMRiBJREVO
VElUWSBDQTAgFw0yNDA5MDkxMzMwNDBaGA8yMTI0MDgxNjEzMzA0MFowLzELMAkG
A1UEBhMCQ0ExETAPBgNVBAoMCG1iZWQgVExTMQ0wCwYDVQQDDARDZXJ0MIIBIjAN
BgkqhkiG9w0BAQEFAAOCAQ8AMIIBCgKCAQEA1VSS/gKy3zIhWyzyMfIdK3AE11Cl
hkjt7lZyDl0XiaXYe/WlU5yERmzTndULj8xjm2cnPhlGNCxDvZcA/UirWFofTXyH
Dt/qY/lT7s6SSCYs/meSZC7p0feft+dAh8s2y+V5KBkTYJy5l7OuyfsEGk0Wf/jc
Q+9b7Yfk3aIzEO/p2jDVx/TGHNMZebr7sWc7PWAFM3JKqWuUjq2L6S1ni6G2ZBfP
/ulhclCQdDiWk7Iu2LWgprNvwv4mrv5AO6oKRD0o9LQAZbiLU8OhgUz4aa8ZCjev
MkRq1F7+zdGmM33QHypO1cO0mQllFLidT7Vskh8n1WlBHlcj3GGi6/hplwIDAQAB
o2wwajAdBgNVHQ4EFgQU+WqkrgvCgkXdOC+c27HTy0Y2gRgwHwYDVR0jBBgwFoAU
l271sTig+lUoDdXM4sNB+W/3LlcwCQYDVR0TBAIwADALBgNVHQ8EBAMCBaAwEAYJ
YIZIAYb4QgEBBAMDAQAwDQYJKoZIhvcNAQELBQADggIBABJDRI9NiQjVfInuH8Ai
z9YV1Tkr7gWMKQtu2ke/iQ7ROZPqto4E/6ppZTGeDz0RHE4xo99XbCf3s/Zkkm8p
sH8yolFwtR1l1bpnhd/i3LPsL0ltHPH5hStikBjpEapRTPLensx8mi39rwb5rNyE
8zCFD1tig947awABC+svTnSTYdPJyeJ0oD754H+mtJfgXuU4RbvdQQxQ34h7AHsy
S57Jv+C9BSu7l1sXIFjCeZqItlb+FL8jL1NQbGAnDv0XYtwoDlaXHARbMB2OAKJX
8PaR1081SngEJbjWIYbP92kIa6CnqxzH/zhH53zOLKyXgZiqGc2ptm5HhkSh3HvP
6n6f8+sxjWwUEvIkRF7GVal4v8oQq4knjGE+hF23HwzzjzUqo5LBo7SGir2lX5HV
qMU4jtxEIXZ0Z3ENqxLI6ebaOv4HWvSV6NRuX4MjAa3xDkE2WfBcOjfGAKcc/J+6
WCQ3PgqDxnXlvq1YRPxtGx1VBcSK+23pkprhVMCHOWvBYFIY27E1klPrvq4otFEO
i2v8u+cjMJn7VaQinsVqsb6spvwm2pCvWlPN9lP37ukI7M/X0/KG4dfliS1pIerK
54neXDotZJp6mrlzY/auFcsX9J6RIKdULDZN40K2nvItMLbzgQ9IGBO/DUh8syUD
bvXwxK3EDMjfncIOeiJifnUY
-----END CERTIFICATE-----
