Certificate:
    Data:
        Version: 3 (0x2)
        Serial Number: 81 (0x51)
        Signature Algorithm: sha256WithRSAEncryption
        Issuer: C=CA, O=SELF, OU=SELF, CN=SELF IDENTITY CA
        Validity
            Not Before: Sep  9 13:38:18 2024 GMT
            Not After : Aug 16 13:38:18 2124 GMT
        Subject: C=CA, O=mbed TLS, CN=Cert
        Subject Public Key Info:
            Public Key Algorithm: rsaEncryption
                Public-Key: (2048 bit)
                Modulus:
                    00:d5:54:92:fe:02:b2:df:32:21:5b:2c:f2:31:f2:
                    1d:2b:70:04:d7:50:a5:86:48:ed:ee:56:72:0e:5d:
                    17:89:a5:d8:7b:f5:a5:53:9c:84:46:6c:d3:9d:d5:
                    0b:8f:cc:63:9b:67:27:3e:19:46:34:2c:43:bd:97:
                    00:fd:48:ab:58:5a:1f:4d:7c:87:0e:df:ea:63:f9:
                    53:ee:ce:92:48:26:2c:fe:67:92:64:2e:e9:d1:f7:
                    9f:b7:e7:40:87:cb:36:cb:e5:79:28:19:13:60:9c:
                    b9:97:b3:ae:c9:fb:04:1a:4d:16:7f:f8:dc:43:ef:
                    5b:ed:87:e4:dd:a2:33:10:ef:e9:da:30:d5:c7:f4:
                    c6:1c:d3:19:79:ba:fb:b1:67:3b:3d:60:05:33:72:
                    4a:a9:6b:94:8e:ad:8b:e9:2d:67:8b:a1:b6:64:17:
                    cf:fe:e9:61:72:50:90:74:38:96:93:b2:2e:d8:b5:
                    a0:a6:b3:6f:c2:fe:26:ae:fe:40:3b:aa:0a:44:3d:
                    28:f4:b4:00:65:b8:8b:53:c3:a1:81:4c:f8:69:af:
                    19:0a:37:af:32:44:6a:d4:5e:fe:cd:d1:a6:33:7d:
                    d0:1f:2a:4e:d5:c3:b4:99:09:65:14:b8:9d:4f:b5:
                    6c:92:1f:27:d5:69:41:1e:57:23:dc:61:a2:eb:f8:
                    69:97
                Exponent: 65537 (0x10001)
        X509v3 extensions:
            X509v3 Subject Key Identifier: 
                F9:6A:A4:AE:0B:C2:82:45:DD:38:2F:9C:DB:B1:D3:CB:46:36:81:18
            X509v3 Authority Key Identifier: 
                97:6E:F5:B1:38:A0:FA:55:28:0D:D5:CC:E2:C3:41:F9:6F:F7:2E:57
            X509v3 Basic Constraints: 
                CA:FALSE
            X509v3 Key Usage: 
                Digital Signature, Key Encipherment
            Netscape Cert Type: 
                ...
    Signature Algorithm: sha256WithRSAEncryption
    Signature Value:
        0d:59:f8:fd:84:70:2a:15:7b:5a:c8:52:e2:05:58:f3:68:09:
        cc:85:46:e1:22:5c:ca:c6:96:06:02:a8:fc:e4:bb:bc:7c:1f:
        62:9a:84:65:2b:26:d0:68:e1:18:18:ff:8d:d5:39:56:78:57:
        58:cd:1c:1d:d5:68:f5:6f:ad:6d:38:1a:2b:0b:cb:95:80:4c:
        3c:f1:11:cc:c6:3f:4e:a4:36:09:13:88:dd:97:ac:55:23:09:
        35:3d:f0:7c:d0:43:fd:89:b9:cc:78:43:a4:6d:06:89:4e:75:
        2f:71:5d:e9:bd:3a:78:27:c9:b4:2e:f3:ac:6b:21:d2:d3:5a:
        53:0f:db:11:4c:22:40:63:f7:bb:41:56:ef:a0:58:21:eb:d9:
        22:b4:20:19:f8:44:b6:4d:b0:a2:7f:ee:ef:21:7e:84:46:45:
        35:5d:7e:de:d9:e3:ae:26:d0:b6:a7:e7:c9:0a:d2:ed:43:67:
        c0:a2:73:0d:c2:98:08:63:fa:d2:67:45:72:f7:54:cf:fc:14:
        86:4f:ed:32:20:43:72:8a:e6:75:e6:73:78:e3:fa:95:42:05:
        20:07:a6:ca:1a:01:70:ba:1e:97:1a:2d:69:33:96:16:6e:42:
        98:fe:e7:58:04:a4:c9:ad:41:98:71:2b:2a:86:df:ee:08:07:
        d9:fd:f7:2c:f6:68:d7:a4:0a:9c:a8:52:64:3a:6f:d2:69:14:
        ba:8d:12:38:af:b4:c1:e0:78:82:4d:6d:84:32:77:66:33:55:
        c6:21:ef:0e:18:42:94:c1:a3:fe:34:37:68:26:08:42:7d:50:
        fa:05:aa:64:7d:cd:76:87:b9:71:65:7c:3c:25:6a:42:c2:5e:
        80:55:ec:f9:da:2d:6a:9a:d1:28:23:3c:db:40:d0:f9:39:25:
        8c:75:7e:94:63:05:08:9f:b3:f9:e6:68:68:02:7f:99:42:95:
        db:ad:62:7b:87:c7:c5:7d:28:33:7b:54:a8:e0:fd:91:02:a9:
        ea:44:ea:26:6f:23:38:d1:90:83:7b:33:4a:eb:36:77:dc:6d:
        5e:8a:6a:35:0f:83:12:16:7c:7c:d7:f4:f2:27:f4:f3:7b:4e:
        d9:30:4a:51:0d:0b:2e:eb:20:99:c3:28:70:ba:8f:84:12:80:
        02:2f:84:01:14:6b:88:45:89:85:59:96:21:7d:8e:a4:19:69:
        c3:5e:f4:7e:8f:86:d7:ac:3b:83:ce:7f:84:78:4b:0e:f7:38:
        aa:5b:3b:04:e8:9e:29:69:92:93:5d:0e:bc:7a:1d:f4:33:b8:
        97:63:70:7a:5a:13:e2:a4:4d:66:62:5d:3a:c6:1f:f9:7c:35:
        f9:30:fa:93:ed:b3:d4:9b
-----BEGIN CERTIFICATE-----
MIIEXjCCAkagAwIBAgIBUTANBgkqhkiG9w0BAQsFADBGMQswCQYDVQQGEwJDQTEN
MAsGA1UECgwEU0VMRjENMAsGA1UECwwEU0VMRjEZMBcGA1UEAwwQU0VMRiBJREVO
VElUWSBDQTAgFw0yNDA5MDkxMzM4MThaGA8yMTI0MDgxNjEzMzgxOFowLzELMAkG
A1UEBhMCQ0ExETAPBgNVBAoMCG1iZWQgVExTMQ0wCwYDVQQDDARDZXJ0MIIBIjAN
BgkqhkiG9w0BAQEFAAOCAQ8AMIIBCgKCAQEA1VSS/gKy3zIhWyzyMfIdK3AE11Cl
hkjt7lZyDl0XiaXYe/WlU5yERmzTndULj8xjm2cnPhlGNCxDvZcA/UirWFofTXyH
Dt/qY/lT7s6SSCYs/meSZC7p0feft+dAh8s2y+V5KBkTYJy5l7OuyfsEGk0Wf/jc
Q+9b7Yfk3aIzEO/p2jDVx/TGHNMZebr7sWc7PWAFM3JKqWuUjq2L6S1ni6G2ZBfP
/ulhclCQdDiWk7Iu2LWgprNvwv4mrv5AO6oKRD0o9LQAZbiLU8OhgUz4aa8ZCjev
MkRq1F7+zdGmM33QHypO1cO0mQllFLidT7Vskh8n1WlBHlcj3GGi6/hplwIDAQAB
o2wwajAdBgNVHQ4EFgQU+WqkrgvCgkXdOC+c27HTy0Y2gRgwHwYDVR0jBBgwFoAU
l271sTig+lUoDdXM4sNB+W/3LlcwCQYDVR0TBAIwADALBgNVHQ8EBAMCBaAwEAYJ
YIZIAYb4QgEBBAMDAQAwDQYJKoZIhvcNAQELBQADggIBAA1Z+P2EcCoVe1rIUuIF
WPNoCcyFRuEiXMrGlgYCqPzku7x8H2KahGUrJtBo4RgY/43VOVZ4V1jNHB3VaPVv
rW04GisLy5WATDzxEczGP06kNgkTiN2XrFUjCTU98HzQQ/2Jucx4Q6RtBolOdS9x
Xem9OngnybQu86xrIdLTWlMP2xFMIkBj97tBVu+gWCHr2SK0IBn4RLZNsKJ/7u8h
foRGRTVdft7Z464m0Lan58kK0u1DZ8Cicw3CmAhj+tJnRXL3VM/8FIZP7TIgQ3KK
5nXmc3jj+pVCBSAHpsoaAXC6HpcaLWkzlhZuQpj+51gEpMmtQZhxKyqG3+4IB9n9
9yz2aNekCpyoUmQ6b9JpFLqNEjivtMHgeIJNbYQyd2YzVcYh7w4YQpTBo/40N2gm
CEJ9UPoFqmR9zXaHuXFlfDwlakLCXoBV7PnaLWqa0SgjPNtA0Pk5JYx1fpRjBQif
s/nmaGgCf5lCldutYnuHx8V9KDN7VKjg/ZECqepE6iZvIzjRkIN7M0rrNnfcbV6K
ajUPgxIWfHzX9PIn9PN7TtkwSlENCy7rIJnDKHC6j4QSgAIvhAEUa4hFiYVZliF9
jqQZacNe9H6PhtesO4POf4R4Sw73OKpbOwTonilpkpNdDrx6HfQzuJdjcHpaE+Kk
TWZiXTrGH/l8Nfkw+pPts9Sb
-----END CERTIFICATE-----
