Certificate:
    Data:
        Version: 3 (0x2)
        Serial Number: 82 (0x52)
        Signature Algorithm: sha256WithRSAEncryption
        Issuer: C=CA, O=SELF, OU=SELF, CN=SELF IDENTITY CA
        Validity
            Not Before: Sep  9 13:38:35 2024 GMT
            Not After : Aug 16 13:38:35 2124 GMT
        Subject: C=CA, O=mbed TLS, CN=Cert
        Subject Public Key Info:
            Public Key Algorithm: rsaEncryption
                Public-Key: (2048 bit)
                Modulus:
                    00:d5:54:92:fe:02:b2:df:32:21:5b:2c:f2:31:f2:
                    1d:2b:70:04:d7:50:a5:86:48:ed:ee:56:72:0e:5d:
                    17:89:a5:d8:7b:f5:a5:53:9c:84:46:6c:d3:9d:d5:
                    0b:8f:cc:63:9b:67:27:3e:19:46:34:2c:43:bd:97:
                    00:fd:48:ab:58:5a:1f:4d:7c:87:0e:df:ea:63:f9:
                    53:ee:ce:92:48:26:2c:fe:67:92:64:2e:e9:d1:f7:
                    9f:b7:e7:40:87:cb:36:cb:e5:79:28:19:13:60:9c:
                    b9:97:b3:ae:c9:fb:04:1a:4d:16:7f:f8:dc:43:ef:
                    5b:ed:87:e4:dd:a2:33:10:ef:e9:da:30:d5:c7:f4:
                    c6:1c:d3:19:79:ba:fb:b1:67:3b:3d:60:05:33:72:
                    4a:a9:6b:94:8e:ad:8b:e9:2d:67:8b:a1:b6:64:17:
                    cf:fe:e9:61:72:50:90:74:38:96:93:b2:2e:d8:b5:
                    a0:a6:b3:6f:c2:fe:26:ae:fe:40:3b:aa:0a:44:3d:
                    28:f4:b4:00:65:b8:8b:53:c3:a1:81:4c:f8:69:af:
                    19:0a:37:af:32:44:6a:d4:5e:fe:cd:d1:a6:33:7d:
                    d0:1f:2a:4e:d5:c3:b4:99:09:65:14:b8:9d:4f:b5:
                    6c:92:1f:27:d5:69:41:1e:57:23:dc:61:a2:eb:f8:
                    69:97
                Exponent: 65537 (0x10001)
        X509v3 extensions:
            X509v3 Subject Key Identifier: 
                F9:6A:A4:AE:0B:C2:82:45:DD:38:2F:9C:DB:B1:D3:CB:46:36:81:18
            X509v3 Authority Key Identifier: 
                97:6E:F5:B1:38:A0:FA:55:28:0D:D5:CC:E2:C3:41:F9:6F:F7:2E:57
            X509v3 Basic Constraints: 
                CA:FALSE
            X509v3 Key Usage: 
                Digital Signature, Key Encipherment
            Netscape Cert Type: 
                ...
    Signature Algorithm: sha256WithRSAEncryption
    Signature Value:
        9f:cf:2e:55:c0:c8:f2:37:49:a0:6e:b1:d0:3e:a6:a6:e8:14:
        1c:b7:e0:d5:b1:70:07:75:a7:a5:8f:7b:99:45:7f:9f:a2:c4:
        1b:cf:b5:75:d7:3e:91:ca:fe:2f:53:48:ac:9e:61:eb:5f:bf:
        36:7d:d2:49:92:6d:1e:0a:29:36:11:e2:d2:92:71:0a:cc:b7:
        ab:14:87:d6:fd:ec:c4:9d:7c:77:cf:37:bd:b7:53:11:48:de:
        d5:e2:e9:64:55:3c:78:d3:63:04:47:9d:f3:c5:16:52:98:17:
        8c:f9:a6:25:ee:ec:7b:94:16:9d:39:81:34:a6:13:ce:6e:c6:
        98:cc:35:8a:a6:c9:45:64:6c:d6:6d:28:93:c0:b2:c3:a8:c9:
        36:92:1e:79:ea:83:35:b2:e8:71:0f:05:a4:56:4b:9e:bc:34:
        5c:b0:f2:7a:8e:44:38:cf:a1:e2:74:35:e6:f2:c2:26:2a:54:
        a3:eb:cc:e9:26:66:7f:3a:78:79:4f:d1:9d:d3:7c:7e:12:ae:
        56:4c:c7:14:b0:25:30:b2:7e:54:c5:fe:80:cd:ab:c3:21:54:
        82:df:a4:61:08:7c:3b:6a:9d:07:fe:b6:88:50:b5:81:ef:ce:
        31:ca:b6:d7:ca:ac:fb:fc:d7:e1:5f:0a:e8:e7:66:13:fc:9a:
        fc:d7:66:5e:25:8f:f8:c9:15:b1:9c:55:8c:dd:c1:63:35:50:
        ff:46:0c:72:87:a9:f3:1e:46:f0:ef:85:ce:8e:0c:fc:9a:03:
        10:e1:ea:b7:a9:a5:66:80:b1:38:2f:36:be:7f:5a:da:b5:29:
        61:ea:c7:0b:f9:c4:53:bd:a8:d1:69:7b:85:64:d3:da:e6:86:
        33:f0:e4:92:00:d9:b3:c8:dd:e8:af:d8:b2:8f:b7:62:4e:63:
        69:3c:59:b2:40:93:30:f5:7c:ae:73:5f:83:5b:e7:bf:f5:5d:
        56:14:51:22:37:5b:b1:33:c6:8b:c5:25:83:84:31:7f:51:0c:
        d4:8a:8c:4b:69:4c:2b:ee:5d:6e:cd:06:92:11:19:e7:8d:8c:
        8a:0f:63:ba:0d:98:92:d7:82:50:ca:af:4c:71:d7:b1:70:41:
        41:5a:93:c1:22:24:ab:ae:9c:54:08:7e:b7:e3:24:2f:50:83:
        75:9d:48:fa:5c:6d:68:06:d2:cd:5c:a8:40:db:74:f2:82:ce:
        b6:1f:c8:9f:29:83:9e:55:2c:e1:ad:71:72:38:ea:7c:75:ca:
        21:e7:62:6a:00:01:7f:e3:ea:ca:eb:52:40:c7:be:bc:6c:85:
        44:f9:30:57:60:e0:9b:d8:19:a1:83:9c:49:ca:b0:77:32:53:
        de:f2:37:5c:06:0e:62:b7
-----BEGIN CERTIFICATE-----
MIIEXjCCAkagAwIBAgIBUjANBgkqhkiG9w0BAQsFADBGMQswCQYDVQQGEwJDQTEN
MAsGA1UECgwEU0VMRjENMAsGA1UECwwEU0VMRjEZMBcGA1UEAwwQU0VMRiBJREVO
VElUWSBDQTAgFw0yNDA5MDkxMzM4MzVaGA8yMTI0MDgxNjEzMzgzNVowLzELMAkG
A1UEBhMCQ0ExETAPBgNVBAoMCG1iZWQgVExTMQ0wCwYDVQQDDARDZXJ0MIIBIjAN
BgkqhkiG9w0BAQEFAAOCAQ8AMIIBCgKCAQEA1VSS/gKy3zIhWyzyMfIdK3AE11Cl
hkjt7lZyDl0XiaXYe/WlU5yERmzTndULj8xjm2cnPhlGNCxDvZcA/UirWFofTXyH
Dt/qY/lT7s6SSCYs/meSZC7p0feft+dAh8s2y+V5KBkTYJy5l7OuyfsEGk0Wf/jc
Q+9b7Yfk3aIzEO/p2jDVx/TGHNMZebr7sWc7PWAFM3JKqWuUjq2L6S1ni6G2ZBfP
/ulhclCQdDiWk7Iu2LWgprNvwv4mrv5AO6oKRD0o9LQAZbiLU8OhgUz4aa8ZCjev
MkRq1F7+zdGmM33QHypO1cO0mQllFLidT7Vskh8n1WlBHlcj3GGi6/hplwIDAQAB
o2wwajAdBgNVHQ4EFgQU+WqkrgvCgkXdOC+c27HTy0Y2gRgwHwYDVR0jBBgwFoAU
l271sTig+lUoDdXM4sNB+W/3LlcwCQYDVR0TBAIwADALBgNVHQ8EBAMCBaAwEAYJ
YIZIAYb4QgEBBAMDAQAwDQYJKoZIhvcNAQELBQADggIBAJ/PLlXAyPI3SaBusdA+
pqboFBy34NWxcAd1p6WPe5lFf5+ixBvPtXXXPpHK/i9TSKyeYetfvzZ90kmSbR4K
KTYR4tKScQrMt6sUh9b97MSdfHfPN723UxFI3tXi6WRVPHjTYwRHnfPFFlKYF4z5
piXu7HuUFp05gTSmE85uxpjMNYqmyUVkbNZtKJPAssOoyTaSHnnqgzWy6HEPBaRW
S568NFyw8nqORDjPoeJ0NebywiYqVKPrzOkmZn86eHlP0Z3TfH4SrlZMxxSwJTCy
flTF/oDNq8MhVILfpGEIfDtqnQf+tohQtYHvzjHKttfKrPv81+FfCujnZhP8mvzX
Zl4lj/jJFbGcVYzdwWM1UP9GDHKHqfMeRvDvhc6ODPyaAxDh6reppWaAsTgvNr5/
Wtq1KWHqxwv5xFO9qNFpe4Vk09rmhjPw5JIA2bPI3eiv2LKPt2JOY2k8WbJAkzD1
fK5zX4Nb57/1XVYUUSI3W7EzxovFJYOEMX9RDNSKjEtpTCvuXW7NBpIRGeeNjIoP
Y7oNmJLXglDKr0xx17FwQUFak8EiJKuunFQIfrfjJC9Qg3WdSPpcbWgG0s1cqEDb
dPKCzrYfyJ8pg55VLOGtcXI46nx1yiHnYmoAAX/j6srrUkDHvrxshUT5MFdg4JvY
GaGDnEnKsHcyU97yN1wGDmK3
-----END CERTIFICATE-----
