Certificate:
    Data:
        Version: 3 (0x2)
        Serial Number: 83 (0x53)
        Signature Algorithm: sha256WithRSAEncryption
        Issuer: C=CA, O=SELF, OU=SELF, CN=SELF IDENTITY CA
        Validity
            Not Before: Sep  9 13:41:59 2024 GMT
            Not After : Aug 16 13:41:59 2124 GMT
        Subject: C=CA, O=mbed TLS, CN=Cert
        Subject Public Key Info:
            Public Key Algorithm: rsaEncryption
                Public-Key: (2048 bit)
                Modulus:
                    00:d5:54:92:fe:02:b2:df:32:21:5b:2c:f2:31:f2:
                    1d:2b:70:04:d7:50:a5:86:48:ed:ee:56:72:0e:5d:
                    17:89:a5:d8:7b:f5:a5:53:9c:84:46:6c:d3:9d:d5:
                    0b:8f:cc:63:9b:67:27:3e:19:46:34:2c:43:bd:97:
                    00:fd:48:ab:58:5a:1f:4d:7c:87:0e:df:ea:63:f9:
                    53:ee:ce:92:48:26:2c:fe:67:92:64:2e:e9:d1:f7:
                    9f:b7:e7:40:87:cb:36:cb:e5:79:28:19:13:60:9c:
                    b9:97:b3:ae:c9:fb:04:1a:4d:16:7f:f8:dc:43:ef:
                    5b:ed:87:e4:dd:a2:33:10:ef:e9:da:30:d5:c7:f4:
                    c6:1c:d3:19:79:ba:fb:b1:67:3b:3d:60:05:33:72:
                    4a:a9:6b:94:8e:ad:8b:e9:2d:67:8b:a1:b6:64:17:
                    cf:fe:e9:61:72:50:90:74:38:96:93:b2:2e:d8:b5:
                    a0:a6:b3:6f:c2:fe:26:ae:fe:40:3b:aa:0a:44:3d:
                    28:f4:b4:00:65:b8:8b:53:c3:a1:81:4c:f8:69:af:
                    19:0a:37:af:32:44:6a:d4:5e:fe:cd:d1:a6:33:7d:
                    d0:1f:2a:4e:d5:c3:b4:99:09:65:14:b8:9d:4f:b5:
                    6c:92:1f:27:d5:69:41:1e:57:23:dc:61:a2:eb:f8:
                    69:97
                Exponent: 65537 (0x10001)
        X509v3 extensions:
            X509v3 Subject Key Identifier: 
                F9:6A:A4:AE:0B:C2:82:45:DD:38:2F:9C:DB:B1:D3:CB:46:36:81:18
            X509v3 Authority Key Identifier: 
                97:6E:F5:B1:38:A0:FA:55:28:0D:D5:CC:E2:C3:41:F9:6F:F7:2E:57
            X509v3 Basic Constraints: 
                CA:FALSE
            X509v3 Key Usage: 
                Digital Signature, Key Encipherment
            Netscape Cert Type: 
                ...
    Signature Algorithm: sha256WithRSAEncryption
    Signature Value:
        89:02:77:92:9a:57:43:eb:ca:5c:da:4c:da:bd:43:86:b4:23:
        a9:dc:2a:2f:30:45:ce:0d:75:c9:17:9f:1c:08:df:b4:fb:11:
        be:c1:80:73:b1:54:8d:db:69:3b:c9:d5:4a:9a:f3:18:39:4a:
        95:af:3b:bd:2d:a4:75:13:3d:4e:af:7d:01:d3:28:1d:c0:9b:
        85:6c:b1:63:4d:4d:d5:6d:52:02:b6:89:59:41:da:5d:0f:7e:
        af:7e:9f:3f:14:24:43:66:88:df:8c:99:0b:84:0a:01:61:e0:
        0f:1c:45:8e:b1:89:a3:a9:2c:3f:00:b3:5f:b5:4b:78:e3:be:
        fc:28:43:e0:ac:6b:14:72:db:bc:b5:65:98:60:0e:52:f4:0f:
        28:68:a2:a6:9e:b6:fe:6b:64:87:e3:df:0b:5b:7a:68:c6:57:
        0e:19:35:a1:88:a6:a5:2c:8d:63:ae:56:38:3b:37:07:de:ac:
        01:d1:e6:1d:e2:fc:02:d4:08:77:22:70:50:cc:65:08:4a:ec:
        e7:fe:c0:4d:99:ce:a6:47:ac:da:a2:51:d8:15:4d:b8:66:8a:
        26:6b:17:17:e3:0d:ef:43:f8:6c:11:13:bb:5a:07:80:71:c2:
        eb:e3:b6:40:00:bc:86:08:0c:14:cd:88:88:84:9f:b9:b4:42:
        dd:83:48:77:64:9e:c2:8e:9b:8a:5e:13:29:93:a1:1d:02:9a:
        c0:7f:c7:28:a9:27:91:4f:d5:ad:b5:91:a3:4b:ba:40:6d:20:
        8a:95:b5:c4:c9:4c:a1:b9:4c:69:c3:59:b8:5b:d9:04:1a:e6:
        d8:c4:c7:85:96:39:50:eb:05:bb:91:f4:a9:f2:04:8d:ac:e6:
        02:1e:dd:15:de:b8:4e:4a:98:bf:b1:52:e5:27:cd:73:ee:17:
        7a:10:06:7d:15:f4:9c:0f:17:e2:5c:c4:57:a3:a9:3e:7a:dd:
        3c:25:e3:cd:fd:a2:1d:66:06:41:2f:be:3e:3b:9a:84:82:18:
        57:3a:79:03:34:17:cc:53:08:10:6c:d6:41:d0:78:18:06:53:
        13:8f:a0:61:8e:0d:af:1f:70:32:79:01:8a:d2:3c:ab:63:56:
        8b:cb:5f:fe:42:af:cf:f8:cd:f8:0b:11:44:c5:16:88:97:3c:
        64:58:16:78:46:f2:98:66:0d:b5:c8:fe:cc:5b:ea:cb:d5:2b:
        42:3e:28:35:db:0f:71:4b:bf:c2:25:f3:51:93:a9:77:6e:1f:
        c8:ad:47:a1:57:2f:83:8a:5b:89:d1:dd:0f:a6:78:10:0b:59:
        4b:a6:f7:92:b4:7f:b5:97:41:42:90:a6:51:cc:cf:a4:c9:07:
        90:7f:a9:90:7a:19:c3:f2
-----BEGIN CERTIFICATE-----
MIIEXjCCAkagAwIBAgIBUzANBgkqhkiG9w0BAQsFADBGMQswCQYDVQQGEwJDQTEN
MAsGA1UECgwEU0VMRjENMAsGA1UECwwEU0VMRjEZMBcGA1UEAwwQU0VMRiBJREVO
VElUWSBDQTAgFw0yNDA5MDkxMzQxNTlaGA8yMTI0MDgxNjEzNDE1OVowLzELMAkG
A1UEBhMCQ0ExETAPBgNVBAoMCG1iZWQgVExTMQ0wCwYDVQQDDARDZXJ0MIIBIjAN
BgkqhkiG9w0BAQEFAAOCAQ8AMIIBCgKCAQEA1VSS/gKy3zIhWyzyMfIdK3AE11Cl
hkjt7lZyDl0XiaXYe/WlU5yERmzTndULj8xjm2cnPhlGNCxDvZcA/UirWFofTXyH
Dt/qY/lT7s6SSCYs/meSZC7p0feft+dAh8s2y+V5KBkTYJy5l7OuyfsEGk0Wf/jc
Q+9b7Yfk3aIzEO/p2jDVx/TGHNMZebr7sWc7PWAFM3JKqWuUjq2L6S1ni6G2ZBfP
/ulhclCQdDiWk7Iu2LWgprNvwv4mrv5AO6oKRD0o9LQAZbiLU8OhgUz4aa8ZCjev
MkRq1F7+zdGmM33QHypO1cO0mQllFLidT7Vskh8n1WlBHlcj3GGi6/hplwIDAQAB
o2wwajAdBgNVHQ4EFgQU+WqkrgvCgkXdOC+c27HTy0Y2gRgwHwYDVR0jBBgwFoAU
l271sTig+lUoDdXM4sNB+W/3LlcwCQYDVR0TBAIwADALBgNVHQ8EBAMCBaAwEAYJ
YIZIAYb4QgEBBAMDAQAwDQYJKoZIhvcNAQELBQADggIBAIkCd5KaV0PrylzaTNq9
Q4a0I6ncKi8wRc4NdckXnxwI37T7Eb7BgHOxVI3baTvJ1Uqa8xg5SpWvO70tpHUT
PU6vfQHTKB3Am4VssWNNTdVtUgK2iVlB2l0Pfq9+nz8UJENmiN+MmQuECgFh4A8c
RY6xiaOpLD8As1+1S3jjvvwoQ+CsaxRy27y1ZZhgDlL0Dyhooqaetv5rZIfj3wtb
emjGVw4ZNaGIpqUsjWOuVjg7NwferAHR5h3i/ALUCHcicFDMZQhK7Of+wE2ZzqZH
rNqiUdgVTbhmiiZrFxfjDe9D+GwRE7taB4BxwuvjtkAAvIYIDBTNiIiEn7m0Qt2D
SHdknsKOm4peEymToR0CmsB/xyipJ5FP1a21kaNLukBtIIqVtcTJTKG5TGnDWbhb
2QQa5tjEx4WWOVDrBbuR9KnyBI2s5gIe3RXeuE5KmL+xUuUnzXPuF3oQBn0V9JwP
F+JcxFejqT563Twl4839oh1mBkEvvj47moSCGFc6eQM0F8xTCBBs1kHQeBgGUxOP
oGGODa8fcDJ5AYrSPKtjVovLX/5Cr8/4zfgLEUTFFoiXPGRYFnhG8phmDbXI/sxb
6svVK0I+KDXbD3FLv8Il81GTqXduH8itR6FXL4OKW4nR3Q+meBALWUum95K0f7WX
QUKQplHMz6TJB5B/qZB6GcPy
-----END CERTIFICATE-----
