Certificate:
    Data:
        Version: 3 (0x2)
        Serial Number: 84 (0x54)
        Signature Algorithm: sha256WithRSAEncryption
        Issuer: C=CA, O=SELF, OU=SELF, CN=SELF IDENTITY CA
        Validity
            Not Before: Sep  9 13:46:49 2024 GMT
            Not After : Aug 16 13:46:49 2124 GMT
        Subject: C=CA, O=mbed TLS, CN=Cert
        Subject Public Key Info:
            Public Key Algorithm: rsaEncryption
                Public-Key: (2048 bit)
                Modulus:
                    00:d5:54:92:fe:02:b2:df:32:21:5b:2c:f2:31:f2:
                    1d:2b:70:04:d7:50:a5:86:48:ed:ee:56:72:0e:5d:
                    17:89:a5:d8:7b:f5:a5:53:9c:84:46:6c:d3:9d:d5:
                    0b:8f:cc:63:9b:67:27:3e:19:46:34:2c:43:bd:97:
                    00:fd:48:ab:58:5a:1f:4d:7c:87:0e:df:ea:63:f9:
                    53:ee:ce:92:48:26:2c:fe:67:92:64:2e:e9:d1:f7:
                    9f:b7:e7:40:87:cb:36:cb:e5:79:28:19:13:60:9c:
                    b9:97:b3:ae:c9:fb:04:1a:4d:16:7f:f8:dc:43:ef:
                    5b:ed:87:e4:dd:a2:33:10:ef:e9:da:30:d5:c7:f4:
                    c6:1c:d3:19:79:ba:fb:b1:67:3b:3d:60:05:33:72:
                    4a:a9:6b:94:8e:ad:8b:e9:2d:67:8b:a1:b6:64:17:
                    cf:fe:e9:61:72:50:90:74:38:96:93:b2:2e:d8:b5:
                    a0:a6:b3:6f:c2:fe:26:ae:fe:40:3b:aa:0a:44:3d:
                    28:f4:b4:00:65:b8:8b:53:c3:a1:81:4c:f8:69:af:
                    19:0a:37:af:32:44:6a:d4:5e:fe:cd:d1:a6:33:7d:
                    d0:1f:2a:4e:d5:c3:b4:99:09:65:14:b8:9d:4f:b5:
                    6c:92:1f:27:d5:69:41:1e:57:23:dc:61:a2:eb:f8:
                    69:97
                Exponent: 65537 (0x10001)
        X509v3 extensions:
            X509v3 Subject Key Identifier: 
                F9:6A:A4:AE:0B:C2:82:45:DD:38:2F:9C:DB:B1:D3:CB:46:36:81:18
            X509v3 Authority Key Identifier: 
                97:6E:F5:B1:38:A0:FA:55:28:0D:D5:CC:E2:C3:41:F9:6F:F7:2E:57
            X509v3 Basic Constraints: 
                CA:FALSE
            X509v3 Key Usage: 
                Digital Signature, Key Encipherment
            Netscape Cert Type: 
                ...
    Signature Algorithm: sha256WithRSAEncryption
    Signature Value:
        9b:89:c0:3c:ba:6f:41:df:b3:f0:dd:66:d5:68:b6:a7:c6:0f:
        07:73:ff:47:c0:67:d9:72:32:8c:31:54:85:2c:7a:8f:6a:56:
        67:ec:f0:90:6b:72:18:d7:9b:ec:23:fd:6e:ef:0f:07:f2:74:
        ee:bb:05:a5:9f:cc:e8:b8:d4:ae:de:a2:f5:99:a3:fb:00:5d:
        bd:98:ec:3c:b0:e0:eb:c4:4b:bd:da:85:7e:34:7b:6f:77:fc:
        46:35:17:88:da:71:fb:8a:37:cd:03:bd:d4:3b:bc:cf:42:a6:
        43:ef:63:c6:19:72:5b:a7:13:da:da:2f:5f:a8:a9:9a:02:6f:
        80:ba:4f:ab:b0:08:17:e0:3f:e0:6b:f1:e2:f8:72:46:ba:a3:
        c7:6b:ef:2e:f3:a1:16:b2:0b:8e:eb:3a:4f:a1:c5:4e:7f:84:
        a4:c1:17:ee:6b:21:33:69:62:6c:b2:c9:81:59:4b:66:2f:33:
        43:c9:3e:59:28:f3:09:55:2d:a7:1c:f4:83:b9:de:6d:99:1d:
        1c:d3:6f:ed:89:c4:3b:bf:1e:2d:5f:f8:62:dc:9a:34:1b:28:
        91:a5:d9:b2:a4:e6:eb:58:5b:b0:cc:34:91:a3:a3:ae:3b:5b:
        3e:c9:50:34:79:b8:cd:47:91:93:48:ce:c2:f4:ee:7b:ad:02:
        38:3f:35:2e:b1:12:39:97:53:d8:fc:d9:fe:2a:b9:59:69:ff:
        be:21:75:13:ea:20:c0:1e:d4:2b:75:7f:0f:0a:11:e3:1b:6c:
        6a:93:41:8f:38:47:4e:9c:3b:0f:5d:75:cb:59:de:4b:37:aa:
        cc:2c:4d:12:85:4b:43:f6:10:6a:28:39:07:e8:8d:d6:ce:79:
        3b:87:97:46:05:46:ec:fd:34:09:81:8c:1e:b4:c9:a1:7a:1e:
        aa:24:ab:66:c5:15:51:20:cd:4d:74:51:b1:3e:38:4d:a8:9d:
        98:4b:b1:f1:b2:02:52:3d:c4:7d:fe:4b:44:90:ef:ce:5b:32:
        66:10:97:dd:2d:6d:ec:8e:51:a9:bf:8a:30:80:d7:cf:fe:76:
        6b:72:d2:2a:81:e1:49:74:d9:37:6d:4b:ee:ca:89:1e:7f:0d:
        36:84:32:63:1b:97:26:3f:98:c2:b8:4b:01:60:6b:cb:19:ce:
        ca:00:bc:2b:5a:6a:16:eb:b9:09:a4:06:ab:78:6c:19:48:4c:
        ca:71:20:37:2d:35:34:c6:e9:cd:70:f0:ab:d2:cf:87:19:a7:
        f1:5c:1d:c9:bd:9a:ca:92:e8:4a:1d:57:ad:42:64:91:53:4b:
        f6:41:ec:8a:1c:59:22:2e:49:93:01:c4:ff:32:b2:df:a4:b5:
        fe:07:64:33:21:24:48:e9
-----BEGIN CERTIFICATE-----
MIIEXjCCAkagAwIBAgIBVDANBgkqhkiG9w0BAQsFADBGMQswCQYDVQQGEwJDQTEN
MAsGA1UECgwEU0VMRjENMAsGA1UECwwEU0VMRjEZMBcGA1UEAwwQU0VMRiBJREVO
VElUWSBDQTAgFw0yNDA5MDkxMzQ2NDlaGA8yMTI0MDgxNjEzNDY0OVowLzELMAkG
A1UEBhMCQ0ExETAPBgNVBAoMCG1iZWQgVExTMQ0wCwYDVQQDDARDZXJ0MIIBIjAN
BgkqhkiG9w0BAQEFAAOCAQ8AMIIBCgKCAQEA1VSS/gKy3zIhWyzyMfIdK3AE11Cl
hkjt7lZyDl0XiaXYe/WlU5yERmzTndULj8xjm2cnPhlGNCxDvZcA/UirWFofTXyH
Dt/qY/lT7s6SSCYs/meSZC7p0feft+dAh8s2y+V5KBkTYJy5l7OuyfsEGk0Wf/jc
Q+9b7Yfk3aIzEO/p2jDVx/TGHNMZebr7sWc7PWAFM3JKqWuUjq2L6S1ni6G2ZBfP
/ulhclCQdDiWk7Iu2LWgprNvwv4mrv5AO6oKRD0o9LQAZbiLU8OhgUz4aa8ZCjev
MkRq1F7+zdGmM33QHypO1cO0mQllFLidT7Vskh8n1WlBHlcj3GGi6/hplwIDAQAB
o2wwajAdBgNVHQ4EFgQU+WqkrgvCgkXdOC+c27HTy0Y2gRgwHwYDVR0jBBgwFoAU
l271sTig+lUoDdXM4sNB+W/3LlcwCQYDVR0TBAIwADALBgNVHQ8EBAMCBaAwEAYJ
YIZIAYb4QgEBBAMDAQAwDQYJKoZIhvcNAQELBQADggIBAJuJwDy6b0Hfs/DdZtVo
tqfGDwdz/0fAZ9lyMowxVIUseo9qVmfs8JBrchjXm+wj/W7vDwfydO67BaWfzOi4
1K7eovWZo/sAXb2Y7Dyw4OvES73ahX40e293/EY1F4jacfuKN80DvdQ7vM9CpkPv
Y8YZclunE9raL1+oqZoCb4C6T6uwCBfgP+Br8eL4cka6o8dr7y7zoRayC47rOk+h
xU5/hKTBF+5rITNpYmyyyYFZS2YvM0PJPlko8wlVLacc9IO53m2ZHRzTb+2JxDu/
Hi1f+GLcmjQbKJGl2bKk5utYW7DMNJGjo647Wz7JUDR5uM1HkZNIzsL07nutAjg/
NS6xEjmXU9j82f4quVlp/74hdRPqIMAe1Ct1fw8KEeMbbGqTQY84R06cOw9ddctZ
3ks3qswsTRKFS0P2EGooOQfojdbOeTuHl0YFRuz9NAmBjB60yaF6Hqokq2bFFVEg
zU10UbE+OE2onZhLsfGyAlI9xH3+S0SQ785bMmYQl90tbeyOUam/ijCA18/+dmty
0iqB4Ul02TdtS+7KiR5/DTaEMmMblyY/mMK4SwFga8sZzsoAvCtaahbruQmkBqt4
bBlITMpxIDctNTTG6c1w8KvSz4cZp/FcHcm9msqS6EodV61CZJFTS/ZB7IocWSIu
SZMBxP8yst+ktf4HZDMhJEjp
-----END CERTIFICATE-----
