Certificate:
    Data:
        Version: 3 (0x2)
        Serial Number: 85 (0x55)
        Signature Algorithm: sha256WithRSAEncryption
        Issuer: C=CA, O=SELF, OU=SELF, CN=SELF IDENTITY CA
        Validity
            Not Before: Sep  9 13:49:04 2024 GMT
            Not After : Aug 16 13:49:04 2124 GMT
        Subject: C=CA, O=mbed TLS, CN=Cert
        Subject Public Key Info:
            Public Key Algorithm: rsaEncryption
                Public-Key: (2048 bit)
                Modulus:
                    00:d5:54:92:fe:02:b2:df:32:21:5b:2c:f2:31:f2:
                    1d:2b:70:04:d7:50:a5:86:48:ed:ee:56:72:0e:5d:
                    17:89:a5:d8:7b:f5:a5:53:9c:84:46:6c:d3:9d:d5:
                    0b:8f:cc:63:9b:67:27:3e:19:46:34:2c:43:bd:97:
                    00:fd:48:ab:58:5a:1f:4d:7c:87:0e:df:ea:63:f9:
                    53:ee:ce:92:48:26:2c:fe:67:92:64:2e:e9:d1:f7:
                    9f:b7:e7:40:87:cb:36:cb:e5:79:28:19:13:60:9c:
                    b9:97:b3:ae:c9:fb:04:1a:4d:16:7f:f8:dc:43:ef:
                    5b:ed:87:e4:dd:a2:33:10:ef:e9:da:30:d5:c7:f4:
                    c6:1c:d3:19:79:ba:fb:b1:67:3b:3d:60:05:33:72:
                    4a:a9:6b:94:8e:ad:8b:e9:2d:67:8b:a1:b6:64:17:
                    cf:fe:e9:61:72:50:90:74:38:96:93:b2:2e:d8:b5:
                    a0:a6:b3:6f:c2:fe:26:ae:fe:40:3b:aa:0a:44:3d:
                    28:f4:b4:00:65:b8:8b:53:c3:a1:81:4c:f8:69:af:
                    19:0a:37:af:32:44:6a:d4:5e:fe:cd:d1:a6:33:7d:
                    d0:1f:2a:4e:d5:c3:b4:99:09:65:14:b8:9d:4f:b5:
                    6c:92:1f:27:d5:69:41:1e:57:23:dc:61:a2:eb:f8:
                    69:97
                Exponent: 65537 (0x10001)
        X509v3 extensions:
            X509v3 Subject Key Identifier: 
                F9:6A:A4:AE:0B:C2:82:45:DD:38:2F:9C:DB:B1:D3:CB:46:36:81:18
            X509v3 Authority Key Identifier: 
                97:6E:F5:B1:38:A0:FA:55:28:0D:D5:CC:E2:C3:41:F9:6F:F7:2E:57
            X509v3 Basic Constraints: 
                CA:FALSE
            X509v3 Key Usage: 
                Digital Signature, Key Encipherment
            Netscape Cert Type: 
                ...
    Signature Algorithm: sha256WithRSAEncryption
    Signature Value:
        02:4e:73:7d:b1:19:5d:9a:2e:ba:2e:d2:ab:7c:48:b1:03:f8:
        bd:e4:23:3a:aa:db:f6:48:42:89:8b:bb:80:de:16:d5:e5:fe:
        a0:6e:ec:4a:ea:f2:9e:3e:6c:7d:2b:95:a5:36:40:82:3f:71:
        e2:96:a0:22:db:ac:2f:ed:6f:42:8b:79:d1:4a:91:ea:66:d9:
        d6:d1:27:fd:a2:20:05:e3:e4:ca:70:2b:a3:bb:ed:c0:18:ec:
        8a:c9:0c:68:3d:a8:83:1b:31:10:f9:fe:fc:b2:6d:da:3e:77:
        97:24:f6:48:05:7d:59:00:f2:4a:ac:1f:0f:c1:9b:a2:2b:42:
        85:ce:5c:37:6d:23:6c:df:7c:88:1a:5b:12:e5:74:4e:62:21:
        6a:ec:4d:f2:c3:8e:60:b6:82:79:c9:53:78:9f:70:13:74:9d:
        a5:6c:54:c5:e5:07:11:ae:d6:bc:d8:f6:d7:a9:1b:c0:69:a7:
        70:d6:20:fe:05:33:5d:71:28:7e:e4:00:94:bb:9e:9f:04:2d:
        f6:fa:60:da:8e:de:a6:43:8a:d8:15:02:b4:47:92:20:07:04:
        47:2a:a7:5e:60:ce:89:f5:7e:d7:61:6c:7b:a0:fa:f5:23:c8:
        3e:dc:2c:57:af:fa:1a:0a:86:fa:7a:07:d6:57:08:1d:b7:12:
        8e:de:a7:d6:b1:d4:d9:ba:02:f6:15:70:1f:f5:16:3e:6d:d0:
        fc:58:74:39:00:38:8e:b7:41:23:07:73:95:18:e4:e4:80:8d:
        95:25:2f:ae:ae:ca:dc:22:0c:46:28:75:0b:b4:17:d3:5c:a8:
        29:9f:19:09:1c:fa:c5:30:c5:f5:d0:09:0a:1c:90:d4:c0:78:
        4e:6c:34:51:08:c1:03:72:cf:db:36:80:19:3c:a6:2f:a9:42:
        8e:5c:16:e0:3a:54:9c:1c:24:4d:75:e7:15:ed:76:31:1f:22:
        9d:76:0c:7c:69:f5:4c:34:30:a4:36:60:fb:e3:f0:d3:15:25:
        4f:54:e9:a7:ce:b0:6e:2b:04:ee:80:e3:59:99:30:08:0a:a6:
        ff:58:7f:4b:16:0e:f5:db:83:7f:ca:f7:d6:98:6b:0c:73:2b:
        80:d2:45:dd:7a:0f:f3:42:53:15:b3:4d:53:cb:a4:94:21:8d:
        2a:9b:09:4d:3e:42:b1:72:5a:66:ad:8d:bc:03:4a:ba:de:9f:
        1b:9c:53:87:6d:21:76:72:bc:c7:59:87:c8:a2:eb:b7:5e:74:
        c9:d6:0d:f7:c7:ba:12:59:d1:87:da:62:d7:c6:c3:7c:56:ff:
        cc:e5:bb:56:7f:c5:18:c7:e2:6f:44:e4:f0:3e:56:fa:4c:57:
        c2:34:9d:31:88:32:ae:78
-----BEGIN CERTIFICATE-----
MIIEXjCCAkagAwIBAgIBVTANBgkqhkiG9w0BAQsFADBGMQswCQYDVQQGEwJDQTEN
MAsGA1UECgwEU0VMRjENMAsGA1UECwwEU0VMRjEZMBcGA1UEAwwQU0VMRiBJREVO
VElUWSBDQTAgFw0yNDA5MDkxMzQ5MDRaGA8yMTI0MDgxNjEzNDkwNFowLzELMAkG
A1UEBhMCQ0ExETAPBgNVBAoMCG1iZWQgVExTMQ0wCwYDVQQDDARDZXJ0MIIBIjAN
BgkqhkiG9w0BAQEFAAOCAQ8AMIIBCgKCAQEA1VSS/gKy3zIhWyzyMfIdK3AE11Cl
hkjt7lZyDl0XiaXYe/WlU5yERmzTndULj8xjm2cnPhlGNCxDvZcA/UirWFofTXyH
Dt/qY/lT7s6SSCYs/meSZC7p0feft+dAh8s2y+V5KBkTYJy5l7OuyfsEGk0Wf/jc
Q+9b7Yfk3aIzEO/p2jDVx/TGHNMZebr7sWc7PWAFM3JKqWuUjq2L6S1ni6G2ZBfP
/ulhclCQdDiWk7Iu2LWgprNvwv4mrv5AO6oKRD0o9LQAZbiLU8OhgUz4aa8ZCjev
MkRq1F7+zdGmM33QHypO1cO0mQllFLidT7Vskh8n1WlBHlcj3GGi6/hplwIDAQAB
o2wwajAdBgNVHQ4EFgQU+WqkrgvCgkXdOC+c27HTy0Y2gRgwHwYDVR0jBBgwFoAU
l271sTig+lUoDdXM4sNB+W/3LlcwCQYDVR0TBAIwADALBgNVHQ8EBAMCBaAwEAYJ
YIZIAYb4QgEBBAMDAQAwDQYJKoZIhvcNAQELBQADggIBAAJOc32xGV2aLrou0qt8
SLED+L3kIzqq2/ZIQomLu4DeFtXl/qBu7Erq8p4+bH0rlaU2QII/ceKWoCLbrC/t
b0KLedFKkepm2dbRJ/2iIAXj5MpwK6O77cAY7IrJDGg9qIMbMRD5/vyybdo+d5ck
9kgFfVkA8kqsHw/Bm6IrQoXOXDdtI2zffIgaWxLldE5iIWrsTfLDjmC2gnnJU3if
cBN0naVsVMXlBxGu1rzY9tepG8Bpp3DWIP4FM11xKH7kAJS7np8ELfb6YNqO3qZD
itgVArRHkiAHBEcqp15gzon1ftdhbHug+vUjyD7cLFev+hoKhvp6B9ZXCB23Eo7e
p9ax1Nm6AvYVcB/1Fj5t0PxYdDkAOI63QSMHc5UY5OSAjZUlL66uytwiDEYodQu0
F9NcqCmfGQkc+sUwxfXQCQockNTAeE5sNFEIwQNyz9s2gBk8pi+pQo5cFuA6VJwc
JE115xXtdjEfIp12DHxp9Uw0MKQ2YPvj8NMVJU9U6afOsG4rBO6A41mZMAgKpv9Y
f0sWDvXbg3/K99aYawxzK4DSRd16D/NCUxWzTVPLpJQhjSqbCU0+QrFyWmatjbwD
SrrenxucU4dtIXZyvMdZh8ii67dedMnWDffHuhJZ0YfaYtfGw3xW/8zlu1Z/xRjH
4m9E5PA+VvpMV8I0nTGIMq54
-----END CERTIFICATE-----
