Certificate:
    Data:
        Version: 3 (0x2)
        Serial Number: 86 (0x56)
        Signature Algorithm: sha256WithRSAEncryption
        Issuer: C=CA, O=SELF, OU=SELF, CN=SELF IDENTITY CA
        Validity
            Not Before: Sep  9 14:02:17 2024 GMT
            Not After : Aug 16 14:02:17 2124 GMT
        Subject: C=CA, O=mbed TLS, CN=Cert
        Subject Public Key Info:
            Public Key Algorithm: rsaEncryption
                Public-Key: (2048 bit)
                Modulus:
                    00:d5:54:92:fe:02:b2:df:32:21:5b:2c:f2:31:f2:
                    1d:2b:70:04:d7:50:a5:86:48:ed:ee:56:72:0e:5d:
                    17:89:a5:d8:7b:f5:a5:53:9c:84:46:6c:d3:9d:d5:
                    0b:8f:cc:63:9b:67:27:3e:19:46:34:2c:43:bd:97:
                    00:fd:48:ab:58:5a:1f:4d:7c:87:0e:df:ea:63:f9:
                    53:ee:ce:92:48:26:2c:fe:67:92:64:2e:e9:d1:f7:
                    9f:b7:e7:40:87:cb:36:cb:e5:79:28:19:13:60:9c:
                    b9:97:b3:ae:c9:fb:04:1a:4d:16:7f:f8:dc:43:ef:
                    5b:ed:87:e4:dd:a2:33:10:ef:e9:da:30:d5:c7:f4:
                    c6:1c:d3:19:79:ba:fb:b1:67:3b:3d:60:05:33:72:
                    4a:a9:6b:94:8e:ad:8b:e9:2d:67:8b:a1:b6:64:17:
                    cf:fe:e9:61:72:50:90:74:38:96:93:b2:2e:d8:b5:
                    a0:a6:b3:6f:c2:fe:26:ae:fe:40:3b:aa:0a:44:3d:
                    28:f4:b4:00:65:b8:8b:53:c3:a1:81:4c:f8:69:af:
                    19:0a:37:af:32:44:6a:d4:5e:fe:cd:d1:a6:33:7d:
                    d0:1f:2a:4e:d5:c3:b4:99:09:65:14:b8:9d:4f:b5:
                    6c:92:1f:27:d5:69:41:1e:57:23:dc:61:a2:eb:f8:
                    69:97
                Exponent: 65537 (0x10001)
        X509v3 extensions:
            X509v3 Subject Key Identifier: 
                F9:6A:A4:AE:0B:C2:82:45:DD:38:2F:9C:DB:B1:D3:CB:46:36:81:18
            X509v3 Authority Key Identifier: 
                97:6E:F5:B1:38:A0:FA:55:28:0D:D5:CC:E2:C3:41:F9:6F:F7:2E:57
            X509v3 Basic Constraints: 
                CA:FALSE
            X509v3 Key Usage: 
                Digital Signature, Key Encipherment
            Netscape Cert Type: 
                ...
    Signature Algorithm: sha256WithRSAEncryption
    Signature Value:
        9b:b0:00:60:cf:81:6b:7b:7c:b5:20:c0:00:ab:ac:d3:33:6f:
        c9:90:5a:26:e7:39:fc:bc:72:32:83:07:fe:58:fb:27:e1:3d:
        e8:7b:99:6b:5a:1d:cf:ac:1e:1a:39:bc:0a:51:a9:39:bf:30:
        9a:9b:69:97:1f:e7:f2:51:1f:8f:ed:3f:02:30:2d:02:d8:49:
        6f:fd:cf:dc:a8:84:8b:a0:ce:b1:86:94:0e:b6:d3:9b:08:96:
        0a:1e:28:97:7b:db:b2:cb:cf:a9:2d:a7:1c:1b:17:37:eb:36:
        4f:de:14:86:2c:67:8f:39:21:14:9f:b6:5d:48:d5:e5:70:0d:
        ae:78:31:25:80:87:63:b6:f1:27:60:03:97:fd:e2:dd:f8:65:
        c9:ba:29:ea:29:0b:84:2c:5c:0a:64:05:4a:0d:88:bc:7f:0d:
        dc:7b:7a:00:be:cf:8d:76:60:cf:9d:8e:b7:5d:11:d2:eb:12:
        7b:7b:50:19:cb:69:ed:82:c0:32:bd:2c:1e:75:7c:ee:d8:1d:
        26:cb:4d:15:68:b8:21:94:17:03:e0:e9:0e:29:b3:ef:bd:76:
        ac:97:70:05:86:6f:38:e5:6c:97:56:66:e2:e2:bc:4e:01:35:
        71:f9:29:3b:50:9c:73:dd:85:c9:79:5c:82:65:7b:f5:5c:6a:
        2b:9f:7e:52:5f:0e:26:83:65:85:e8:49:7e:bc:1f:53:fb:c6:
        23:2e:18:a0:1f:d6:55:b9:9c:b9:03:08:1b:d6:be:40:00:e5:
        85:a3:43:22:ad:bc:85:6e:e9:fc:6f:0e:c0:67:32:2d:f1:4e:
        eb:f8:67:33:24:b6:cc:7a:b6:63:d4:78:e7:84:e6:2e:1c:6c:
        77:30:ee:e8:87:6b:9b:6c:8f:cf:e3:49:23:1c:5d:ea:67:f2:
        12:1c:dd:4d:1a:b8:ef:9d:eb:c1:30:ae:4d:b5:6f:fc:6e:e1:
        af:01:8c:dc:20:b6:a9:0d:5d:73:5d:06:e4:27:09:17:b5:d2:
        54:5a:22:50:4b:9b:02:4e:b7:05:a7:04:0d:88:96:78:08:d1:
        29:ac:eb:0f:e1:b3:a7:df:b9:06:db:0d:7b:b9:7a:74:2d:33:
        ef:c1:e8:41:35:88:34:c0:a7:57:76:4b:eb:26:9c:d3:7c:6b:
        ba:7b:7a:2a:51:19:49:f8:d7:26:7c:c6:9f:2e:5f:51:04:ac:
        08:51:c9:3f:c0:46:c4:d9:da:eb:be:e8:56:c2:95:6c:ad:88:
        c5:d0:08:e0:0f:b5:bb:e0:09:54:87:a8:88:2d:ed:e4:b0:6a:
        f8:49:10:b2:e5:c1:89:a5:65:8e:a4:24:47:ca:d5:c5:55:b9:
        dd:dd:8a:e2:3f:60:2a:10
-----BEGIN CERTIFICATE-----
MIIEXjCCAkagAwIBAgIBVjANBgkqhkiG9w0BAQsFADBGMQswCQYDVQQGEwJDQTEN
MAsGA1UECgwEU0VMRjENMAsGA1UECwwEU0VMRjEZMBcGA1UEAwwQU0VMRiBJREVO
VElUWSBDQTAgFw0yNDA5MDkxNDAyMTdaGA8yMTI0MDgxNjE0MDIxN1owLzELMAkG
A1UEBhMCQ0ExETAPBgNVBAoMCG1iZWQgVExTMQ0wCwYDVQQDDARDZXJ0MIIBIjAN
BgkqhkiG9w0BAQEFAAOCAQ8AMIIBCgKCAQEA1VSS/gKy3zIhWyzyMfIdK3AE11Cl
hkjt7lZyDl0XiaXYe/WlU5yERmzTndULj8xjm2cnPhlGNCxDvZcA/UirWFofTXyH
Dt/qY/lT7s6SSCYs/meSZC7p0feft+dAh8s2y+V5KBkTYJy5l7OuyfsEGk0Wf/jc
Q+9b7Yfk3aIzEO/p2jDVx/TGHNMZebr7sWc7PWAFM3JKqWuUjq2L6S1ni6G2ZBfP
/ulhclCQdDiWk7Iu2LWgprNvwv4mrv5AO6oKRD0o9LQAZbiLU8OhgUz4aa8ZCjev
MkRq1F7+zdGmM33QHypO1cO0mQllFLidT7Vskh8n1WlBHlcj3GGi6/hplwIDAQAB
o2wwajAdBgNVHQ4EFgQU+WqkrgvCgkXdOC+c27HTy0Y2gRgwHwYDVR0jBBgwFoAU
l271sTig+lUoDdXM4sNB+W/3LlcwCQYDVR0TBAIwADALBgNVHQ8EBAMCBaAwEAYJ
YIZIAYb4QgEBBAMDAQAwDQYJKoZIhvcNAQELBQADggIBAJuwAGDPgWt7fLUgwACr
rNMzb8mQWibnOfy8cjKDB/5Y+yfhPeh7mWtaHc+sHho5vApRqTm/MJqbaZcf5/JR
H4/tPwIwLQLYSW/9z9yohIugzrGGlA6205sIlgoeKJd727LLz6ktpxwbFzfrNk/e
FIYsZ485IRSftl1I1eVwDa54MSWAh2O28SdgA5f94t34Zcm6KeopC4QsXApkBUoN
iLx/Ddx7egC+z412YM+djrddEdLrEnt7UBnLae2CwDK9LB51fO7YHSbLTRVouCGU
FwPg6Q4ps++9dqyXcAWGbzjlbJdWZuLivE4BNXH5KTtQnHPdhcl5XIJle/Vcaiuf
flJfDiaDZYXoSX68H1P7xiMuGKAf1lW5nLkDCBvWvkAA5YWjQyKtvIVu6fxvDsBn
Mi3xTuv4ZzMktsx6tmPUeOeE5i4cbHcw7uiHa5tsj8/jSSMcXepn8hIc3U0auO+d
68Ewrk21b/xu4a8BjNwgtqkNXXNdBuQnCRe10lRaIlBLmwJOtwWnBA2IlngI0Sms
6w/hs6ffuQbbDXu5enQtM+/B6EE1iDTAp1d2S+smnNN8a7p7eipRGUn41yZ8xp8u
X1EErAhRyT/ARsTZ2uu+6FbClWytiMXQCOAPtbvgCVSHqIgt7eSwavhJELLlwYml
ZY6kJEfK1cVVud3diuI/YCoQ
-----END CERTIFICATE-----
