Certificate:
    Data:
        Version: 3 (0x2)
        Serial Number: 87 (0x57)
        Signature Algorithm: sha256WithRSAEncryption
        Issuer: C=CA, O=SELF, OU=SELF, CN=SELF IDENTITY CA
        Validity
            Not Before: Sep  9 14:10:53 2024 GMT
            Not After : Aug 16 14:10:53 2124 GMT
        Subject: C=CA, O=mbed TLS, CN=Cert
        Subject Public Key Info:
            Public Key Algorithm: rsaEncryption
                Public-Key: (2048 bit)
                Modulus:
                    00:d5:54:92:fe:02:b2:df:32:21:5b:2c:f2:31:f2:
                    1d:2b:70:04:d7:50:a5:86:48:ed:ee:56:72:0e:5d:
                    17:89:a5:d8:7b:f5:a5:53:9c:84:46:6c:d3:9d:d5:
                    0b:8f:cc:63:9b:67:27:3e:19:46:34:2c:43:bd:97:
                    00:fd:48:ab:58:5a:1f:4d:7c:87:0e:df:ea:63:f9:
                    53:ee:ce:92:48:26:2c:fe:67:92:64:2e:e9:d1:f7:
                    9f:b7:e7:40:87:cb:36:cb:e5:79:28:19:13:60:9c:
                    b9:97:b3:ae:c9:fb:04:1a:4d:16:7f:f8:dc:43:ef:
                    5b:ed:87:e4:dd:a2:33:10:ef:e9:da:30:d5:c7:f4:
                    c6:1c:d3:19:79:ba:fb:b1:67:3b:3d:60:05:33:72:
                    4a:a9:6b:94:8e:ad:8b:e9:2d:67:8b:a1:b6:64:17:
                    cf:fe:e9:61:72:50:90:74:38:96:93:b2:2e:d8:b5:
                    a0:a6:b3:6f:c2:fe:26:ae:fe:40:3b:aa:0a:44:3d:
                    28:f4:b4:00:65:b8:8b:53:c3:a1:81:4c:f8:69:af:
                    19:0a:37:af:32:44:6a:d4:5e:fe:cd:d1:a6:33:7d:
                    d0:1f:2a:4e:d5:c3:b4:99:09:65:14:b8:9d:4f:b5:
                    6c:92:1f:27:d5:69:41:1e:57:23:dc:61:a2:eb:f8:
                    69:97
                Exponent: 65537 (0x10001)
        X509v3 extensions:
            X509v3 Subject Key Identifier: 
                F9:6A:A4:AE:0B:C2:82:45:DD:38:2F:9C:DB:B1:D3:CB:46:36:81:18
            X509v3 Authority Key Identifier: 
                97:6E:F5:B1:38:A0:FA:55:28:0D:D5:CC:E2:C3:41:F9:6F:F7:2E:57
            X509v3 Basic Constraints: 
                CA:FALSE
            X509v3 Key Usage: 
                Digital Signature, Key Encipherment
            Netscape Cert Type: 
                ...
    Signature Algorithm: sha256WithRSAEncryption
    Signature Value:
        30:d9:c7:0c:65:de:ba:10:89:1c:97:6b:d1:16:a2:0d:61:5d:
        a6:0c:f8:e9:3f:44:43:e5:cd:23:f8:8d:59:51:f6:39:c7:5c:
        ad:71:df:04:3c:bb:1a:75:a0:5a:e2:1b:da:69:aa:bc:b7:95:
        a3:c4:a2:15:eb:f1:74:a5:ae:6c:49:63:10:ff:f7:74:48:88:
        7f:53:ed:55:59:02:24:77:90:80:ce:d7:43:da:f9:05:95:2e:
        dd:96:63:39:96:b8:81:b3:46:35:63:b6:5b:c9:52:bb:1d:59:
        1c:e7:24:41:fc:6d:25:c7:61:ed:bd:96:f1:b2:b4:21:77:d6:
        6c:e9:97:11:9e:04:a0:3e:53:d5:69:8a:4b:2b:6d:d2:91:be:
        97:d3:03:0c:6b:9a:a3:49:90:2d:00:5e:d1:72:8a:06:4f:e9:
        23:cb:99:67:49:22:b2:de:e9:43:9e:56:f9:5b:61:92:f2:28:
        a2:58:4d:b8:30:95:b6:62:a6:63:d6:04:2e:12:a0:cd:ba:54:
        d3:17:d2:0c:77:1f:8c:e8:65:31:2e:55:68:a0:a0:e9:6f:20:
        29:d1:9c:8d:a2:b3:bc:a9:71:60:57:34:c1:61:eb:76:ff:8f:
        3f:1b:1f:41:7b:36:af:f0:7d:5d:01:64:ba:24:76:39:71:b0:
        0c:ee:b0:a4:f4:f1:8f:07:42:4a:25:78:22:e4:de:bf:80:4d:
        e4:76:56:3e:4f:d7:65:d7:26:52:4d:db:27:3d:c5:b0:88:6c:
        15:5f:74:68:87:a4:fd:48:71:c8:90:75:a7:d8:33:b0:2a:e0:
        32:da:44:88:0a:29:6c:88:19:b7:b2:54:64:c0:d5:4d:07:f7:
        91:80:d0:43:cf:74:24:4a:2e:0c:cd:08:e6:c8:21:70:b2:81:
        12:ed:c1:5e:75:a8:9f:1c:66:12:18:ea:19:69:03:dc:61:00:
        87:35:b3:e2:ee:b1:a9:96:8d:57:91:65:a3:7c:0b:af:ef:12:
        51:38:dc:a3:08:37:52:9d:03:f4:3a:7b:18:63:99:4c:04:0c:
        cf:0e:67:a0:c4:3e:fa:11:1a:e1:32:2b:db:b6:13:a2:25:42:
        28:75:ef:6b:94:23:0e:33:56:4b:36:ae:ed:ae:dc:4c:8e:46:
        74:67:15:41:08:20:cf:59:92:51:ed:df:85:aa:7e:9b:5c:3b:
        64:dc:43:e1:23:81:5f:44:73:f1:5d:b1:10:b8:8e:ae:56:b3:
        95:f1:45:cc:a2:27:b0:2a:91:66:b9:f4:2a:98:d4:01:a3:e2:
        3e:b8:78:ff:09:e7:30:9b:6a:9f:53:bc:72:66:39:35:1f:7c:
        ee:44:8f:e0:bc:f4:8e:ac
-----BEGIN CERTIFICATE-----
MIIEXjCCAkagAwIBAgIBVzANBgkqhkiG9w0BAQsFADBGMQswCQYDVQQGEwJDQTEN
MAsGA1UECgwEU0VMRjENMAsGA1UECwwEU0VMRjEZMBcGA1UEAwwQU0VMRiBJREVO
VElUWSBDQTAgFw0yNDA5MDkxNDEwNTNaGA8yMTI0MDgxNjE0MTA1M1owLzELMAkG
A1UEBhMCQ0ExETAPBgNVBAoMCG1iZWQgVExTMQ0wCwYDVQQDDARDZXJ0MIIBIjAN
BgkqhkiG9w0BAQEFAAOCAQ8AMIIBCgKCAQEA1VSS/gKy3zIhWyzyMfIdK3AE11Cl
hkjt7lZyDl0XiaXYe/WlU5yERmzTndULj8xjm2cnPhlGNCxDvZcA/UirWFofTXyH
Dt/qY/lT7s6SSCYs/meSZC7p0feft+dAh8s2y+V5KBkTYJy5l7OuyfsEGk0Wf/jc
Q+9b7Yfk3aIzEO/p2jDVx/TGHNMZebr7sWc7PWAFM3JKqWuUjq2L6S1ni6G2ZBfP
/ulhclCQdDiWk7Iu2LWgprNvwv4mrv5AO6oKRD0o9LQAZbiLU8OhgUz4aa8ZCjev
MkRq1F7+zdGmM33QHypO1cO0mQllFLidT7Vskh8n1WlBHlcj3GGi6/hplwIDAQAB
o2wwajAdBgNVHQ4EFgQU+WqkrgvCgkXdOC+c27HTy0Y2gRgwHwYDVR0jBBgwFoAU
l271sTig+lUoDdXM4sNB+W/3LlcwCQYDVR0TBAIwADALBgNVHQ8EBAMCBaAwEAYJ
YIZIAYb4QgEBBAMDAQAwDQYJKoZIhvcNAQELBQADggIBADDZxwxl3roQiRyXa9EW
og1hXaYM+Ok/REPlzSP4jVlR9jnHXK1x3wQ8uxp1oFriG9ppqry3laPEohXr8XSl
rmxJYxD/93RIiH9T7VVZAiR3kIDO10Pa+QWVLt2WYzmWuIGzRjVjtlvJUrsdWRzn
JEH8bSXHYe29lvGytCF31mzplxGeBKA+U9VpiksrbdKRvpfTAwxrmqNJkC0AXtFy
igZP6SPLmWdJIrLe6UOeVvlbYZLyKKJYTbgwlbZipmPWBC4SoM26VNMX0gx3H4zo
ZTEuVWigoOlvICnRnI2is7ypcWBXNMFh63b/jz8bH0F7Nq/wfV0BZLokdjlxsAzu
sKT08Y8HQkoleCLk3r+ATeR2Vj5P12XXJlJN2yc9xbCIbBVfdGiHpP1IcciQdafY
M7Aq4DLaRIgKKWyIGbeyVGTA1U0H95GA0EPPdCRKLgzNCObIIXCygRLtwV51qJ8c
ZhIY6hlpA9xhAIc1s+LusamWjVeRZaN8C6/vElE43KMIN1KdA/Q6exhjmUwEDM8O
Z6DEPvoRGuEyK9u2E6IlQih172uUIw4zVks2ru2u3EyORnRnFUEIIM9ZklHt34Wq
fptcO2TcQ+EjgV9Ec/FdsRC4jq5Ws5XxRcyiJ7AqkWa59CqY1AGj4j64eP8J5zCb
ap9TvHJmOTUffO5Ej+C89I6s
-----END CERTIFICATE-----
