Certificate:
    Data:
        Version: 3 (0x2)
        Serial Number: 88 (0x58)
        Signature Algorithm: sha256WithRSAEncryption
        Issuer: C=CA, O=SELF, OU=SELF, CN=SELF IDENTITY CA
        Validity
            Not Before: Sep  9 14:11:34 2024 GMT
            Not After : Aug 16 14:11:34 2124 GMT
        Subject: C=CA, O=mbed TLS, CN=Cert
        Subject Public Key Info:
            Public Key Algorithm: rsaEncryption
                Public-Key: (2048 bit)
                Modulus:
                    00:d5:54:92:fe:02:b2:df:32:21:5b:2c:f2:31:f2:
                    1d:2b:70:04:d7:50:a5:86:48:ed:ee:56:72:0e:5d:
                    17:89:a5:d8:7b:f5:a5:53:9c:84:46:6c:d3:9d:d5:
                    0b:8f:cc:63:9b:67:27:3e:19:46:34:2c:43:bd:97:
                    00:fd:48:ab:58:5a:1f:4d:7c:87:0e:df:ea:63:f9:
                    53:ee:ce:92:48:26:2c:fe:67:92:64:2e:e9:d1:f7:
                    9f:b7:e7:40:87:cb:36:cb:e5:79:28:19:13:60:9c:
                    b9:97:b3:ae:c9:fb:04:1a:4d:16:7f:f8:dc:43:ef:
                    5b:ed:87:e4:dd:a2:33:10:ef:e9:da:30:d5:c7:f4:
                    c6:1c:d3:19:79:ba:fb:b1:67:3b:3d:60:05:33:72:
                    4a:a9:6b:94:8e:ad:8b:e9:2d:67:8b:a1:b6:64:17:
                    cf:fe:e9:61:72:50:90:74:38:96:93:b2:2e:d8:b5:
                    a0:a6:b3:6f:c2:fe:26:ae:fe:40:3b:aa:0a:44:3d:
                    28:f4:b4:00:65:b8:8b:53:c3:a1:81:4c:f8:69:af:
                    19:0a:37:af:32:44:6a:d4:5e:fe:cd:d1:a6:33:7d:
                    d0:1f:2a:4e:d5:c3:b4:99:09:65:14:b8:9d:4f:b5:
                    6c:92:1f:27:d5:69:41:1e:57:23:dc:61:a2:eb:f8:
                    69:97
                Exponent: 65537 (0x10001)
        X509v3 extensions:
            X509v3 Subject Key Identifier: 
                F9:6A:A4:AE:0B:C2:82:45:DD:38:2F:9C:DB:B1:D3:CB:46:36:81:18
            X509v3 Authority Key Identifier: 
                97:6E:F5:B1:38:A0:FA:55:28:0D:D5:CC:E2:C3:41:F9:6F:F7:2E:57
            X509v3 Basic Constraints: 
                CA:FALSE
            X509v3 Key Usage: 
                Digital Signature, Key Encipherment
            Netscape Cert Type: 
                ...
    Signature Algorithm: sha256WithRSAEncryption
    Signature Value:
        3d:d9:bf:bb:80:eb:43:f6:d4:30:76:ce:d1:2e:63:58:90:6b:
        92:b5:22:ad:02:34:25:e7:9e:3b:e6:61:68:60:08:8d:f8:23:
        37:51:30:5d:e5:7e:cb:dd:32:de:96:7b:66:a2:44:36:cb:a2:
        23:78:7c:1c:0f:96:4b:e1:d2:b6:40:c7:f0:86:0e:0b:bd:6d:
        d1:60:fd:14:28:d4:40:e4:90:30:8b:0d:3e:5d:7f:7e:a0:2d:
        28:a4:49:3d:fd:8f:40:61:b7:f5:31:3c:fe:26:ba:b8:60:1e:
        ef:81:83:f9:1f:a6:7a:1b:04:9b:51:c2:e0:44:b4:6a:2b:f6:
        66:16:f0:94:e1:f9:3a:12:48:83:dd:d1:c2:92:30:28:8d:c8:
        53:91:33:b2:ae:89:e5:71:1a:03:07:00:d9:80:0f:ab:2b:83:
        42:ed:92:5b:72:1e:a0:c0:8a:be:99:85:26:51:05:b2:7d:65:
        e1:f2:fc:24:c3:4e:1c:4a:08:b7:31:45:7b:df:fc:7b:86:2e:
        6d:a6:87:bc:eb:ee:55:8e:d7:36:f2:4e:38:d3:19:d9:51:55:
        56:d4:21:87:a4:79:1c:6e:eb:d4:55:53:b5:0a:9f:e7:19:79:
        28:bc:ef:88:fc:7b:09:89:7c:dc:11:41:66:89:87:ab:a4:54:
        2e:c1:85:df:71:b7:34:9d:69:2a:65:c0:61:b8:c5:6f:a3:3e:
        90:70:d3:62:5e:76:f4:66:80:c9:b1:fb:09:e9:f9:12:02:a8:
        11:59:1d:58:78:f5:44:15:dc:e7:e8:1c:93:82:70:d1:80:9c:
        e5:72:49:7a:2a:ea:f1:0c:cd:32:e6:94:b1:60:a1:b3:db:d1:
        eb:0f:92:5f:0c:e7:e9:c7:6b:8a:a3:af:09:25:4c:a7:46:f4:
        72:2b:57:82:c3:90:49:b8:df:fe:9d:18:a3:56:73:6e:94:9f:
        c9:92:23:6e:62:d4:9b:70:01:f3:b2:df:3d:a2:fd:9c:be:54:
        c7:ee:af:c7:5e:35:63:6d:63:af:18:af:75:06:b4:39:5c:5f:
        1c:66:c5:a3:7a:e5:dc:47:0b:82:9c:28:45:de:0f:bd:be:56:
        07:08:be:b9:de:cd:0d:2f:0e:0a:f9:06:19:de:84:ca:3f:cb:
        0a:40:17:87:7f:9a:f1:df:51:70:54:70:67:5e:88:df:78:9e:
        e3:b4:fd:7a:2a:85:06:67:4b:31:5d:89:2f:31:72:f7:15:ab:
        47:76:f5:91:bd:8f:8b:bf:ea:c4:99:de:34:7f:70:0c:6e:eb:
        6b:0f:89:ea:e9:35:79:f8:3c:4a:f7:85:0f:8e:0f:11:d2:3c:
        d8:41:3e:82:5b:3e:63:af
-----BEGIN CERTIFICATE-----
MIIEXjCCAkagAwIBAgIBWDANBgkqhkiG9w0BAQsFADBGMQswCQYDVQQGEwJDQTEN
MAsGA1UECgwEU0VMRjENMAsGA1UECwwEU0VMRjEZMBcGA1UEAwwQU0VMRiBJREVO
VElUWSBDQTAgFw0yNDA5MDkxNDExMzRaGA8yMTI0MDgxNjE0MTEzNFowLzELMAkG
A1UEBhMCQ0ExETAPBgNVBAoMCG1iZWQgVExTMQ0wCwYDVQQDDARDZXJ0MIIBIjAN
BgkqhkiG9w0BAQEFAAOCAQ8AMIIBCgKCAQEA1VSS/gKy3zIhWyzyMfIdK3AE11Cl
hkjt7lZyDl0XiaXYe/WlU5yERmzTndULj8xjm2cnPhlGNCxDvZcA/UirWFofTXyH
Dt/qY/lT7s6SSCYs/meSZC7p0feft+dAh8s2y+V5KBkTYJy5l7OuyfsEGk0Wf/jc
Q+9b7Yfk3aIzEO/p2jDVx/TGHNMZebr7sWc7PWAFM3JKqWuUjq2L6S1ni6G2ZBfP
/ulhclCQdDiWk7Iu2LWgprNvwv4mrv5AO6oKRD0o9LQAZbiLU8OhgUz4aa8ZCjev
MkRq1F7+zdGmM33QHypO1cO0mQllFLidT7Vskh8n1WlBHlcj3GGi6/hplwIDAQAB
o2wwajAdBgNVHQ4EFgQU+WqkrgvCgkXdOC+c27HTy0Y2gRgwHwYDVR0jBBgwFoAU
l271sTig+lUoDdXM4sNB+W/3LlcwCQYDVR0TBAIwADALBgNVHQ8EBAMCBaAwEAYJ
YIZIAYb4QgEBBAMDAQAwDQYJKoZIhvcNAQELBQADggIBAD3Zv7uA60P21DB2ztEu
Y1iQa5K1Iq0CNCXnnjvmYWhgCI34IzdRMF3lfsvdMt6We2aiRDbLoiN4fBwPlkvh
0rZAx/CGDgu9bdFg/RQo1EDkkDCLDT5df36gLSikST39j0Bht/UxPP4murhgHu+B
g/kfpnobBJtRwuBEtGor9mYW8JTh+ToSSIPd0cKSMCiNyFORM7KuieVxGgMHANmA
D6srg0LtkltyHqDAir6ZhSZRBbJ9ZeHy/CTDThxKCLcxRXvf/HuGLm2mh7zr7lWO
1zbyTjjTGdlRVVbUIYekeRxu69RVU7UKn+cZeSi874j8ewmJfNwRQWaJh6ukVC7B
hd9xtzSdaSplwGG4xW+jPpBw02JedvRmgMmx+wnp+RICqBFZHVh49UQV3OfoHJOC
cNGAnOVySXoq6vEMzTLmlLFgobPb0esPkl8M5+nHa4qjrwklTKdG9HIrV4LDkEm4
3/6dGKNWc26Un8mSI25i1JtwAfOy3z2i/Zy+VMfur8deNWNtY68Yr3UGtDlcXxxm
xaN65dxHC4KcKEXeD72+VgcIvrnezQ0vDgr5BhnehMo/ywpAF4d/mvHfUXBUcGde
iN94nuO0/XoqhQZnSzFdiS8xcvcVq0d29ZG9j4u/6sSZ3jR/cAxu62sPierpNXn4
PEr3hQ+ODxHSPNhBPoJbPmOv
-----END CERTIFICATE-----
