Certificate:
    Data:
        Version: 3 (0x2)
        Serial Number: 89 (0x59)
        Signature Algorithm: sha256WithRSAEncryption
        Issuer: C=CA, O=SELF, OU=SELF, CN=SELF IDENTITY CA
        Validity
            Not Before: Sep  9 14:14:36 2024 GMT
            Not After : Aug 16 14:14:36 2124 GMT
        Subject: C=CA, O=mbed TLS, CN=Cert
        Subject Public Key Info:
            Public Key Algorithm: rsaEncryption
                Public-Key: (2048 bit)
                Modulus:
                    00:d5:54:92:fe:02:b2:df:32:21:5b:2c:f2:31:f2:
                    1d:2b:70:04:d7:50:a5:86:48:ed:ee:56:72:0e:5d:
                    17:89:a5:d8:7b:f5:a5:53:9c:84:46:6c:d3:9d:d5:
                    0b:8f:cc:63:9b:67:27:3e:19:46:34:2c:43:bd:97:
                    00:fd:48:ab:58:5a:1f:4d:7c:87:0e:df:ea:63:f9:
                    53:ee:ce:92:48:26:2c:fe:67:92:64:2e:e9:d1:f7:
                    9f:b7:e7:40:87:cb:36:cb:e5:79:28:19:13:60:9c:
                    b9:97:b3:ae:c9:fb:04:1a:4d:16:7f:f8:dc:43:ef:
                    5b:ed:87:e4:dd:a2:33:10:ef:e9:da:30:d5:c7:f4:
                    c6:1c:d3:19:79:ba:fb:b1:67:3b:3d:60:05:33:72:
                    4a:a9:6b:94:8e:ad:8b:e9:2d:67:8b:a1:b6:64:17:
                    cf:fe:e9:61:72:50:90:74:38:96:93:b2:2e:d8:b5:
                    a0:a6:b3:6f:c2:fe:26:ae:fe:40:3b:aa:0a:44:3d:
                    28:f4:b4:00:65:b8:8b:53:c3:a1:81:4c:f8:69:af:
                    19:0a:37:af:32:44:6a:d4:5e:fe:cd:d1:a6:33:7d:
                    d0:1f:2a:4e:d5:c3:b4:99:09:65:14:b8:9d:4f:b5:
                    6c:92:1f:27:d5:69:41:1e:57:23:dc:61:a2:eb:f8:
                    69:97
                Exponent: 65537 (0x10001)
        X509v3 extensions:
            X509v3 Subject Key Identifier: 
                F9:6A:A4:AE:0B:C2:82:45:DD:38:2F:9C:DB:B1:D3:CB:46:36:81:18
            X509v3 Authority Key Identifier: 
                97:6E:F5:B1:38:A0:FA:55:28:0D:D5:CC:E2:C3:41:F9:6F:F7:2E:57
            X509v3 Basic Constraints: 
                CA:FALSE
            X509v3 Key Usage: 
                Digital Signature, Key Encipherment
            Netscape Cert Type: 
                ...
    Signature Algorithm: sha256WithRSAEncryption
    Signature Value:
        3f:89:84:f1:6f:9e:6c:d8:45:80:d9:d0:f0:c1:fc:d0:26:a5:
        92:2a:1b:6e:7b:a8:bd:0f:52:db:bf:59:50:59:3c:a0:71:54:
        eb:53:eb:2d:e3:46:e8:4e:55:40:f1:34:e4:28:4b:04:23:b9:
        da:f3:4c:21:3f:80:f1:96:41:2b:0f:49:84:31:57:13:6a:e2:
        1a:50:31:a6:83:83:b6:1d:9d:6d:97:8b:a1:1a:8a:3c:41:da:
        d1:18:54:84:77:e4:6d:15:05:04:88:b7:3d:a1:8b:2a:a6:3a:
        d5:6b:e5:41:1e:6c:42:6e:1e:fd:1c:36:1d:03:d6:d1:26:4a:
        f8:c6:f1:45:ee:62:1d:da:96:0b:31:e2:63:20:d8:70:b4:28:
        1e:78:22:e8:77:34:2f:c6:54:1f:59:00:25:4d:38:b3:61:4f:
        f8:5f:e6:5f:23:68:71:29:20:aa:7f:d8:6a:b6:2e:b5:99:b8:
        3a:1c:4f:c3:04:32:b9:8a:58:2e:69:c6:24:84:9a:a2:21:92:
        2d:4b:fc:0a:fd:b1:13:89:d9:b6:58:6f:8a:26:69:cd:17:55:
        a4:8f:5c:87:99:17:59:6c:27:df:33:11:10:a6:84:59:e0:fd:
        2d:25:ff:a4:89:bd:6a:40:a1:8d:c7:d9:89:ca:16:15:45:5c:
        5c:81:5b:b5:bf:d5:8b:13:b8:d3:90:89:4c:15:7c:63:5b:7c:
        64:a0:4d:6a:2a:4c:e2:b0:7c:e3:a9:43:53:5f:54:78:37:87:
        bb:cf:19:88:3e:e8:9c:8a:78:47:a3:28:81:81:77:9a:f8:07:
        51:d0:0b:54:16:34:41:08:5f:0a:d3:a2:e7:6d:34:bd:d4:9b:
        3c:66:6a:15:f0:29:eb:cc:11:8a:84:3d:c6:8f:6d:27:cc:71:
        5c:66:2a:13:41:a8:e4:93:a4:1b:3e:28:9f:e3:ea:8a:0a:43:
        49:80:e1:15:70:4a:9b:50:e7:3b:79:d4:ac:8a:e4:66:1c:8d:
        44:1e:bb:a1:39:d8:8b:ee:6b:4e:d1:ff:c8:84:9f:59:dc:af:
        d8:6a:47:b3:b3:45:ac:3d:47:e7:97:9f:c6:5d:03:99:fe:2c:
        ac:de:df:b8:26:fe:64:1f:7d:c9:7b:c1:72:24:0b:c7:5f:c0:
        a8:16:26:c1:c1:ef:a9:ae:50:07:61:33:b9:fa:00:a1:18:3d:
        bc:da:09:0a:39:d6:4f:11:2b:55:92:47:de:24:5a:33:4d:65:
        ac:59:cc:24:d1:99:0e:43:41:99:3c:70:dc:c3:a4:de:53:8a:
        3e:e0:db:91:c5:04:ee:6b:9d:5e:3b:d5:be:96:d0:32:46:c9:
        31:9f:ba:fe:c8:bc:42:28
-----BEGIN CERTIFICATE-----
MIIEXjCCAkagAwIBAgIBWTANBgkqhkiG9w0BAQsFADBGMQswCQYDVQQGEwJDQTEN
MAsGA1UECgwEU0VMRjENMAsGA1UECwwEU0VMRjEZMBcGA1UEAwwQU0VMRiBJREVO
VElUWSBDQTAgFw0yNDA5MDkxNDE0MzZaGA8yMTI0MDgxNjE0MTQzNlowLzELMAkG
A1UEBhMCQ0ExETAPBgNVBAoMCG1iZWQgVExTMQ0wCwYDVQQDDARDZXJ0MIIBIjAN
BgkqhkiG9w0BAQEFAAOCAQ8AMIIBCgKCAQEA1VSS/gKy3zIhWyzyMfIdK3AE11Cl
hkjt7lZyDl0XiaXYe/WlU5yERmzTndULj8xjm2cnPhlGNCxDvZcA/UirWFofTXyH
Dt/qY/lT7s6SSCYs/meSZC7p0feft+dAh8s2y+V5KBkTYJy5l7OuyfsEGk0Wf/jc
Q+9b7Yfk3aIzEO/p2jDVx/TGHNMZebr7sWc7PWAFM3JKqWuUjq2L6S1ni6G2ZBfP
/ulhclCQdDiWk7Iu2LWgprNvwv4mrv5AO6oKRD0o9LQAZbiLU8OhgUz4aa8ZCjev
MkRq1F7+zdGmM33QHypO1cO0mQllFLidT7Vskh8n1WlBHlcj3GGi6/hplwIDAQAB
o2wwajAdBgNVHQ4EFgQU+WqkrgvCgkXdOC+c27HTy0Y2gRgwHwYDVR0jBBgwFoAU
l271sTig+lUoDdXM4sNB+W/3LlcwCQYDVR0TBAIwADALBgNVHQ8EBAMCBaAwEAYJ
YIZIAYb4QgEBBAMDAQAwDQYJKoZIhvcNAQELBQADggIBAD+JhPFvnmzYRYDZ0PDB
/NAmpZIqG257qL0PUtu/WVBZPKBxVOtT6y3jRuhOVUDxNOQoSwQjudrzTCE/gPGW
QSsPSYQxVxNq4hpQMaaDg7YdnW2Xi6EaijxB2tEYVIR35G0VBQSItz2hiyqmOtVr
5UEebEJuHv0cNh0D1tEmSvjG8UXuYh3algsx4mMg2HC0KB54Iuh3NC/GVB9ZACVN
OLNhT/hf5l8jaHEpIKp/2Gq2LrWZuDocT8MEMrmKWC5pxiSEmqIhki1L/Ar9sROJ
2bZYb4omac0XVaSPXIeZF1lsJ98zERCmhFng/S0l/6SJvWpAoY3H2YnKFhVFXFyB
W7W/1YsTuNOQiUwVfGNbfGSgTWoqTOKwfOOpQ1NfVHg3h7vPGYg+6JyKeEejKIGB
d5r4B1HQC1QWNEEIXwrToudtNL3UmzxmahXwKevMEYqEPcaPbSfMcVxmKhNBqOST
pBs+KJ/j6ooKQ0mA4RVwSptQ5zt51KyK5GYcjUQeu6E52Ivua07R/8iEn1ncr9hq
R7OzRaw9R+eXn8ZdA5n+LKze37gm/mQffcl7wXIkC8dfwKgWJsHB76muUAdhM7n6
AKEYPbzaCQo51k8RK1WSR94kWjNNZaxZzCTRmQ5DQZk8cNzDpN5Tij7g25HFBO5r
nV471b6W0DJGyTGfuv7IvEIo
-----END CERTIFICATE-----
