Certificate:
    Data:
        Version: 3 (0x2)
        Serial Number: 90 (0x5a)
        Signature Algorithm: sha256WithRSAEncryption
        Issuer: C=CA, O=SELF, OU=SELF, CN=SELF IDENTITY CA
        Validity
            Not Before: Sep  9 14:15:23 2024 GMT
            Not After : Aug 16 14:15:23 2124 GMT
        Subject: C=CA, O=mbed TLS, CN=Cert
        Subject Public Key Info:
            Public Key Algorithm: rsaEncryption
                Public-Key: (2048 bit)
                Modulus:
                    00:d5:54:92:fe:02:b2:df:32:21:5b:2c:f2:31:f2:
                    1d:2b:70:04:d7:50:a5:86:48:ed:ee:56:72:0e:5d:
                    17:89:a5:d8:7b:f5:a5:53:9c:84:46:6c:d3:9d:d5:
                    0b:8f:cc:63:9b:67:27:3e:19:46:34:2c:43:bd:97:
                    00:fd:48:ab:58:5a:1f:4d:7c:87:0e:df:ea:63:f9:
                    53:ee:ce:92:48:26:2c:fe:67:92:64:2e:e9:d1:f7:
                    9f:b7:e7:40:87:cb:36:cb:e5:79:28:19:13:60:9c:
                    b9:97:b3:ae:c9:fb:04:1a:4d:16:7f:f8:dc:43:ef:
                    5b:ed:87:e4:dd:a2:33:10:ef:e9:da:30:d5:c7:f4:
                    c6:1c:d3:19:79:ba:fb:b1:67:3b:3d:60:05:33:72:
                    4a:a9:6b:94:8e:ad:8b:e9:2d:67:8b:a1:b6:64:17:
                    cf:fe:e9:61:72:50:90:74:38:96:93:b2:2e:d8:b5:
                    a0:a6:b3:6f:c2:fe:26:ae:fe:40:3b:aa:0a:44:3d:
                    28:f4:b4:00:65:b8:8b:53:c3:a1:81:4c:f8:69:af:
                    19:0a:37:af:32:44:6a:d4:5e:fe:cd:d1:a6:33:7d:
                    d0:1f:2a:4e:d5:c3:b4:99:09:65:14:b8:9d:4f:b5:
                    6c:92:1f:27:d5:69:41:1e:57:23:dc:61:a2:eb:f8:
                    69:97
                Exponent: 65537 (0x10001)
        X509v3 extensions:
            X509v3 Subject Key Identifier: 
                F9:6A:A4:AE:0B:C2:82:45:DD:38:2F:9C:DB:B1:D3:CB:46:36:81:18
            X509v3 Authority Key Identifier: 
                97:6E:F5:B1:38:A0:FA:55:28:0D:D5:CC:E2:C3:41:F9:6F:F7:2E:57
            X509v3 Basic Constraints: 
                CA:FALSE
            X509v3 Key Usage: 
                Digital Signature, Key Encipherment
            Netscape Cert Type: 
                ...
    Signature Algorithm: sha256WithRSAEncryption
    Signature Value:
        24:ec:c1:23:83:ff:53:84:e4:6f:47:72:01:d1:61:98:b8:6c:
        1b:cc:94:22:27:1e:b4:e7:1a:a3:08:f4:b6:54:05:2c:43:a2:
        12:57:94:e5:07:40:f2:76:22:40:8d:a7:46:d1:28:5c:77:f5:
        bd:6e:f1:fa:2c:09:d6:f3:12:73:2f:a3:40:86:02:10:15:28:
        b0:64:28:dc:27:37:d9:48:94:e7:ba:ce:b7:db:42:e9:bb:2d:
        ce:ee:e2:64:29:7a:9b:b3:6b:56:5d:a5:b5:c3:d5:2a:86:c1:
        42:04:8a:2c:ae:a9:a8:7d:1f:c5:0c:00:a1:c9:d3:58:9e:07:
        52:bf:db:37:c1:dc:9a:61:40:27:80:b2:e7:a8:70:d1:9a:d1:
        aa:d5:0f:21:8a:b6:7e:45:e8:aa:a5:39:bb:1f:84:89:66:a4:
        43:f6:9e:46:93:b0:7a:a8:04:78:20:94:1a:79:77:20:39:03:
        01:5d:00:2b:f8:76:d5:38:5a:2a:5e:a3:4d:78:f3:f1:62:c3:
        56:43:9f:43:55:f2:a6:6b:ce:fb:2f:78:db:3f:e0:6e:b4:95:
        02:5f:a9:ba:23:a1:c1:0d:cb:95:f1:03:71:43:7c:50:8a:08:
        5e:74:9f:75:03:54:14:32:d0:01:ae:c6:69:98:6d:fb:b1:60:
        d9:ef:8d:6e:3b:d8:dc:0e:b7:c7:ad:e4:15:79:ff:49:09:e0:
        71:82:d0:0a:83:8d:1b:88:12:e7:96:d6:8e:00:40:83:5b:38:
        cc:8c:61:35:0f:7a:42:8b:bc:27:24:0b:f3:df:de:6c:d9:d1:
        67:df:88:c0:e1:62:1f:2a:5e:ab:be:90:3d:46:b1:0d:c0:cc:
        ff:55:e1:4e:4a:cc:af:72:90:b6:61:98:5d:b6:6f:dd:32:1f:
        37:77:46:95:7f:69:ca:c5:15:64:30:42:c1:8f:e3:af:0e:d1:
        ab:e7:94:13:c6:35:5c:4f:10:b7:61:41:96:05:b3:59:97:43:
        88:8e:bb:26:80:c4:1a:6e:35:cf:e8:49:47:75:28:51:e3:c2:
        72:c2:dd:a6:af:ea:4c:94:04:8e:a9:a1:b4:b8:c0:a5:fb:7e:
        3c:5b:6a:5c:1b:14:29:2c:9d:78:0b:0f:9d:14:83:eb:76:80:
        f5:34:8e:37:4e:25:39:f4:68:fe:88:4c:e1:1b:fa:7b:55:8e:
        63:71:31:1f:f1:ab:d0:27:41:0f:92:99:4e:47:47:66:83:d9:
        a9:6e:0d:a3:37:12:53:2f:92:c7:34:61:85:82:0f:a1:fc:fc:
        33:60:d7:0c:bc:9d:09:10:fd:a5:80:d5:5c:c0:30:6c:14:ee:
        0d:a3:e3:42:7b:f1:fe:36
-----BEGIN CERTIFICATE-----
MIIEXjCCAkagAwIBAgIBWjANBgkqhkiG9w0BAQsFADBGMQswCQYDVQQGEwJDQTEN
MAsGA1UECgwEU0VMRjENMAsGA1UECwwEU0VMRjEZMBcGA1UEAwwQU0VMRiBJREVO
VElUWSBDQTAgFw0yNDA5MDkxNDE1MjNaGA8yMTI0MDgxNjE0MTUyM1owLzELMAkG
A1UEBhMCQ0ExETAPBgNVBAoMCG1iZWQgVExTMQ0wCwYDVQQDDARDZXJ0MIIBIjAN
BgkqhkiG9w0BAQEFAAOCAQ8AMIIBCgKCAQEA1VSS/gKy3zIhWyzyMfIdK3AE11Cl
hkjt7lZyDl0XiaXYe/WlU5yERmzTndULj8xjm2cnPhlGNCxDvZcA/UirWFofTXyH
Dt/qY/lT7s6SSCYs/meSZC7p0feft+dAh8s2y+V5KBkTYJy5l7OuyfsEGk0Wf/jc
Q+9b7Yfk3aIzEO/p2jDVx/TGHNMZebr7sWc7PWAFM3JKqWuUjq2L6S1ni6G2ZBfP
/ulhclCQdDiWk7Iu2LWgprNvwv4mrv5AO6oKRD0o9LQAZbiLU8OhgUz4aa8ZCjev
MkRq1F7+zdGmM33QHypO1cO0mQllFLidT7Vskh8n1WlBHlcj3GGi6/hplwIDAQAB
o2wwajAdBgNVHQ4EFgQU+WqkrgvCgkXdOC+c27HTy0Y2gRgwHwYDVR0jBBgwFoAU
l271sTig+lUoDdXM4sNB+W/3LlcwCQYDVR0TBAIwADALBgNVHQ8EBAMCBaAwEAYJ
YIZIAYb4QgEBBAMDAQAwDQYJKoZIhvcNAQELBQADggIBACTswSOD/1OE5G9HcgHR
YZi4bBvMlCInHrTnGqMI9LZUBSxDohJXlOUHQPJ2IkCNp0bRKFx39b1u8fosCdbz
EnMvo0CGAhAVKLBkKNwnN9lIlOe6zrfbQum7Lc7u4mQpepuza1ZdpbXD1SqGwUIE
iiyuqah9H8UMAKHJ01ieB1K/2zfB3JphQCeAsueocNGa0arVDyGKtn5F6KqlObsf
hIlmpEP2nkaTsHqoBHgglBp5dyA5AwFdACv4dtU4Wipeo0148/Fiw1ZDn0NV8qZr
zvsveNs/4G60lQJfqbojocENy5XxA3FDfFCKCF50n3UDVBQy0AGuxmmYbfuxYNnv
jW472NwOt8et5BV5/0kJ4HGC0AqDjRuIEueW1o4AQINbOMyMYTUPekKLvCckC/Pf
3mzZ0WffiMDhYh8qXqu+kD1GsQ3AzP9V4U5KzK9ykLZhmF22b90yHzd3RpV/acrF
FWQwQsGP468O0avnlBPGNVxPELdhQZYFs1mXQ4iOuyaAxBpuNc/oSUd1KFHjwnLC
3aav6kyUBI6pobS4wKX7fjxbalwbFCksnXgLD50Ug+t2gPU0jjdOJTn0aP6ITOEb
+ntVjmNxMR/xq9AnQQ+SmU5HR2aD2aluDaM3ElMvksc0YYWCD6H8/DNg1wy8nQkQ
/aWA1VzAMGwU7g2j40J78f42
-----END CERTIFICATE-----
