Certificate:
    Data:
        Version: 3 (0x2)
        Serial Number: 91 (0x5b)
        Signature Algorithm: sha256WithRSAEncryption
        Issuer: C=CA, O=SELF, OU=SELF, CN=SELF IDENTITY CA
        Validity
            Not Before: Sep  9 14:19:07 2024 GMT
            Not After : Aug 16 14:19:07 2124 GMT
        Subject: C=CA, O=mbed TLS, CN=Cert
        Subject Public Key Info:
            Public Key Algorithm: rsaEncryption
                Public-Key: (2048 bit)
                Modulus:
                    00:d5:54:92:fe:02:b2:df:32:21:5b:2c:f2:31:f2:
                    1d:2b:70:04:d7:50:a5:86:48:ed:ee:56:72:0e:5d:
                    17:89:a5:d8:7b:f5:a5:53:9c:84:46:6c:d3:9d:d5:
                    0b:8f:cc:63:9b:67:27:3e:19:46:34:2c:43:bd:97:
                    00:fd:48:ab:58:5a:1f:4d:7c:87:0e:df:ea:63:f9:
                    53:ee:ce:92:48:26:2c:fe:67:92:64:2e:e9:d1:f7:
                    9f:b7:e7:40:87:cb:36:cb:e5:79:28:19:13:60:9c:
                    b9:97:b3:ae:c9:fb:04:1a:4d:16:7f:f8:dc:43:ef:
                    5b:ed:87:e4:dd:a2:33:10:ef:e9:da:30:d5:c7:f4:
                    c6:1c:d3:19:79:ba:fb:b1:67:3b:3d:60:05:33:72:
                    4a:a9:6b:94:8e:ad:8b:e9:2d:67:8b:a1:b6:64:17:
                    cf:fe:e9:61:72:50:90:74:38:96:93:b2:2e:d8:b5:
                    a0:a6:b3:6f:c2:fe:26:ae:fe:40:3b:aa:0a:44:3d:
                    28:f4:b4:00:65:b8:8b:53:c3:a1:81:4c:f8:69:af:
                    19:0a:37:af:32:44:6a:d4:5e:fe:cd:d1:a6:33:7d:
                    d0:1f:2a:4e:d5:c3:b4:99:09:65:14:b8:9d:4f:b5:
                    6c:92:1f:27:d5:69:41:1e:57:23:dc:61:a2:eb:f8:
                    69:97
                Exponent: 65537 (0x10001)
        X509v3 extensions:
            X509v3 Subject Key Identifier: 
                F9:6A:A4:AE:0B:C2:82:45:DD:38:2F:9C:DB:B1:D3:CB:46:36:81:18
            X509v3 Authority Key Identifier: 
                97:6E:F5:B1:38:A0:FA:55:28:0D:D5:CC:E2:C3:41:F9:6F:F7:2E:57
            X509v3 Basic Constraints: 
                CA:FALSE
            X509v3 Key Usage: 
                Digital Signature, Key Encipherment
            Netscape Cert Type: 
                ...
    Signature Algorithm: sha256WithRSAEncryption
    Signature Value:
        8e:02:93:b7:8c:7e:ba:12:70:3a:77:54:94:ff:3c:9f:cb:26:
        11:ad:99:d7:dd:e8:dc:42:03:44:49:8f:6f:48:9b:77:50:23:
        69:cd:c8:aa:fb:d8:de:b1:8c:f3:83:74:15:9b:a0:b5:91:a3:
        57:cb:44:95:18:3f:91:d4:46:4d:fd:c4:62:57:5d:f2:b2:07:
        f8:d6:2f:09:23:63:70:80:0f:15:b3:84:50:01:94:fb:32:54:
        42:04:24:94:f0:fc:e2:41:41:92:d0:c2:33:59:88:06:32:31:
        cf:c7:d3:8b:95:2f:74:6d:a3:dd:ce:3f:84:a1:9f:70:d6:aa:
        a6:1b:e9:a7:0e:4b:42:fd:47:26:2f:59:21:f6:ea:d1:da:ac:
        02:03:b9:4b:c9:0b:cd:c5:de:cc:c2:87:eb:fc:e9:ff:cf:af:
        d0:65:5e:64:52:b2:0c:37:24:ee:be:d1:4d:18:c7:6b:b4:bd:
        a3:65:8b:c8:75:8f:22:52:67:51:38:c8:63:d9:e8:a7:34:be:
        7c:d7:e6:e6:99:74:79:ee:08:fd:b3:50:75:83:c9:c5:75:e9:
        e3:20:ae:54:27:af:4c:be:22:38:f2:2d:66:04:21:6b:17:12:
        e8:40:70:75:22:fc:ce:01:39:10:46:79:97:48:65:0e:35:9c:
        25:20:d5:1f:99:5b:e4:84:32:a5:67:72:97:44:75:4a:88:f9:
        cb:69:58:27:a0:ac:9d:3d:d0:dc:5e:31:8e:fa:d5:f8:ee:ab:
        5d:0a:94:e0:2d:ed:2a:3c:40:c0:d9:92:75:6c:eb:54:92:84:
        64:a9:79:a8:6a:1f:82:1f:d3:25:fb:b5:51:74:e7:1c:aa:91:
        a4:be:8a:da:25:6b:b0:41:31:16:ef:99:eb:e4:4d:6d:81:16:
        af:86:4e:8e:74:a3:55:5d:27:e4:d4:54:a2:5e:49:cb:f7:5c:
        e5:01:82:46:af:0f:74:ab:5c:92:d8:5f:a2:d1:9e:85:a6:46:
        bd:82:8a:f0:35:35:77:27:1b:fd:6d:7a:d8:78:64:06:57:5d:
        bc:fc:16:d7:17:37:44:c7:bf:e8:5e:07:a6:dc:75:10:af:97:
        a8:a1:0d:7a:72:4b:1c:02:62:6a:e0:17:b7:54:31:97:a9:93:
        7a:4d:1c:74:f5:ab:d7:4d:d1:46:c6:bb:6b:03:6b:60:f1:87:
        b2:ff:2e:f7:ff:e4:fa:66:9a:9f:4d:65:8e:fc:be:c7:88:8d:
        d6:1f:9d:cd:ba:48:da:6f:5e:65:cc:f1:5b:89:c6:cd:5d:ce:
        a1:31:1f:65:33:b7:67:b1:b9:1e:07:f3:a1:73:ae:0d:1e:22:
        cc:78:91:32:f1:94:48:0c
-----BEGIN CERTIFICATE-----
MIIEXjCCAkagAwIBAgIBWzANBgkqhkiG9w0BAQsFADBGMQswCQYDVQQGEwJDQTEN
MAsGA1UECgwEU0VMRjENMAsGA1UECwwEU0VMRjEZMBcGA1UEAwwQU0VMRiBJREVO
VElUWSBDQTAgFw0yNDA5MDkxNDE5MDdaGA8yMTI0MDgxNjE0MTkwN1owLzELMAkG
A1UEBhMCQ0ExETAPBgNVBAoMCG1iZWQgVExTMQ0wCwYDVQQDDARDZXJ0MIIBIjAN
BgkqhkiG9w0BAQEFAAOCAQ8AMIIBCgKCAQEA1VSS/gKy3zIhWyzyMfIdK3AE11Cl
hkjt7lZyDl0XiaXYe/WlU5yERmzTndULj8xjm2cnPhlGNCxDvZcA/UirWFofTXyH
Dt/qY/lT7s6SSCYs/meSZC7p0feft+dAh8s2y+V5KBkTYJy5l7OuyfsEGk0Wf/jc
Q+9b7Yfk3aIzEO/p2jDVx/TGHNMZebr7sWc7PWAFM3JKqWuUjq2L6S1ni6G2ZBfP
/ulhclCQdDiWk7Iu2LWgprNvwv4mrv5AO6oKRD0o9LQAZbiLU8OhgUz4aa8ZCjev
MkRq1F7+zdGmM33QHypO1cO0mQllFLidT7Vskh8n1WlBHlcj3GGi6/hplwIDAQAB
o2wwajAdBgNVHQ4EFgQU+WqkrgvCgkXdOC+c27HTy0Y2gRgwHwYDVR0jBBgwFoAU
l271sTig+lUoDdXM4sNB+W/3LlcwCQYDVR0TBAIwADALBgNVHQ8EBAMCBaAwEAYJ
YIZIAYb4QgEBBAMDAQAwDQYJKoZIhvcNAQELBQADggIBAI4Ck7eMfroScDp3VJT/
PJ/LJhGtmdfd6NxCA0RJj29Im3dQI2nNyKr72N6xjPODdBWboLWRo1fLRJUYP5HU
Rk39xGJXXfKyB/jWLwkjY3CADxWzhFABlPsyVEIEJJTw/OJBQZLQwjNZiAYyMc/H
04uVL3Rto93OP4Shn3DWqqYb6acOS0L9RyYvWSH26tHarAIDuUvJC83F3szCh+v8
6f/Pr9BlXmRSsgw3JO6+0U0Yx2u0vaNli8h1jyJSZ1E4yGPZ6Kc0vnzX5uaZdHnu
CP2zUHWDycV16eMgrlQnr0y+IjjyLWYEIWsXEuhAcHUi/M4BORBGeZdIZQ41nCUg
1R+ZW+SEMqVncpdEdUqI+ctpWCegrJ090NxeMY761fjuq10KlOAt7So8QMDZknVs
61SShGSpeahqH4If0yX7tVF05xyqkaS+itola7BBMRbvmevkTW2BFq+GTo50o1Vd
J+TUVKJeScv3XOUBgkavD3SrXJLYX6LRnoWmRr2CivA1NXcnG/1teth4ZAZXXbz8
FtcXN0THv+heB6bcdRCvl6ihDXpySxwCYmrgF7dUMZepk3pNHHT1q9dN0UbGu2sD
a2Dxh7L/Lvf/5Ppmmp9NZY78vseIjdYfnc26SNpvXmXM8VuJxs1dzqExH2Uzt2ex
uR4H86Fzrg0eIsx4kTLxlEgM
-----END CERTIFICATE-----
