Certificate:
    Data:
        Version: 3 (0x2)
        Serial Number: 92 (0x5c)
        Signature Algorithm: sha256WithRSAEncryption
        Issuer: C=CA, O=SELF, OU=SELF, CN=SELF IDENTITY CA
        Validity
            Not Before: Sep  9 14:33:22 2024 GMT
            Not After : Aug 16 14:33:22 2124 GMT
        Subject: C=CA, O=mbed TLS, CN=Cert
        Subject Public Key Info:
            Public Key Algorithm: rsaEncryption
                Public-Key: (2048 bit)
                Modulus:
                    00:d5:54:92:fe:02:b2:df:32:21:5b:2c:f2:31:f2:
                    1d:2b:70:04:d7:50:a5:86:48:ed:ee:56:72:0e:5d:
                    17:89:a5:d8:7b:f5:a5:53:9c:84:46:6c:d3:9d:d5:
                    0b:8f:cc:63:9b:67:27:3e:19:46:34:2c:43:bd:97:
                    00:fd:48:ab:58:5a:1f:4d:7c:87:0e:df:ea:63:f9:
                    53:ee:ce:92:48:26:2c:fe:67:92:64:2e:e9:d1:f7:
                    9f:b7:e7:40:87:cb:36:cb:e5:79:28:19:13:60:9c:
                    b9:97:b3:ae:c9:fb:04:1a:4d:16:7f:f8:dc:43:ef:
                    5b:ed:87:e4:dd:a2:33:10:ef:e9:da:30:d5:c7:f4:
                    c6:1c:d3:19:79:ba:fb:b1:67:3b:3d:60:05:33:72:
                    4a:a9:6b:94:8e:ad:8b:e9:2d:67:8b:a1:b6:64:17:
                    cf:fe:e9:61:72:50:90:74:38:96:93:b2:2e:d8:b5:
                    a0:a6:b3:6f:c2:fe:26:ae:fe:40:3b:aa:0a:44:3d:
                    28:f4:b4:00:65:b8:8b:53:c3:a1:81:4c:f8:69:af:
                    19:0a:37:af:32:44:6a:d4:5e:fe:cd:d1:a6:33:7d:
                    d0:1f:2a:4e:d5:c3:b4:99:09:65:14:b8:9d:4f:b5:
                    6c:92:1f:27:d5:69:41:1e:57:23:dc:61:a2:eb:f8:
                    69:97
                Exponent: 65537 (0x10001)
        X509v3 extensions:
            X509v3 Subject Key Identifier: 
                F9:6A:A4:AE:0B:C2:82:45:DD:38:2F:9C:DB:B1:D3:CB:46:36:81:18
            X509v3 Authority Key Identifier: 
                97:6E:F5:B1:38:A0:FA:55:28:0D:D5:CC:E2:C3:41:F9:6F:F7:2E:57
            X509v3 Basic Constraints: 
                CA:FALSE
            X509v3 Key Usage: 
                Digital Signature, Key Encipherment
            Netscape Cert Type: 
                ...
    Signature Algorithm: sha256WithRSAEncryption
    Signature Value:
        1d:2c:61:a7:6d:f4:11:f7:47:ec:04:f1:3a:36:d9:72:35:6c:
        f4:22:90:a7:9a:f6:15:4c:81:0a:7f:b8:bb:f4:e3:31:a0:1c:
        47:68:20:31:b7:11:d0:18:99:2e:1d:c0:0b:90:47:a6:21:c0:
        a0:39:46:77:2f:96:68:8e:a5:c9:09:00:a1:86:2c:ac:e1:f8:
        a7:d2:f3:71:e6:b8:20:e4:e8:3c:f9:f7:b3:85:94:2f:10:8d:
        cd:d9:78:9e:fb:6a:ab:c1:ce:34:ff:62:fe:9b:86:a8:6c:e2:
        91:df:e0:aa:c3:52:1c:83:f9:68:55:58:03:26:74:97:86:70:
        9d:35:9c:dc:ba:7b:cc:70:0e:78:13:02:b7:f8:75:46:ef:d8:
        72:14:26:df:d0:f6:2e:ce:a9:73:be:1f:d5:ae:f6:d9:3f:8c:
        8e:7f:55:89:e5:76:a0:8b:53:0a:36:b7:07:c6:d1:d1:50:a9:
        e3:f4:bf:4b:46:24:e1:79:8d:f9:a5:41:14:c6:89:2b:43:a7:
        31:36:09:86:c7:a2:12:c5:4b:c4:3a:dc:3a:58:94:ec:3a:4a:
        1c:a7:3f:50:a6:09:2f:cd:70:d4:f0:ea:1f:e2:44:6c:98:2c:
        b0:f2:30:8e:33:00:91:94:80:23:f2:b7:69:af:45:46:a8:8a:
        d0:79:32:54:30:07:6d:79:8a:27:67:63:db:53:a5:ec:11:a5:
        a1:de:3d:13:80:a2:bd:f2:bb:84:dc:13:83:72:9d:a8:9a:cc:
        f1:aa:dc:c7:2d:fc:2e:68:06:7f:a7:6f:da:ee:b4:69:6c:6f:
        ae:11:f5:bd:3f:4f:e1:de:8a:ee:c1:b1:73:c7:eb:de:be:c6:
        32:1a:ed:43:80:b3:e9:a9:69:95:87:cb:59:e7:0d:b5:e1:75:
        cf:6c:be:45:21:c0:e9:ec:c3:4a:9c:57:2e:b7:87:67:9f:d6:
        58:42:a2:b4:e9:91:a7:6f:16:82:ae:e0:25:82:98:78:b1:14:
        86:42:fe:21:a0:67:40:e0:5e:93:f3:a1:af:f5:c6:3c:df:0e:
        81:88:ea:90:21:e9:5d:94:12:da:3f:e2:72:62:2c:37:c1:34:
        f6:c1:b8:6f:b4:f1:66:87:a9:6e:d8:6f:fd:58:9f:3f:16:4c:
        f3:2b:d3:92:6e:22:63:8f:97:6c:e3:9e:a1:1b:7f:c7:e1:d0:
        42:58:4f:48:10:da:87:d2:0a:91:31:eb:1e:ef:4f:41:98:4b:
        fc:09:10:03:3a:4b:95:1f:80:f6:52:11:a5:08:0e:d8:c2:26:
        39:d8:fd:d5:f6:f2:41:55:80:a2:32:1a:04:1b:dc:ed:50:ad:
        7b:65:f2:69:28:7d:3e:c3
-----BEGIN CERTIFICATE-----
MIIEXjCCAkagAwIBAgIBXDANBgkqhkiG9w0BAQsFADBGMQswCQYDVQQGEwJDQTEN
MAsGA1UECgwEU0VMRjENMAsGA1UECwwEU0VMRjEZMBcGA1UEAwwQU0VMRiBJREVO
VElUWSBDQTAgFw0yNDA5MDkxNDMzMjJaGA8yMTI0MDgxNjE0MzMyMlowLzELMAkG
A1UEBhMCQ0ExETAPBgNVBAoMCG1iZWQgVExTMQ0wCwYDVQQDDARDZXJ0MIIBIjAN
BgkqhkiG9w0BAQEFAAOCAQ8AMIIBCgKCAQEA1VSS/gKy3zIhWyzyMfIdK3AE11Cl
hkjt7lZyDl0XiaXYe/WlU5yERmzTndULj8xjm2cnPhlGNCxDvZcA/UirWFofTXyH
Dt/qY/lT7s6SSCYs/meSZC7p0feft+dAh8s2y+V5KBkTYJy5l7OuyfsEGk0Wf/jc
Q+9b7Yfk3aIzEO/p2jDVx/TGHNMZebr7sWc7PWAFM3JKqWuUjq2L6S1ni6G2ZBfP
/ulhclCQdDiWk7Iu2LWgprNvwv4mrv5AO6oKRD0o9LQAZbiLU8OhgUz4aa8ZCjev
MkRq1F7+zdGmM33QHypO1cO0mQllFLidT7Vskh8n1WlBHlcj3GGi6/hplwIDAQAB
o2wwajAdBgNVHQ4EFgQU+WqkrgvCgkXdOC+c27HTy0Y2gRgwHwYDVR0jBBgwFoAU
l271sTig+lUoDdXM4sNB+W/3LlcwCQYDVR0TBAIwADALBgNVHQ8EBAMCBaAwEAYJ
YIZIAYb4QgEBBAMDAQAwDQYJKoZIhvcNAQELBQADggIBAB0sYadt9BH3R+wE8To2
2XI1bPQikKea9hVMgQp/uLv04zGgHEdoIDG3EdAYmS4dwAuQR6YhwKA5RncvlmiO
pckJAKGGLKzh+KfS83HmuCDk6Dz597OFlC8Qjc3ZeJ77aqvBzjT/Yv6bhqhs4pHf
4KrDUhyD+WhVWAMmdJeGcJ01nNy6e8xwDngTArf4dUbv2HIUJt/Q9i7OqXO+H9Wu
9tk/jI5/VYnldqCLUwo2twfG0dFQqeP0v0tGJOF5jfmlQRTGiStDpzE2CYbHohLF
S8Q63DpYlOw6ShynP1CmCS/NcNTw6h/iRGyYLLDyMI4zAJGUgCPyt2mvRUaoitB5
MlQwB215iidnY9tTpewRpaHePROAor3yu4TcE4NynaiazPGq3Mct/C5oBn+nb9ru
tGlsb64R9b0/T+Heiu7BsXPH696+xjIa7UOAs+mpaZWHy1nnDbXhdc9svkUhwOns
w0qcVy63h2ef1lhCorTpkadvFoKu4CWCmHixFIZC/iGgZ0DgXpPzoa/1xjzfDoGI
6pAh6V2UEto/4nJiLDfBNPbBuG+08WaHqW7Yb/1Ynz8WTPMr05JuImOPl2zjnqEb
f8fh0EJYT0gQ2ofSCpEx6x7vT0GYS/wJEAM6S5UfgPZSEaUIDtjCJjnY/dX28kFV
gKIyGgQb3O1QrXtl8mkofT7D
-----END CERTIFICATE-----
