Certificate:
    Data:
        Version: 3 (0x2)
        Serial Number: 93 (0x5d)
        Signature Algorithm: sha256WithRSAEncryption
        Issuer: C=CA, O=SELF, OU=SELF, CN=SELF IDENTITY CA
        Validity
            Not Before: Sep  9 14:35:29 2024 GMT
            Not After : Aug 16 14:35:29 2124 GMT
        Subject: C=CA, O=mbed TLS, CN=Cert
        Subject Public Key Info:
            Public Key Algorithm: rsaEncryption
                Public-Key: (2048 bit)
                Modulus:
                    00:d5:54:92:fe:02:b2:df:32:21:5b:2c:f2:31:f2:
                    1d:2b:70:04:d7:50:a5:86:48:ed:ee:56:72:0e:5d:
                    17:89:a5:d8:7b:f5:a5:53:9c:84:46:6c:d3:9d:d5:
                    0b:8f:cc:63:9b:67:27:3e:19:46:34:2c:43:bd:97:
                    00:fd:48:ab:58:5a:1f:4d:7c:87:0e:df:ea:63:f9:
                    53:ee:ce:92:48:26:2c:fe:67:92:64:2e:e9:d1:f7:
                    9f:b7:e7:40:87:cb:36:cb:e5:79:28:19:13:60:9c:
                    b9:97:b3:ae:c9:fb:04:1a:4d:16:7f:f8:dc:43:ef:
                    5b:ed:87:e4:dd:a2:33:10:ef:e9:da:30:d5:c7:f4:
                    c6:1c:d3:19:79:ba:fb:b1:67:3b:3d:60:05:33:72:
                    4a:a9:6b:94:8e:ad:8b:e9:2d:67:8b:a1:b6:64:17:
                    cf:fe:e9:61:72:50:90:74:38:96:93:b2:2e:d8:b5:
                    a0:a6:b3:6f:c2:fe:26:ae:fe:40:3b:aa:0a:44:3d:
                    28:f4:b4:00:65:b8:8b:53:c3:a1:81:4c:f8:69:af:
                    19:0a:37:af:32:44:6a:d4:5e:fe:cd:d1:a6:33:7d:
                    d0:1f:2a:4e:d5:c3:b4:99:09:65:14:b8:9d:4f:b5:
                    6c:92:1f:27:d5:69:41:1e:57:23:dc:61:a2:eb:f8:
                    69:97
                Exponent: 65537 (0x10001)
        X509v3 extensions:
            X509v3 Subject Key Identifier: 
                F9:6A:A4:AE:0B:C2:82:45:DD:38:2F:9C:DB:B1:D3:CB:46:36:81:18
            X509v3 Authority Key Identifier: 
                97:6E:F5:B1:38:A0:FA:55:28:0D:D5:CC:E2:C3:41:F9:6F:F7:2E:57
            X509v3 Basic Constraints: 
                CA:FALSE
            X509v3 Key Usage: 
                Digital Signature, Key Encipherment
            Netscape Cert Type: 
                ...
    Signature Algorithm: sha256WithRSAEncryption
    Signature Value:
        5f:a9:b5:8b:44:57:88:53:0b:99:c3:ef:60:15:bd:68:da:81:
        2c:5f:a2:22:90:ba:67:ce:82:7f:7a:32:a4:8b:da:54:ae:20:
        5c:09:d6:89:e5:81:a1:85:d5:fe:92:01:c3:72:8d:ee:a2:09:
        11:b9:56:0c:59:65:36:36:34:0c:ce:91:33:06:19:16:ca:81:
        4d:3e:e9:87:4c:11:ad:79:83:83:4e:e8:d4:f0:4d:b2:62:21:
        7a:6f:a8:34:69:5d:fd:69:42:dc:04:44:7f:75:96:fe:10:3c:
        7f:48:8d:96:96:ab:ee:28:fb:fa:14:02:4d:a9:67:69:a7:75:
        42:3a:43:e3:36:c8:ee:10:92:93:7a:b9:12:47:1c:1b:ca:ae:
        23:ad:50:1d:74:b4:3d:1a:cc:b1:4b:da:30:dd:f2:a1:28:b0:
        c7:70:ce:b2:a0:11:41:f6:64:22:d3:f9:db:74:94:50:71:d4:
        f0:47:54:07:40:57:49:43:dd:81:8e:3e:15:d1:74:83:b4:3b:
        f3:be:17:b6:d7:93:f9:59:38:70:7c:8d:4e:3c:eb:93:16:be:
        be:e8:2f:f3:e2:ef:e6:99:9f:2b:65:23:76:f9:7a:5b:1d:c0:
        84:8e:c4:1f:9c:79:85:a9:20:aa:50:4f:06:4b:10:bd:56:f2:
        94:8c:89:e7:de:55:c0:aa:8a:79:a3:1a:ef:c6:0d:d3:f2:8d:
        9e:c1:08:1b:bc:33:10:d0:54:7a:ca:e0:59:dc:1d:04:77:03:
        f6:d2:52:3f:60:14:09:dd:c2:aa:de:11:1c:b9:59:6c:e2:b0:
        00:e2:5b:c7:aa:d1:91:be:1e:e2:79:8a:86:46:ca:22:47:fa:
        3c:8b:0f:89:f9:9c:40:eb:f0:72:bc:19:d5:48:0e:c4:d0:2e:
        7f:9b:7d:b4:4e:ad:35:40:49:5b:a4:a3:15:ae:27:89:45:a3:
        78:4e:bc:87:7f:75:33:28:3b:30:e3:ce:44:d7:00:2a:d5:16:
        5c:74:2e:9c:43:eb:4c:76:f0:c4:0c:be:4f:3d:5b:45:4c:82:
        13:bb:a5:47:31:b0:06:9b:71:14:b6:90:c4:96:39:1d:7e:bf:
        fe:0d:e7:5e:bc:d5:32:92:f2:3e:74:70:18:ec:73:1e:39:cb:
        d1:92:f0:1e:e8:1f:ac:08:f4:fa:51:a2:36:5a:da:e5:c9:fb:
        35:0b:68:47:93:1e:93:22:9e:7e:61:ab:2e:8e:04:7b:47:1d:
        a4:0f:6f:8c:6c:07:fe:93:86:3b:1a:36:82:38:59:6e:bf:ab:
        12:25:79:cc:ca:a4:48:c1:6e:f5:46:a8:aa:f1:09:3c:1b:64:
        85:ac:4d:6a:cf:f2:5d:3d
-----BEGIN CERTIFICATE-----
MIIEXjCCAkagAwIBAgIBXTANBgkqhkiG9w0BAQsFADBGMQswCQYDVQQGEwJDQTEN
MAsGA1UECgwEU0VMRjENMAsGA1UECwwEU0VMRjEZMBcGA1UEAwwQU0VMRiBJREVO
VElUWSBDQTAgFw0yNDA5MDkxNDM1MjlaGA8yMTI0MDgxNjE0MzUyOVowLzELMAkG
A1UEBhMCQ0ExETAPBgNVBAoMCG1iZWQgVExTMQ0wCwYDVQQDDARDZXJ0MIIBIjAN
BgkqhkiG9w0BAQEFAAOCAQ8AMIIBCgKCAQEA1VSS/gKy3zIhWyzyMfIdK3AE11Cl
hkjt7lZyDl0XiaXYe/WlU5yERmzTndULj8xjm2cnPhlGNCxDvZcA/UirWFofTXyH
Dt/qY/lT7s6SSCYs/meSZC7p0feft+dAh8s2y+V5KBkTYJy5l7OuyfsEGk0Wf/jc
Q+9b7Yfk3aIzEO/p2jDVx/TGHNMZebr7sWc7PWAFM3JKqWuUjq2L6S1ni6G2ZBfP
/ulhclCQdDiWk7Iu2LWgprNvwv4mrv5AO6oKRD0o9LQAZbiLU8OhgUz4aa8ZCjev
MkRq1F7+zdGmM33QHypO1cO0mQllFLidT7Vskh8n1WlBHlcj3GGi6/hplwIDAQAB
o2wwajAdBgNVHQ4EFgQU+WqkrgvCgkXdOC+c27HTy0Y2gRgwHwYDVR0jBBgwFoAU
l271sTig+lUoDdXM4sNB+W/3LlcwCQYDVR0TBAIwADALBgNVHQ8EBAMCBaAwEAYJ
YIZIAYb4QgEBBAMDAQAwDQYJKoZIhvcNAQELBQADggIBAF+ptYtEV4hTC5nD72AV
vWjagSxfoiKQumfOgn96MqSL2lSuIFwJ1onlgaGF1f6SAcNyje6iCRG5VgxZZTY2
NAzOkTMGGRbKgU0+6YdMEa15g4NO6NTwTbJiIXpvqDRpXf1pQtwERH91lv4QPH9I
jZaWq+4o+/oUAk2pZ2mndUI6Q+M2yO4QkpN6uRJHHBvKriOtUB10tD0azLFL2jDd
8qEosMdwzrKgEUH2ZCLT+dt0lFBx1PBHVAdAV0lD3YGOPhXRdIO0O/O+F7bXk/lZ
OHB8jU4865MWvr7oL/Pi7+aZnytlI3b5elsdwISOxB+ceYWpIKpQTwZLEL1W8pSM
iefeVcCqinmjGu/GDdPyjZ7BCBu8MxDQVHrK4FncHQR3A/bSUj9gFAndwqreERy5
WWzisADiW8eq0ZG+HuJ5ioZGyiJH+jyLD4n5nEDr8HK8GdVIDsTQLn+bfbROrTVA
SVukoxWuJ4lFo3hOvId/dTMoOzDjzkTXACrVFlx0LpxD60x28MQMvk89W0VMghO7
pUcxsAabcRS2kMSWOR1+v/4N51681TKS8j50cBjscx45y9GS8B7oH6wI9PpRojZa
2uXJ+zULaEeTHpMinn5hqy6OBHtHHaQPb4xsB/6ThjsaNoI4WW6/qxIleczKpEjB
bvVGqKrxCTwbZIWsTWrP8l09
-----END CERTIFICATE-----
