Certificate:
    Data:
        Version: 3 (0x2)
        Serial Number: 94 (0x5e)
        Signature Algorithm: sha256WithRSAEncryption
        Issuer: C=CA, O=SELF, OU=SELF, CN=SELF IDENTITY CA
        Validity
            Not Before: Sep  9 14:38:19 2024 GMT
            Not After : Aug 16 14:38:19 2124 GMT
        Subject: C=CA, O=mbed TLS, CN=Cert
        Subject Public Key Info:
            Public Key Algorithm: rsaEncryption
                Public-Key: (2048 bit)
                Modulus:
                    00:d5:54:92:fe:02:b2:df:32:21:5b:2c:f2:31:f2:
                    1d:2b:70:04:d7:50:a5:86:48:ed:ee:56:72:0e:5d:
                    17:89:a5:d8:7b:f5:a5:53:9c:84:46:6c:d3:9d:d5:
                    0b:8f:cc:63:9b:67:27:3e:19:46:34:2c:43:bd:97:
                    00:fd:48:ab:58:5a:1f:4d:7c:87:0e:df:ea:63:f9:
                    53:ee:ce:92:48:26:2c:fe:67:92:64:2e:e9:d1:f7:
                    9f:b7:e7:40:87:cb:36:cb:e5:79:28:19:13:60:9c:
                    b9:97:b3:ae:c9:fb:04:1a:4d:16:7f:f8:dc:43:ef:
                    5b:ed:87:e4:dd:a2:33:10:ef:e9:da:30:d5:c7:f4:
                    c6:1c:d3:19:79:ba:fb:b1:67:3b:3d:60:05:33:72:
                    4a:a9:6b:94:8e:ad:8b:e9:2d:67:8b:a1:b6:64:17:
                    cf:fe:e9:61:72:50:90:74:38:96:93:b2:2e:d8:b5:
                    a0:a6:b3:6f:c2:fe:26:ae:fe:40:3b:aa:0a:44:3d:
                    28:f4:b4:00:65:b8:8b:53:c3:a1:81:4c:f8:69:af:
                    19:0a:37:af:32:44:6a:d4:5e:fe:cd:d1:a6:33:7d:
                    d0:1f:2a:4e:d5:c3:b4:99:09:65:14:b8:9d:4f:b5:
                    6c:92:1f:27:d5:69:41:1e:57:23:dc:61:a2:eb:f8:
                    69:97
                Exponent: 65537 (0x10001)
        X509v3 extensions:
            X509v3 Subject Key Identifier: 
                F9:6A:A4:AE:0B:C2:82:45:DD:38:2F:9C:DB:B1:D3:CB:46:36:81:18
            X509v3 Authority Key Identifier: 
                97:6E:F5:B1:38:A0:FA:55:28:0D:D5:CC:E2:C3:41:F9:6F:F7:2E:57
            X509v3 Basic Constraints: 
                CA:FALSE
            X509v3 Key Usage: 
                Digital Signature, Key Encipherment
            Netscape Cert Type: 
                ...
    Signature Algorithm: sha256WithRSAEncryption
    Signature Value:
        02:3f:8a:54:91:75:0c:59:a9:6e:94:26:1b:a3:1d:f8:81:94:
        d3:78:b6:57:2e:a2:79:d0:3b:b9:67:65:9e:46:e7:09:f7:52:
        5f:23:67:6a:b5:6e:d9:47:e5:42:ac:c3:2a:8d:20:8d:22:49:
        bf:d2:5c:a3:a8:d5:8c:2c:2c:e7:f0:15:62:90:cd:a7:12:bf:
        a9:32:b2:e7:ab:e1:f1:4f:24:14:7f:da:c1:d5:28:f3:42:a5:
        88:0b:a5:17:11:a2:da:18:52:14:9b:72:43:59:15:2b:f9:22:
        2e:cb:01:06:d2:ac:35:3f:1d:6d:ff:46:b9:5f:80:00:16:57:
        8f:bf:a1:e5:04:02:bf:2c:72:3a:f6:81:8d:7a:73:82:c3:95:
        ce:d9:51:4c:3f:38:fb:8c:9f:d3:9d:10:0d:30:8c:25:c5:d8:
        96:0d:fa:fe:fa:68:cb:4d:8c:8b:33:05:1c:ab:bb:9c:f9:b4:
        b6:9f:5e:ae:4c:ad:e1:ac:cf:46:c0:9d:f1:20:e3:66:61:8e:
        b5:a8:e0:dc:35:47:7e:64:5a:f2:9b:66:dd:76:c4:7d:9b:7d:
        9c:4a:1c:8a:20:52:00:46:5d:b6:a1:f9:26:4a:7b:87:a1:79:
        64:29:dc:9c:ac:ec:09:f5:8a:40:29:c4:7f:90:53:60:8b:b0:
        8d:c4:0a:dd:58:39:9d:bc:60:40:2c:cb:87:85:c0:24:78:90:
        c6:70:fb:23:7d:5c:70:62:94:be:9f:99:57:da:ee:c7:9a:6c:
        49:c8:37:ae:41:78:bb:da:10:be:7a:34:01:07:46:4c:5f:af:
        27:64:71:d0:5b:14:10:38:f1:c0:22:fd:97:5a:75:03:7b:67:
        62:6f:a6:10:dd:60:6e:56:13:e0:d6:f9:61:66:22:52:7f:81:
        c6:c1:c5:d2:8f:12:45:2e:44:6b:80:45:cf:b6:45:83:ab:9b:
        49:37:02:d4:11:f4:7c:e5:01:e8:f8:5e:c1:f6:d2:e4:d4:67:
        f4:82:ca:77:52:a0:49:e9:8f:8f:c0:8d:29:7f:08:04:ce:62:
        a3:08:a7:58:22:09:1b:51:9a:f7:00:54:4f:db:19:0d:f6:b7:
        08:d8:cd:17:c1:d0:4e:81:d9:1d:6d:c7:7e:50:56:25:c3:a3:
        4e:47:a3:d1:59:14:94:d9:fd:bc:79:16:f9:ba:1d:36:ec:76:
        3e:7d:ac:b5:ef:d2:b3:86:96:f3:03:6f:c1:8b:24:94:ac:ad:
        e0:6d:2f:47:bf:43:68:d9:16:d7:5a:1f:c6:3c:6c:74:35:25:
        e4:47:5c:b0:8d:ff:91:8a:7e:de:25:6f:8b:46:2e:f0:c2:bd:
        d5:fb:24:c8:d3:b9:a4:e0
-----BEGIN CERTIFICATE-----
MIIEXjCCAkagAwIBAgIBXjANBgkqhkiG9w0BAQsFADBGMQswCQYDVQQGEwJDQTEN
MAsGA1UECgwEU0VMRjENMAsGA1UECwwEU0VMRjEZMBcGA1UEAwwQU0VMRiBJREVO
VElUWSBDQTAgFw0yNDA5MDkxNDM4MTlaGA8yMTI0MDgxNjE0MzgxOVowLzELMAkG
A1UEBhMCQ0ExETAPBgNVBAoMCG1iZWQgVExTMQ0wCwYDVQQDDARDZXJ0MIIBIjAN
BgkqhkiG9w0BAQEFAAOCAQ8AMIIBCgKCAQEA1VSS/gKy3zIhWyzyMfIdK3AE11Cl
hkjt7lZyDl0XiaXYe/WlU5yERmzTndULj8xjm2cnPhlGNCxDvZcA/UirWFofTXyH
Dt/qY/lT7s6SSCYs/meSZC7p0feft+dAh8s2y+V5KBkTYJy5l7OuyfsEGk0Wf/jc
Q+9b7Yfk3aIzEO/p2jDVx/TGHNMZebr7sWc7PWAFM3JKqWuUjq2L6S1ni6G2ZBfP
/ulhclCQdDiWk7Iu2LWgprNvwv4mrv5AO6oKRD0o9LQAZbiLU8OhgUz4aa8ZCjev
MkRq1F7+zdGmM33QHypO1cO0mQllFLidT7Vskh8n1WlBHlcj3GGi6/hplwIDAQAB
o2wwajAdBgNVHQ4EFgQU+WqkrgvCgkXdOC+c27HTy0Y2gRgwHwYDVR0jBBgwFoAU
l271sTig+lUoDdXM4sNB+W/3LlcwCQYDVR0TBAIwADALBgNVHQ8EBAMCBaAwEAYJ
YIZIAYb4QgEBBAMDAQAwDQYJKoZIhvcNAQELBQADggIBAAI/ilSRdQxZqW6UJhuj
HfiBlNN4tlcuonnQO7lnZZ5G5wn3Ul8jZ2q1btlH5UKswyqNII0iSb/SXKOo1Yws
LOfwFWKQzacSv6kysuer4fFPJBR/2sHVKPNCpYgLpRcRotoYUhSbckNZFSv5Ii7L
AQbSrDU/HW3/RrlfgAAWV4+/oeUEAr8scjr2gY16c4LDlc7ZUUw/OPuMn9OdEA0w
jCXF2JYN+v76aMtNjIszBRyru5z5tLafXq5MreGsz0bAnfEg42ZhjrWo4Nw1R35k
WvKbZt12xH2bfZxKHIogUgBGXbah+SZKe4eheWQp3Jys7An1ikApxH+QU2CLsI3E
Ct1YOZ28YEAsy4eFwCR4kMZw+yN9XHBilL6fmVfa7seabEnIN65BeLvaEL56NAEH
RkxfrydkcdBbFBA48cAi/ZdadQN7Z2JvphDdYG5WE+DW+WFmIlJ/gcbBxdKPEkUu
RGuARc+2RYOrm0k3AtQR9HzlAej4XsH20uTUZ/SCyndSoEnpj4/AjSl/CATOYqMI
p1giCRtRmvcAVE/bGQ32twjYzRfB0E6B2R1tx35QViXDo05Ho9FZFJTZ/bx5Fvm6
HTbsdj59rLXv0rOGlvMDb8GLJJSsreBtL0e/Q2jZFtdaH8Y8bHQ1JeRHXLCN/5GK
ft4lb4tGLvDCvdX7JMjTuaTg
-----END CERTIFICATE-----
