Certificate:
    Data:
        Version: 3 (0x2)
        Serial Number: 95 (0x5f)
        Signature Algorithm: sha256WithRSAEncryption
        Issuer: C=CA, O=SELF, OU=SELF, CN=SELF IDENTITY CA
        Validity
            Not Before: Sep  9 14:47:25 2024 GMT
            Not After : Aug 16 14:47:25 2124 GMT
        Subject: C=CA, O=mbed TLS, CN=Cert
        Subject Public Key Info:
            Public Key Algorithm: rsaEncryption
                Public-Key: (2048 bit)
                Modulus:
                    00:d5:54:92:fe:02:b2:df:32:21:5b:2c:f2:31:f2:
                    1d:2b:70:04:d7:50:a5:86:48:ed:ee:56:72:0e:5d:
                    17:89:a5:d8:7b:f5:a5:53:9c:84:46:6c:d3:9d:d5:
                    0b:8f:cc:63:9b:67:27:3e:19:46:34:2c:43:bd:97:
                    00:fd:48:ab:58:5a:1f:4d:7c:87:0e:df:ea:63:f9:
                    53:ee:ce:92:48:26:2c:fe:67:92:64:2e:e9:d1:f7:
                    9f:b7:e7:40:87:cb:36:cb:e5:79:28:19:13:60:9c:
                    b9:97:b3:ae:c9:fb:04:1a:4d:16:7f:f8:dc:43:ef:
                    5b:ed:87:e4:dd:a2:33:10:ef:e9:da:30:d5:c7:f4:
                    c6:1c:d3:19:79:ba:fb:b1:67:3b:3d:60:05:33:72:
                    4a:a9:6b:94:8e:ad:8b:e9:2d:67:8b:a1:b6:64:17:
                    cf:fe:e9:61:72:50:90:74:38:96:93:b2:2e:d8:b5:
                    a0:a6:b3:6f:c2:fe:26:ae:fe:40:3b:aa:0a:44:3d:
                    28:f4:b4:00:65:b8:8b:53:c3:a1:81:4c:f8:69:af:
                    19:0a:37:af:32:44:6a:d4:5e:fe:cd:d1:a6:33:7d:
                    d0:1f:2a:4e:d5:c3:b4:99:09:65:14:b8:9d:4f:b5:
                    6c:92:1f:27:d5:69:41:1e:57:23:dc:61:a2:eb:f8:
                    69:97
                Exponent: 65537 (0x10001)
        X509v3 extensions:
            X509v3 Subject Key Identifier: 
                F9:6A:A4:AE:0B:C2:82:45:DD:38:2F:9C:DB:B1:D3:CB:46:36:81:18
            X509v3 Authority Key Identifier: 
                97:6E:F5:B1:38:A0:FA:55:28:0D:D5:CC:E2:C3:41:F9:6F:F7:2E:57
            X509v3 Basic Constraints: 
                CA:FALSE
            X509v3 Key Usage: 
                Digital Signature, Key Encipherment
            Netscape Cert Type: 
                ...
    Signature Algorithm: sha256WithRSAEncryption
    Signature Value:
        03:3f:a9:be:52:3a:24:2c:c9:86:26:b5:3b:bf:d3:09:64:af:
        8a:8b:7e:e8:75:4a:39:3f:37:ac:0d:46:d2:5f:c4:40:bd:79:
        30:20:14:6d:2f:d7:b3:f8:14:dc:08:f2:af:21:79:31:58:5f:
        3f:b9:52:31:8e:f9:ea:80:6d:34:91:65:26:12:cb:35:41:0d:
        db:db:da:40:94:6b:e5:89:50:fc:e8:63:81:c9:2a:8e:be:fe:
        94:1e:03:2a:83:48:bc:7c:b7:93:07:d4:08:fc:35:ee:d9:65:
        2b:c8:89:01:0a:7d:55:7b:4b:c4:ef:96:8f:23:06:f3:e7:3c:
        49:91:40:1d:34:ca:db:6d:54:f5:23:6b:0b:70:fa:3a:bb:93:
        29:4b:be:2b:69:91:b7:ff:0c:cf:cc:7a:1b:bf:db:0c:f0:3b:
        9c:29:70:4f:b4:e3:10:c4:e5:83:a4:35:f0:9e:78:03:97:33:
        14:a9:96:26:d3:f0:15:79:46:82:4c:7b:e3:d6:94:ff:ae:9d:
        5a:e3:52:32:c6:c5:f5:a5:25:ca:2e:9b:10:34:2a:02:02:d9:
        5b:24:37:04:7e:85:f2:ef:87:fa:c9:7c:05:cd:8c:74:3b:e0:
        4a:52:bf:a4:62:af:ff:02:a3:69:17:2a:40:8e:ec:c6:c3:73:
        20:93:1f:5d:0b:d2:10:42:a2:6d:6b:99:99:88:f5:bb:6b:e2:
        ca:2a:5c:3e:4c:38:a9:5f:5b:48:21:2d:f0:8a:d2:c0:f4:6d:
        db:b9:44:ea:61:13:6d:ff:e6:05:e4:60:2c:30:87:81:bb:11:
        fd:fd:c0:69:34:5d:ec:45:33:1f:af:d8:df:8b:36:68:9e:79:
        93:5c:c3:08:97:42:21:52:5b:43:d0:f7:ba:ef:38:03:0f:57:
        20:12:90:0b:18:71:27:24:44:4d:bc:ee:f3:2a:1e:f5:60:72:
        ee:8f:33:19:81:0f:ce:0d:40:d3:1e:b1:6b:ed:dc:57:77:e9:
        db:90:83:e5:34:2f:e0:a9:87:1d:e6:0d:bd:4a:84:70:c1:55:
        90:31:dd:44:40:3e:70:c9:60:6d:6e:24:6c:7b:d9:88:e8:b5:
        1b:0c:e5:ca:bb:f6:aa:84:d2:6c:5a:1b:e9:44:42:7f:7b:8c:
        14:c3:4b:64:c2:1a:bc:c7:12:dc:11:77:98:e4:ca:ad:00:45:
        18:4b:ae:70:82:00:fc:20:3e:40:b1:16:f0:b0:77:47:e8:ce:
        53:df:01:20:8d:98:0c:de:00:da:ef:57:dd:98:41:34:a0:27:
        1a:30:69:4e:8d:8a:09:f7:3b:db:19:53:5d:f6:f0:88:4b:dd:
        40:97:7b:80:dc:32:2e:52
-----BEGIN CERTIFICATE-----
MIIEXjCCAkagAwIBAgIBXzANBgkqhkiG9w0BAQsFADBGMQswCQYDVQQGEwJDQTEN
MAsGA1UECgwEU0VMRjENMAsGA1UECwwEU0VMRjEZMBcGA1UEAwwQU0VMRiBJREVO
VElUWSBDQTAgFw0yNDA5MDkxNDQ3MjVaGA8yMTI0MDgxNjE0NDcyNVowLzELMAkG
A1UEBhMCQ0ExETAPBgNVBAoMCG1iZWQgVExTMQ0wCwYDVQQDDARDZXJ0MIIBIjAN
BgkqhkiG9w0BAQEFAAOCAQ8AMIIBCgKCAQEA1VSS/gKy3zIhWyzyMfIdK3AE11Cl
hkjt7lZyDl0XiaXYe/WlU5yERmzTndULj8xjm2cnPhlGNCxDvZcA/UirWFofTXyH
Dt/qY/lT7s6SSCYs/meSZC7p0feft+dAh8s2y+V5KBkTYJy5l7OuyfsEGk0Wf/jc
Q+9b7Yfk3aIzEO/p2jDVx/TGHNMZebr7sWc7PWAFM3JKqWuUjq2L6S1ni6G2ZBfP
/ulhclCQdDiWk7Iu2LWgprNvwv4mrv5AO6oKRD0o9LQAZbiLU8OhgUz4aa8ZCjev
MkRq1F7+zdGmM33QHypO1cO0mQllFLidT7Vskh8n1WlBHlcj3GGi6/hplwIDAQAB
o2wwajAdBgNVHQ4EFgQU+WqkrgvCgkXdOC+c27HTy0Y2gRgwHwYDVR0jBBgwFoAU
l271sTig+lUoDdXM4sNB+W/3LlcwCQYDVR0TBAIwADALBgNVHQ8EBAMCBaAwEAYJ
YIZIAYb4QgEBBAMDAQAwDQYJKoZIhvcNAQELBQADggIBAAM/qb5SOiQsyYYmtTu/
0wlkr4qLfuh1Sjk/N6wNRtJfxEC9eTAgFG0v17P4FNwI8q8heTFYXz+5UjGO+eqA
bTSRZSYSyzVBDdvb2kCUa+WJUPzoY4HJKo6+/pQeAyqDSLx8t5MH1Aj8Ne7ZZSvI
iQEKfVV7S8Tvlo8jBvPnPEmRQB00ytttVPUjawtw+jq7kylLvitpkbf/DM/Mehu/
2wzwO5wpcE+04xDE5YOkNfCeeAOXMxSplibT8BV5RoJMe+PWlP+unVrjUjLGxfWl
JcoumxA0KgIC2VskNwR+hfLvh/rJfAXNjHQ74EpSv6Rir/8Co2kXKkCO7MbDcyCT
H10L0hBCom1rmZmI9btr4soqXD5MOKlfW0ghLfCK0sD0bdu5ROphE23/5gXkYCww
h4G7Ef39wGk0XexFMx+v2N+LNmieeZNcwwiXQiFSW0PQ97rvOAMPVyASkAsYcSck
RE287vMqHvVgcu6PMxmBD84NQNMesWvt3Fd36duQg+U0L+Cphx3mDb1KhHDBVZAx
3URAPnDJYG1uJGx72YjotRsM5cq79qqE0mxaG+lEQn97jBTDS2TCGrzHEtwRd5jk
yq0ARRhLrnCCAPwgPkCxFvCwd0fozlPfASCNmAzeANrvV92YQTSgJxowaU6Nign3
O9sZU1328IhL3UCXe4DcMi5S
-----END CERTIFICATE-----
