Certificate:
    Data:
        Version: 3 (0x2)
        Serial Number: 96 (0x60)
        Signature Algorithm: sha256WithRSAEncryption
        Issuer: C=CA, O=SELF, OU=SELF, CN=SELF IDENTITY CA
        Validity
            Not Before: Sep  9 14:59:01 2024 GMT
            Not After : Aug 16 14:59:01 2124 GMT
        Subject: C=CA, O=mbed TLS, CN=Cert
        Subject Public Key Info:
            Public Key Algorithm: rsaEncryption
                Public-Key: (2048 bit)
                Modulus:
                    00:d5:54:92:fe:02:b2:df:32:21:5b:2c:f2:31:f2:
                    1d:2b:70:04:d7:50:a5:86:48:ed:ee:56:72:0e:5d:
                    17:89:a5:d8:7b:f5:a5:53:9c:84:46:6c:d3:9d:d5:
                    0b:8f:cc:63:9b:67:27:3e:19:46:34:2c:43:bd:97:
                    00:fd:48:ab:58:5a:1f:4d:7c:87:0e:df:ea:63:f9:
                    53:ee:ce:92:48:26:2c:fe:67:92:64:2e:e9:d1:f7:
                    9f:b7:e7:40:87:cb:36:cb:e5:79:28:19:13:60:9c:
                    b9:97:b3:ae:c9:fb:04:1a:4d:16:7f:f8:dc:43:ef:
                    5b:ed:87:e4:dd:a2:33:10:ef:e9:da:30:d5:c7:f4:
                    c6:1c:d3:19:79:ba:fb:b1:67:3b:3d:60:05:33:72:
                    4a:a9:6b:94:8e:ad:8b:e9:2d:67:8b:a1:b6:64:17:
                    cf:fe:e9:61:72:50:90:74:38:96:93:b2:2e:d8:b5:
                    a0:a6:b3:6f:c2:fe:26:ae:fe:40:3b:aa:0a:44:3d:
                    28:f4:b4:00:65:b8:8b:53:c3:a1:81:4c:f8:69:af:
                    19:0a:37:af:32:44:6a:d4:5e:fe:cd:d1:a6:33:7d:
                    d0:1f:2a:4e:d5:c3:b4:99:09:65:14:b8:9d:4f:b5:
                    6c:92:1f:27:d5:69:41:1e:57:23:dc:61:a2:eb:f8:
                    69:97
                Exponent: 65537 (0x10001)
        X509v3 extensions:
            X509v3 Subject Key Identifier: 
                F9:6A:A4:AE:0B:C2:82:45:DD:38:2F:9C:DB:B1:D3:CB:46:36:81:18
            X509v3 Authority Key Identifier: 
                97:6E:F5:B1:38:A0:FA:55:28:0D:D5:CC:E2:C3:41:F9:6F:F7:2E:57
            X509v3 Basic Constraints: 
                CA:FALSE
            X509v3 Key Usage: 
                Digital Signature, Key Encipherment
            Netscape Cert Type: 
                ...
    Signature Algorithm: sha256WithRSAEncryption
    Signature Value:
        2b:59:0d:8e:51:5d:9e:23:39:59:26:67:e0:37:e8:31:da:05:
        99:51:45:36:84:2b:32:8a:dc:fc:c2:4f:a7:8f:cd:be:8b:99:
        57:ce:ca:50:51:b9:3a:4c:54:76:14:a5:c0:b9:a5:4d:fd:25:
        bd:c5:62:46:06:f6:90:07:76:1f:fa:d7:08:15:03:99:23:1c:
        25:20:85:e4:71:1e:b6:6f:17:5d:54:ce:2b:bb:8f:80:ea:b0:
        a8:a4:04:7d:cf:92:94:c6:97:f8:4e:6a:82:19:fb:ac:ee:84:
        3d:34:b1:5b:90:03:f4:ae:92:c7:99:3c:f2:7b:e3:22:cc:6e:
        8f:fd:f1:2c:c7:7d:85:f6:26:0c:8b:fc:77:a2:e6:2e:a6:09:
        fa:13:97:15:06:f1:4e:0c:73:3e:d0:51:4a:23:fc:48:45:00:
        00:ad:9d:b5:32:c7:fb:2c:de:e9:7c:91:3e:08:59:a1:ab:c1:
        5f:68:3b:69:f8:4d:2a:0f:ad:a5:9d:e3:6e:53:5b:70:16:c6:
        7f:c1:36:bd:64:da:74:ed:e4:07:a4:60:a7:c6:2c:d9:c3:7e:
        ab:40:3a:5e:a6:0d:d5:75:da:a0:0c:d8:a6:0d:e1:37:95:4d:
        b1:ff:80:d0:3c:49:ab:2f:4b:7d:d4:4d:19:af:0b:6a:ae:fa:
        71:de:32:5a:b4:c9:16:a1:cf:2c:b0:a3:d4:68:f8:79:fa:41:
        64:7e:6e:1c:fb:56:a1:25:f5:fb:e4:bb:ed:38:54:2d:a6:b5:
        9f:e4:53:ae:db:67:03:28:d8:35:cf:55:89:88:4c:cc:a4:4d:
        cc:06:5e:b5:30:0d:52:a3:fa:65:53:16:92:0a:21:dd:c7:e2:
        a8:1a:3f:f3:17:4c:e8:e6:31:8d:9b:14:39:89:d2:12:0c:51:
        e2:a0:61:76:c9:bf:3e:38:3f:f5:72:39:83:eb:b9:32:aa:94:
        a5:de:5e:11:bf:f1:7f:e1:4c:14:58:db:42:2c:7a:15:f6:96:
        42:0c:8d:df:56:32:65:2e:f7:5c:5f:95:25:72:28:c8:09:7b:
        73:3c:5e:02:95:5a:c4:85:dc:29:51:68:5a:78:50:1a:43:4e:
        aa:11:de:b1:eb:de:43:91:89:0c:3b:7f:86:cd:23:1f:f6:d4:
        9c:dd:cf:0f:44:ef:bd:18:98:70:0e:da:5d:97:4b:94:c3:e5:
        ab:f4:13:ef:72:f0:bc:2b:a7:39:04:28:05:66:9d:c6:d8:97:
        8b:7b:7e:ff:d4:c1:13:0b:d4:bd:4e:ed:4b:ae:f1:be:86:4c:
        81:1a:93:99:22:07:dd:6e:ef:d7:e7:7f:25:90:1c:fc:02:40:
        88:b9:e6:2a:d2:5f:6c:dc
-----BEGIN CERTIFICATE-----
MIIEXjCCAkagAwIBAgIBYDANBgkqhkiG9w0BAQsFADBGMQswCQYDVQQGEwJDQTEN
MAsGA1UECgwEU0VMRjENMAsGA1UECwwEU0VMRjEZMBcGA1UEAwwQU0VMRiBJREVO
VElUWSBDQTAgFw0yNDA5MDkxNDU5MDFaGA8yMTI0MDgxNjE0NTkwMVowLzELMAkG
A1UEBhMCQ0ExETAPBgNVBAoMCG1iZWQgVExTMQ0wCwYDVQQDDARDZXJ0MIIBIjAN
BgkqhkiG9w0BAQEFAAOCAQ8AMIIBCgKCAQEA1VSS/gKy3zIhWyzyMfIdK3AE11Cl
hkjt7lZyDl0XiaXYe/WlU5yERmzTndULj8xjm2cnPhlGNCxDvZcA/UirWFofTXyH
Dt/qY/lT7s6SSCYs/meSZC7p0feft+dAh8s2y+V5KBkTYJy5l7OuyfsEGk0Wf/jc
Q+9b7Yfk3aIzEO/p2jDVx/TGHNMZebr7sWc7PWAFM3JKqWuUjq2L6S1ni6G2ZBfP
/ulhclCQdDiWk7Iu2LWgprNvwv4mrv5AO6oKRD0o9LQAZbiLU8OhgUz4aa8ZCjev
MkRq1F7+zdGmM33QHypO1cO0mQllFLidT7Vskh8n1WlBHlcj3GGi6/hplwIDAQAB
o2wwajAdBgNVHQ4EFgQU+WqkrgvCgkXdOC+c27HTy0Y2gRgwHwYDVR0jBBgwFoAU
l271sTig+lUoDdXM4sNB+W/3LlcwCQYDVR0TBAIwADALBgNVHQ8EBAMCBaAwEAYJ
YIZIAYb4QgEBBAMDAQAwDQYJKoZIhvcNAQELBQADggIBACtZDY5RXZ4jOVkmZ+A3
6DHaBZlRRTaEKzKK3PzCT6ePzb6LmVfOylBRuTpMVHYUpcC5pU39Jb3FYkYG9pAH
dh/61wgVA5kjHCUgheRxHrZvF11Uziu7j4DqsKikBH3PkpTGl/hOaoIZ+6zuhD00
sVuQA/SukseZPPJ74yLMbo/98SzHfYX2JgyL/Hei5i6mCfoTlxUG8U4Mcz7QUUoj
/EhFAACtnbUyx/ss3ul8kT4IWaGrwV9oO2n4TSoPraWd425TW3AWxn/BNr1k2nTt
5AekYKfGLNnDfqtAOl6mDdV12qAM2KYN4TeVTbH/gNA8SasvS33UTRmvC2qu+nHe
Mlq0yRahzyywo9Ro+Hn6QWR+bhz7VqEl9fvku+04VC2mtZ/kU67bZwMo2DXPVYmI
TMykTcwGXrUwDVKj+mVTFpIKId3H4qgaP/MXTOjmMY2bFDmJ0hIMUeKgYXbJvz44
P/VyOYPruTKqlKXeXhG/8X/hTBRY20IsehX2lkIMjd9WMmUu91xflSVyKMgJe3M8
XgKVWsSF3ClRaFp4UBpDTqoR3rHr3kORiQw7f4bNIx/21Jzdzw9E770YmHAO2l2X
S5TD5av0E+9y8LwrpzkEKAVmncbYl4t7fv/UwRML1L1O7Uuu8b6GTIEak5kiB91u
79fnfyWQHPwCQIi55irSX2zc
-----END CERTIFICATE-----
