Certificate:
    Data:
        Version: 3 (0x2)
        Serial Number: 97 (0x61)
        Signature Algorithm: sha256WithRSAEncryption
        Issuer: C=CA, O=SELF, OU=SELF, CN=SELF IDENTITY CA
        Validity
            Not Before: Sep  9 15:01:30 2024 GMT
            Not After : Aug 16 15:01:30 2124 GMT
        Subject: C=CA, O=mbed TLS, CN=Cert
        Subject Public Key Info:
            Public Key Algorithm: rsaEncryption
                Public-Key: (2048 bit)
                Modulus:
                    00:d5:54:92:fe:02:b2:df:32:21:5b:2c:f2:31:f2:
                    1d:2b:70:04:d7:50:a5:86:48:ed:ee:56:72:0e:5d:
                    17:89:a5:d8:7b:f5:a5:53:9c:84:46:6c:d3:9d:d5:
                    0b:8f:cc:63:9b:67:27:3e:19:46:34:2c:43:bd:97:
                    00:fd:48:ab:58:5a:1f:4d:7c:87:0e:df:ea:63:f9:
                    53:ee:ce:92:48:26:2c:fe:67:92:64:2e:e9:d1:f7:
                    9f:b7:e7:40:87:cb:36:cb:e5:79:28:19:13:60:9c:
                    b9:97:b3:ae:c9:fb:04:1a:4d:16:7f:f8:dc:43:ef:
                    5b:ed:87:e4:dd:a2:33:10:ef:e9:da:30:d5:c7:f4:
                    c6:1c:d3:19:79:ba:fb:b1:67:3b:3d:60:05:33:72:
                    4a:a9:6b:94:8e:ad:8b:e9:2d:67:8b:a1:b6:64:17:
                    cf:fe:e9:61:72:50:90:74:38:96:93:b2:2e:d8:b5:
                    a0:a6:b3:6f:c2:fe:26:ae:fe:40:3b:aa:0a:44:3d:
                    28:f4:b4:00:65:b8:8b:53:c3:a1:81:4c:f8:69:af:
                    19:0a:37:af:32:44:6a:d4:5e:fe:cd:d1:a6:33:7d:
                    d0:1f:2a:4e:d5:c3:b4:99:09:65:14:b8:9d:4f:b5:
                    6c:92:1f:27:d5:69:41:1e:57:23:dc:61:a2:eb:f8:
                    69:97
                Exponent: 65537 (0x10001)
        X509v3 extensions:
            X509v3 Subject Key Identifier: 
                F9:6A:A4:AE:0B:C2:82:45:DD:38:2F:9C:DB:B1:D3:CB:46:36:81:18
            X509v3 Authority Key Identifier: 
                97:6E:F5:B1:38:A0:FA:55:28:0D:D5:CC:E2:C3:41:F9:6F:F7:2E:57
            X509v3 Basic Constraints: 
                CA:FALSE
            X509v3 Key Usage: 
                Digital Signature, Key Encipherment
            Netscape Cert Type: 
                ...
    Signature Algorithm: sha256WithRSAEncryption
    Signature Value:
        42:22:93:a8:8f:dd:a7:7f:77:7d:f4:70:af:ac:4a:dd:05:2d:
        41:ca:14:c7:d7:07:b1:58:43:4b:96:63:45:2b:af:c7:cd:99:
        de:38:02:c3:a2:36:e8:2c:4f:ec:2d:1b:16:39:66:28:6f:a4:
        20:76:62:3a:dc:1a:a8:f9:81:0f:34:fb:b0:07:51:18:85:1b:
        d6:e1:04:52:24:f1:7d:fd:6a:88:2e:92:85:df:62:0e:ca:36:
        72:12:3d:1f:54:0c:3e:47:42:50:79:72:55:3a:bd:61:14:21:
        25:41:36:ca:fb:a3:3d:6f:f5:bc:b4:61:0a:41:29:3a:f8:1e:
        6c:55:ba:a0:74:dd:26:22:e2:5a:9e:2d:28:22:46:d7:c7:89:
        c6:db:7a:c3:c0:fa:54:ba:71:38:09:b1:04:bc:41:9f:39:76:
        bf:72:12:bd:1f:94:1b:00:1c:27:3d:82:4c:e8:a5:09:50:27:
        77:77:b1:f9:0c:af:35:f6:eb:22:29:54:fa:b8:74:c7:2b:13:
        d2:8f:a0:4b:9b:31:99:d7:04:ff:3a:51:46:7c:ea:9c:b4:e6:
        f3:91:d3:29:2c:eb:50:a6:eb:5f:39:b1:78:e9:e8:85:95:94:
        e6:26:1b:ab:6f:8b:07:32:42:b8:e4:b0:58:b1:5e:7c:63:d6:
        22:b3:bb:35:c2:e5:a1:2a:8c:55:5a:3a:a2:9c:f0:55:eb:96:
        6a:4c:71:68:0a:3f:36:11:ee:4b:79:46:f7:00:2f:9e:33:b5:
        05:bc:82:a7:5d:aa:65:f8:3e:00:e9:41:38:33:b2:16:2c:78:
        f8:dc:d8:0b:b8:3e:61:f4:45:b1:86:eb:31:97:b2:6f:9e:47:
        7a:2d:21:04:54:8a:e5:3b:0b:88:91:65:98:c2:3b:99:37:7b:
        26:19:20:0c:81:e6:00:d7:f0:1c:4c:99:19:b9:57:3b:a0:9e:
        82:68:b4:4b:8a:88:6f:3a:14:74:ef:c9:1c:d6:89:af:13:27:
        b0:da:5b:0f:1f:c0:5b:97:38:ca:e9:92:dc:7e:a3:39:eb:3b:
        50:1d:bc:be:ea:4d:eb:fc:3b:37:ef:b7:6f:44:54:d8:73:66:
        bc:2c:83:d0:8c:61:73:52:f6:07:8f:a4:71:f8:7e:6c:de:3e:
        8b:ef:fe:d6:cb:10:d2:6a:e6:63:43:22:36:ac:4a:d4:d5:a7:
        7b:26:26:c5:b6:c1:a8:6d:54:56:e8:bd:4f:c3:04:ca:7d:29:
        9f:53:fc:68:32:01:07:fa:a9:ea:4e:de:90:06:1a:4e:c9:6a:
        f0:3e:10:b6:dc:a4:87:79:e1:20:91:ec:3b:17:c8:1d:1d:b5:
        ca:fb:f2:4c:d5:2d:78:35
-----BEGIN CERTIFICATE-----
MIIEXjCCAkagAwIBAgIBYTANBgkqhkiG9w0BAQsFADBGMQswCQYDVQQGEwJDQTEN
MAsGA1UECgwEU0VMRjENMAsGA1UECwwEU0VMRjEZMBcGA1UEAwwQU0VMRiBJREVO
VElUWSBDQTAgFw0yNDA5MDkxNTAxMzBaGA8yMTI0MDgxNjE1MDEzMFowLzELMAkG
A1UEBhMCQ0ExETAPBgNVBAoMCG1iZWQgVExTMQ0wCwYDVQQDDARDZXJ0MIIBIjAN
BgkqhkiG9w0BAQEFAAOCAQ8AMIIBCgKCAQEA1VSS/gKy3zIhWyzyMfIdK3AE11Cl
hkjt7lZyDl0XiaXYe/WlU5yERmzTndULj8xjm2cnPhlGNCxDvZcA/UirWFofTXyH
Dt/qY/lT7s6SSCYs/meSZC7p0feft+dAh8s2y+V5KBkTYJy5l7OuyfsEGk0Wf/jc
Q+9b7Yfk3aIzEO/p2jDVx/TGHNMZebr7sWc7PWAFM3JKqWuUjq2L6S1ni6G2ZBfP
/ulhclCQdDiWk7Iu2LWgprNvwv4mrv5AO6oKRD0o9LQAZbiLU8OhgUz4aa8ZCjev
MkRq1F7+zdGmM33QHypO1cO0mQllFLidT7Vskh8n1WlBHlcj3GGi6/hplwIDAQAB
o2wwajAdBgNVHQ4EFgQU+WqkrgvCgkXdOC+c27HTy0Y2gRgwHwYDVR0jBBgwFoAU
l271sTig+lUoDdXM4sNB+W/3LlcwCQYDVR0TBAIwADALBgNVHQ8EBAMCBaAwEAYJ
YIZIAYb4QgEBBAMDAQAwDQYJKoZIhvcNAQELBQADggIBAEIik6iP3ad/d330cK+s
St0FLUHKFMfXB7FYQ0uWY0Urr8fNmd44AsOiNugsT+wtGxY5ZihvpCB2YjrcGqj5
gQ80+7AHURiFG9bhBFIk8X39aogukoXfYg7KNnISPR9UDD5HQlB5clU6vWEUISVB
Nsr7oz1v9by0YQpBKTr4HmxVuqB03SYi4lqeLSgiRtfHicbbesPA+lS6cTgJsQS8
QZ85dr9yEr0flBsAHCc9gkzopQlQJ3d3sfkMrzX26yIpVPq4dMcrE9KPoEubMZnX
BP86UUZ86py05vOR0yks61Cm6185sXjp6IWVlOYmG6tviwcyQrjksFixXnxj1iKz
uzXC5aEqjFVaOqKc8FXrlmpMcWgKPzYR7kt5RvcAL54ztQW8gqddqmX4PgDpQTgz
shYsePjc2Au4PmH0RbGG6zGXsm+eR3otIQRUiuU7C4iRZZjCO5k3eyYZIAyB5gDX
8BxMmRm5VzugnoJotEuKiG86FHTvyRzWia8TJ7DaWw8fwFuXOMrpktx+oznrO1Ad
vL7qTev8Ozfvt29EVNhzZrwsg9CMYXNS9gePpHH4fmzePovv/tbLENJq5mNDIjas
StTVp3smJsW2wahtVFbovU/DBMp9KZ9T/GgyAQf6qepO3pAGGk7JavA+ELbcpId5
4SCR7DsXyB0dtcr78kzVLXg1
-----END CERTIFICATE-----
