Certificate:
    Data:
        Version: 3 (0x2)
        Serial Number: 98 (0x62)
        Signature Algorithm: sha256WithRSAEncryption
        Issuer: C=CA, O=SELF, OU=SELF, CN=SELF IDENTITY CA
        Validity
            Not Before: Sep  9 15:06:08 2024 GMT
            Not After : Aug 16 15:06:08 2124 GMT
        Subject: C=CA, O=mbed TLS, CN=Cert
        Subject Public Key Info:
            Public Key Algorithm: rsaEncryption
                Public-Key: (2048 bit)
                Modulus:
                    00:d5:54:92:fe:02:b2:df:32:21:5b:2c:f2:31:f2:
                    1d:2b:70:04:d7:50:a5:86:48:ed:ee:56:72:0e:5d:
                    17:89:a5:d8:7b:f5:a5:53:9c:84:46:6c:d3:9d:d5:
                    0b:8f:cc:63:9b:67:27:3e:19:46:34:2c:43:bd:97:
                    00:fd:48:ab:58:5a:1f:4d:7c:87:0e:df:ea:63:f9:
                    53:ee:ce:92:48:26:2c:fe:67:92:64:2e:e9:d1:f7:
                    9f:b7:e7:40:87:cb:36:cb:e5:79:28:19:13:60:9c:
                    b9:97:b3:ae:c9:fb:04:1a:4d:16:7f:f8:dc:43:ef:
                    5b:ed:87:e4:dd:a2:33:10:ef:e9:da:30:d5:c7:f4:
                    c6:1c:d3:19:79:ba:fb:b1:67:3b:3d:60:05:33:72:
                    4a:a9:6b:94:8e:ad:8b:e9:2d:67:8b:a1:b6:64:17:
                    cf:fe:e9:61:72:50:90:74:38:96:93:b2:2e:d8:b5:
                    a0:a6:b3:6f:c2:fe:26:ae:fe:40:3b:aa:0a:44:3d:
                    28:f4:b4:00:65:b8:8b:53:c3:a1:81:4c:f8:69:af:
                    19:0a:37:af:32:44:6a:d4:5e:fe:cd:d1:a6:33:7d:
                    d0:1f:2a:4e:d5:c3:b4:99:09:65:14:b8:9d:4f:b5:
                    6c:92:1f:27:d5:69:41:1e:57:23:dc:61:a2:eb:f8:
                    69:97
                Exponent: 65537 (0x10001)
        X509v3 extensions:
            X509v3 Subject Key Identifier: 
                F9:6A:A4:AE:0B:C2:82:45:DD:38:2F:9C:DB:B1:D3:CB:46:36:81:18
            X509v3 Authority Key Identifier: 
                97:6E:F5:B1:38:A0:FA:55:28:0D:D5:CC:E2:C3:41:F9:6F:F7:2E:57
            X509v3 Basic Constraints: 
                CA:FALSE
            X509v3 Key Usage: 
                Digital Signature, Key Encipherment
            Netscape Cert Type: 
                ...
    Signature Algorithm: sha256WithRSAEncryption
    Signature Value:
        6c:8d:44:ea:ff:3e:d3:e9:1c:fa:d6:f0:e9:6d:84:0d:b4:52:
        6a:f1:11:18:84:0e:40:e2:18:2b:0f:66:11:3d:4e:98:cc:39:
        c0:f3:08:24:56:a6:fa:33:9e:cd:aa:78:5b:83:ac:08:f3:c0:
        65:a1:c3:ac:b6:72:3f:a1:b0:84:e8:a0:21:2b:01:94:6c:bd:
        1d:f7:25:50:05:fc:ba:79:7c:65:cb:82:1d:7f:3c:9d:7e:45:
        1a:77:36:0d:59:ae:70:36:37:11:ae:13:39:91:b2:84:b6:f7:
        a8:d0:09:66:09:fb:dc:d2:29:e2:b4:4f:62:37:74:a8:b8:9f:
        83:67:fb:c0:65:1f:ee:b1:43:f0:46:f4:41:74:48:46:a1:c8:
        e4:c3:b9:8f:ce:08:40:81:7f:d1:9d:e1:21:c5:18:43:9b:07:
        c5:4e:0c:c2:8c:a6:c1:4e:da:55:9d:23:30:70:72:45:a0:a6:
        64:98:aa:3e:48:89:9e:c4:9e:c3:ea:8d:01:76:52:86:92:08:
        8a:51:b4:4a:11:fe:be:27:3b:45:cf:d6:f2:a7:8a:13:d2:c3:
        39:dc:ce:7d:72:51:05:40:25:b3:9e:56:a2:b5:9e:a4:e5:91:
        65:f0:4c:33:39:41:57:30:88:65:0c:7b:b7:28:24:30:af:6b:
        c5:71:b5:1d:a6:f2:9d:f9:9d:ce:85:e3:f4:d5:4b:17:b3:4c:
        d7:3a:d2:c9:4f:8e:c3:a7:ce:f8:b1:1d:44:4c:00:1d:ac:65:
        59:bb:8c:f5:49:82:87:c1:29:82:f8:f3:be:bc:21:36:a3:9b:
        2c:fa:dd:f2:a9:4a:6f:27:22:9a:15:53:35:db:20:34:cf:5b:
        1d:61:aa:74:63:b9:00:c7:de:f8:f7:d0:6f:5a:a0:c9:08:fc:
        d1:58:e0:ae:47:0d:1c:4f:d4:58:ce:51:d0:8a:92:7d:77:5a:
        e9:ee:4a:7f:a0:9c:c9:f7:45:49:09:ce:61:11:dc:2e:5d:4b:
        b7:71:e2:d9:76:d9:0c:44:9d:93:d6:24:00:4e:8b:81:d4:65:
        49:42:21:5f:82:e6:dd:84:58:31:9a:02:49:67:45:3b:7f:40:
        17:e8:5a:ff:8e:60:b9:c3:a8:1b:53:28:3b:e6:91:10:f4:67:
        10:34:f7:f0:ad:c5:20:54:e3:f4:8f:d3:69:14:a3:f8:c9:ab:
        c3:7a:9a:46:81:02:8e:4a:7a:d3:51:b0:64:ee:35:52:c0:e3:
        22:28:ee:5e:4d:44:6f:66:71:67:e1:48:e5:45:5a:91:4d:ed:
        3f:33:77:7d:c9:7a:4d:a1:bd:ca:5e:14:27:87:6b:ec:5c:22:
        11:99:7f:80:5a:0c:1d:f0
-----BEGIN CERTIFICATE-----
MIIEXjCCAkagAwIBAgIBYjANBgkqhkiG9w0BAQsFADBGMQswCQYDVQQGEwJDQTEN
MAsGA1UECgwEU0VMRjENMAsGA1UECwwEU0VMRjEZMBcGA1UEAwwQU0VMRiBJREVO
VElUWSBDQTAgFw0yNDA5MDkxNTA2MDhaGA8yMTI0MDgxNjE1MDYwOFowLzELMAkG
A1UEBhMCQ0ExETAPBgNVBAoMCG1iZWQgVExTMQ0wCwYDVQQDDARDZXJ0MIIBIjAN
BgkqhkiG9w0BAQEFAAOCAQ8AMIIBCgKCAQEA1VSS/gKy3zIhWyzyMfIdK3AE11Cl
hkjt7lZyDl0XiaXYe/WlU5yERmzTndULj8xjm2cnPhlGNCxDvZcA/UirWFofTXyH
Dt/qY/lT7s6SSCYs/meSZC7p0feft+dAh8s2y+V5KBkTYJy5l7OuyfsEGk0Wf/jc
Q+9b7Yfk3aIzEO/p2jDVx/TGHNMZebr7sWc7PWAFM3JKqWuUjq2L6S1ni6G2ZBfP
/ulhclCQdDiWk7Iu2LWgprNvwv4mrv5AO6oKRD0o9LQAZbiLU8OhgUz4aa8ZCjev
MkRq1F7+zdGmM33QHypO1cO0mQllFLidT7Vskh8n1WlBHlcj3GGi6/hplwIDAQAB
o2wwajAdBgNVHQ4EFgQU+WqkrgvCgkXdOC+c27HTy0Y2gRgwHwYDVR0jBBgwFoAU
l271sTig+lUoDdXM4sNB+W/3LlcwCQYDVR0TBAIwADALBgNVHQ8EBAMCBaAwEAYJ
YIZIAYb4QgEBBAMDAQAwDQYJKoZIhvcNAQELBQADggIBAGyNROr/PtPpHPrW8Olt
hA20UmrxERiEDkDiGCsPZhE9TpjMOcDzCCRWpvozns2qeFuDrAjzwGWhw6y2cj+h
sITooCErAZRsvR33JVAF/Lp5fGXLgh1/PJ1+RRp3Ng1ZrnA2NxGuEzmRsoS296jQ
CWYJ+9zSKeK0T2I3dKi4n4Nn+8BlH+6xQ/BG9EF0SEahyOTDuY/OCECBf9Gd4SHF
GEObB8VODMKMpsFO2lWdIzBwckWgpmSYqj5IiZ7EnsPqjQF2UoaSCIpRtEoR/r4n
O0XP1vKnihPSwznczn1yUQVAJbOeVqK1nqTlkWXwTDM5QVcwiGUMe7coJDCva8Vx
tR2m8p35nc6F4/TVSxezTNc60slPjsOnzvixHURMAB2sZVm7jPVJgofBKYL48768
ITajmyz63fKpSm8nIpoVUzXbIDTPWx1hqnRjuQDH3vj30G9aoMkI/NFY4K5HDRxP
1FjOUdCKkn13WunuSn+gnMn3RUkJzmER3C5dS7dx4tl22QxEnZPWJABOi4HUZUlC
IV+C5t2EWDGaAklnRTt/QBfoWv+OYLnDqBtTKDvmkRD0ZxA09/CtxSBU4/SP02kU
o/jJq8N6mkaBAo5KetNRsGTuNVLA4yIo7l5NRG9mcWfhSOVFWpFN7T8zd33Jek2h
vcpeFCeHa+xcIhGZf4BaDB3w
-----END CERTIFICATE-----
