Certificate:
    Data:
        Version: 3 (0x2)
        Serial Number: 99 (0x63)
        Signature Algorithm: sha256WithRSAEncryption
        Issuer: C=CA, O=SELF, OU=SELF, CN=SELF IDENTITY CA
        Validity
            Not Before: Sep  9 15:07:51 2024 GMT
            Not After : Aug 16 15:07:51 2124 GMT
        Subject: C=CA, O=mbed TLS, CN=Cert
        Subject Public Key Info:
            Public Key Algorithm: rsaEncryption
                Public-Key: (2048 bit)
                Modulus:
                    00:d5:54:92:fe:02:b2:df:32:21:5b:2c:f2:31:f2:
                    1d:2b:70:04:d7:50:a5:86:48:ed:ee:56:72:0e:5d:
                    17:89:a5:d8:7b:f5:a5:53:9c:84:46:6c:d3:9d:d5:
                    0b:8f:cc:63:9b:67:27:3e:19:46:34:2c:43:bd:97:
                    00:fd:48:ab:58:5a:1f:4d:7c:87:0e:df:ea:63:f9:
                    53:ee:ce:92:48:26:2c:fe:67:92:64:2e:e9:d1:f7:
                    9f:b7:e7:40:87:cb:36:cb:e5:79:28:19:13:60:9c:
                    b9:97:b3:ae:c9:fb:04:1a:4d:16:7f:f8:dc:43:ef:
                    5b:ed:87:e4:dd:a2:33:10:ef:e9:da:30:d5:c7:f4:
                    c6:1c:d3:19:79:ba:fb:b1:67:3b:3d:60:05:33:72:
                    4a:a9:6b:94:8e:ad:8b:e9:2d:67:8b:a1:b6:64:17:
                    cf:fe:e9:61:72:50:90:74:38:96:93:b2:2e:d8:b5:
                    a0:a6:b3:6f:c2:fe:26:ae:fe:40:3b:aa:0a:44:3d:
                    28:f4:b4:00:65:b8:8b:53:c3:a1:81:4c:f8:69:af:
                    19:0a:37:af:32:44:6a:d4:5e:fe:cd:d1:a6:33:7d:
                    d0:1f:2a:4e:d5:c3:b4:99:09:65:14:b8:9d:4f:b5:
                    6c:92:1f:27:d5:69:41:1e:57:23:dc:61:a2:eb:f8:
                    69:97
                Exponent: 65537 (0x10001)
        X509v3 extensions:
            X509v3 Subject Key Identifier: 
                F9:6A:A4:AE:0B:C2:82:45:DD:38:2F:9C:DB:B1:D3:CB:46:36:81:18
            X509v3 Authority Key Identifier: 
                97:6E:F5:B1:38:A0:FA:55:28:0D:D5:CC:E2:C3:41:F9:6F:F7:2E:57
            X509v3 Basic Constraints: 
                CA:FALSE
            X509v3 Key Usage: 
                Digital Signature, Key Encipherment
            Netscape Cert Type: 
                ...
    Signature Algorithm: sha256WithRSAEncryption
    Signature Value:
        8b:a4:39:cd:ee:d9:0e:26:73:65:ee:ab:0e:d6:b9:56:27:19:
        22:f2:11:2d:61:92:0d:da:9a:8e:98:fa:2f:69:9f:de:2b:e4:
        d1:b7:b8:ab:2a:ff:05:1c:2f:05:19:ee:d3:2c:6c:29:ec:c4:
        5b:4a:20:fb:98:1d:62:f9:36:f7:6c:0a:37:ee:10:aa:98:03:
        00:56:55:8e:c1:0f:6e:f8:17:53:b1:c1:03:65:b2:f9:38:e7:
        2c:74:db:02:63:96:a0:ed:80:88:a2:64:36:61:ae:f9:41:8a:
        59:62:43:25:96:f5:cb:41:c4:ea:c8:9c:21:e8:fd:03:11:2c:
        22:55:48:ce:ae:5b:bb:17:f2:f1:7c:4d:3b:8d:70:8e:50:79:
        0d:ed:3d:c2:8d:c3:67:d9:cb:7b:5b:26:5c:a4:0b:87:24:90:
        af:7c:e1:db:93:a6:dc:ab:15:fa:7e:29:34:4c:9e:6e:7a:13:
        b2:64:45:8c:e1:7c:36:7a:3f:67:4c:c6:30:12:0d:a5:48:c6:
        d0:43:99:e9:88:13:a4:28:92:f2:e9:72:88:24:d6:1f:d7:85:
        c1:4a:7c:ce:ee:fe:26:60:a9:e8:fb:11:31:65:64:9e:6c:a9:
        1b:13:66:7a:79:d2:0b:88:e5:e0:06:9c:6b:8f:7e:7f:32:90:
        8c:53:84:f2:22:e1:8e:b0:3c:77:58:51:30:95:d2:65:77:1f:
        82:c2:e1:a1:a7:7f:86:40:4a:62:a1:71:b6:81:4e:60:51:70:
        a8:3e:1f:fa:67:1b:61:9b:3b:50:58:ef:b4:08:c8:34:c5:d1:
        99:2b:41:0b:97:1a:99:fb:55:a2:58:b7:c8:37:48:81:6a:22:
        27:06:a6:2c:48:cb:c4:7b:67:80:35:87:92:0f:f0:1f:23:7e:
        6e:ea:10:c5:a2:ab:a7:8d:e6:d9:31:2f:3f:9a:7b:88:97:40:
        c7:5b:63:bd:cb:42:ef:5b:17:5c:af:84:11:0d:e6:ce:d0:9b:
        bc:24:c2:88:83:38:b0:8a:a2:20:d8:bb:b9:20:20:82:07:48:
        43:81:a4:46:a4:35:01:3c:60:c6:0a:b7:5e:29:d3:6f:de:17:
        4d:7e:58:bc:7c:14:99:ee:0d:f7:79:bd:56:8a:3b:55:90:a4:
        92:80:b8:5d:8b:b5:d4:f6:0c:e1:a3:58:7a:38:7d:ba:c2:cf:
        40:bf:65:6d:e1:79:70:62:9c:73:de:d4:14:2c:ef:a1:19:45:
        4b:a1:80:91:50:9f:c4:31:3e:b5:24:d8:15:5b:9d:72:d9:f2:
        2f:54:aa:0b:89:2a:14:01:d1:8c:91:c2:99:7d:e7:3c:61:b0:
        87:20:78:ec:47:d1:b0:ce
-----BEGIN CERTIFICATE-----
MIIEXjCCAkagAwIBAgIBYzANBgkqhkiG9w0BAQsFADBGMQswCQYDVQQGEwJDQTEN
MAsGA1UECgwEU0VMRjENMAsGA1UECwwEU0VMRjEZMBcGA1UEAwwQU0VMRiBJREVO
VElUWSBDQTAgFw0yNDA5MDkxNTA3NTFaGA8yMTI0MDgxNjE1MDc1MVowLzELMAkG
A1UEBhMCQ0ExETAPBgNVBAoMCG1iZWQgVExTMQ0wCwYDVQQDDARDZXJ0MIIBIjAN
BgkqhkiG9w0BAQEFAAOCAQ8AMIIBCgKCAQEA1VSS/gKy3zIhWyzyMfIdK3AE11Cl
hkjt7lZyDl0XiaXYe/WlU5yERmzTndULj8xjm2cnPhlGNCxDvZcA/UirWFofTXyH
Dt/qY/lT7s6SSCYs/meSZC7p0feft+dAh8s2y+V5KBkTYJy5l7OuyfsEGk0Wf/jc
Q+9b7Yfk3aIzEO/p2jDVx/TGHNMZebr7sWc7PWAFM3JKqWuUjq2L6S1ni6G2ZBfP
/ulhclCQdDiWk7Iu2LWgprNvwv4mrv5AO6oKRD0o9LQAZbiLU8OhgUz4aa8ZCjev
MkRq1F7+zdGmM33QHypO1cO0mQllFLidT7Vskh8n1WlBHlcj3GGi6/hplwIDAQAB
o2wwajAdBgNVHQ4EFgQU+WqkrgvCgkXdOC+c27HTy0Y2gRgwHwYDVR0jBBgwFoAU
l271sTig+lUoDdXM4sNB+W/3LlcwCQYDVR0TBAIwADALBgNVHQ8EBAMCBaAwEAYJ
YIZIAYb4QgEBBAMDAQAwDQYJKoZIhvcNAQELBQADggIBAIukOc3u2Q4mc2Xuqw7W
uVYnGSLyES1hkg3amo6Y+i9pn94r5NG3uKsq/wUcLwUZ7tMsbCnsxFtKIPuYHWL5
NvdsCjfuEKqYAwBWVY7BD274F1OxwQNlsvk45yx02wJjlqDtgIiiZDZhrvlBilli
QyWW9ctBxOrInCHo/QMRLCJVSM6uW7sX8vF8TTuNcI5QeQ3tPcKNw2fZy3tbJlyk
C4ckkK984duTptyrFfp+KTRMnm56E7JkRYzhfDZ6P2dMxjASDaVIxtBDmemIE6Qo
kvLpcogk1h/XhcFKfM7u/iZgqej7ETFlZJ5sqRsTZnp50guI5eAGnGuPfn8ykIxT
hPIi4Y6wPHdYUTCV0mV3H4LC4aGnf4ZASmKhcbaBTmBRcKg+H/pnG2GbO1BY77QI
yDTF0ZkrQQuXGpn7VaJYt8g3SIFqIicGpixIy8R7Z4A1h5IP8B8jfm7qEMWiq6eN
5tkxLz+ae4iXQMdbY73LQu9bF1yvhBEN5s7Qm7wkwoiDOLCKoiDYu7kgIIIHSEOB
pEakNQE8YMYKt14p02/eF01+WLx8FJnuDfd5vVaKO1WQpJKAuF2LtdT2DOGjWHo4
fbrCz0C/ZW3heXBinHPe1BQs76EZRUuhgJFQn8QxPrUk2BVbnXLZ8i9UqguJKhQB
0YyRwpl95zxhsIcgeOxH0bDO
-----END CERTIFICATE-----
