Certificate:
    Data:
        Version: 3 (0x2)
        Serial Number: 100 (0x64)
        Signature Algorithm: sha256WithRSAEncryption
        Issuer: C=CA, O=SELF, OU=SELF, CN=SELF IDENTITY CA
        Validity
            Not Before: Sep  9 15:11:17 2024 GMT
            Not After : Aug 16 15:11:17 2124 GMT
        Subject: C=CA, O=mbed TLS, CN=Cert
        Subject Public Key Info:
            Public Key Algorithm: rsaEncryption
                Public-Key: (2048 bit)
                Modulus:
                    00:d5:54:92:fe:02:b2:df:32:21:5b:2c:f2:31:f2:
                    1d:2b:70:04:d7:50:a5:86:48:ed:ee:56:72:0e:5d:
                    17:89:a5:d8:7b:f5:a5:53:9c:84:46:6c:d3:9d:d5:
                    0b:8f:cc:63:9b:67:27:3e:19:46:34:2c:43:bd:97:
                    00:fd:48:ab:58:5a:1f:4d:7c:87:0e:df:ea:63:f9:
                    53:ee:ce:92:48:26:2c:fe:67:92:64:2e:e9:d1:f7:
                    9f:b7:e7:40:87:cb:36:cb:e5:79:28:19:13:60:9c:
                    b9:97:b3:ae:c9:fb:04:1a:4d:16:7f:f8:dc:43:ef:
                    5b:ed:87:e4:dd:a2:33:10:ef:e9:da:30:d5:c7:f4:
                    c6:1c:d3:19:79:ba:fb:b1:67:3b:3d:60:05:33:72:
                    4a:a9:6b:94:8e:ad:8b:e9:2d:67:8b:a1:b6:64:17:
                    cf:fe:e9:61:72:50:90:74:38:96:93:b2:2e:d8:b5:
                    a0:a6:b3:6f:c2:fe:26:ae:fe:40:3b:aa:0a:44:3d:
                    28:f4:b4:00:65:b8:8b:53:c3:a1:81:4c:f8:69:af:
                    19:0a:37:af:32:44:6a:d4:5e:fe:cd:d1:a6:33:7d:
                    d0:1f:2a:4e:d5:c3:b4:99:09:65:14:b8:9d:4f:b5:
                    6c:92:1f:27:d5:69:41:1e:57:23:dc:61:a2:eb:f8:
                    69:97
                Exponent: 65537 (0x10001)
        X509v3 extensions:
            X509v3 Subject Key Identifier: 
                F9:6A:A4:AE:0B:C2:82:45:DD:38:2F:9C:DB:B1:D3:CB:46:36:81:18
            X509v3 Authority Key Identifier: 
                97:6E:F5:B1:38:A0:FA:55:28:0D:D5:CC:E2:C3:41:F9:6F:F7:2E:57
            X509v3 Basic Constraints: 
                CA:FALSE
            X509v3 Key Usage: 
                Digital Signature, Key Encipherment
            Netscape Cert Type: 
                ...
    Signature Algorithm: sha256WithRSAEncryption
    Signature Value:
        85:f5:f1:78:79:f4:dc:e3:66:30:f1:9b:10:68:0f:a2:4c:28:
        26:a7:4b:0f:5c:06:93:b8:c4:84:b0:92:d5:b4:a8:24:85:3a:
        84:23:5e:ad:7b:0b:4d:ce:a5:df:cf:d1:a9:25:bc:8c:45:62:
        60:45:54:91:fe:f0:e3:d1:61:24:44:3f:08:6e:15:f3:09:a8:
        7c:00:33:51:ac:15:4a:d4:d3:78:6f:d8:d3:b8:35:48:37:a3:
        ee:58:b3:84:1f:c9:23:df:32:96:d3:ad:99:8f:db:4f:5b:3c:
        c3:ad:3e:95:1e:6a:6c:47:c6:49:3c:ef:52:8c:a1:96:b1:39:
        b1:d1:48:fa:5b:ee:39:83:cf:45:c2:5b:49:5a:68:29:cf:6b:
        1c:57:df:12:95:77:f5:08:ff:46:6d:cb:30:02:77:89:08:75:
        d0:85:1e:b7:2b:9c:13:a8:44:69:96:8f:60:6b:e9:46:28:47:
        ec:bc:7a:ad:43:1c:5c:34:60:dc:3c:34:ae:6d:3d:7b:b7:9e:
        61:28:ed:96:5e:49:7f:2a:0f:a8:b9:94:e6:5d:7e:8b:1f:41:
        76:56:92:01:38:6f:e1:77:9f:fa:20:65:0a:d9:4f:36:18:0b:
        d5:10:d7:f5:d7:35:5e:75:43:96:b3:9b:d6:91:1c:b1:59:74:
        d4:3c:11:b8:96:0a:dd:c3:75:45:4e:91:c5:6f:09:dc:a9:58:
        be:c7:c9:65:3d:49:c2:05:4c:f6:bc:8d:79:6f:fd:4e:d5:b7:
        51:59:82:99:81:7d:2e:d9:c1:6f:6d:e5:d2:a0:ab:c5:ce:8f:
        77:23:af:4c:ea:ba:c3:c2:2a:63:90:e6:89:e3:4d:49:de:ef:
        64:65:d7:fb:85:57:95:6d:1d:b9:e9:ec:d1:e4:0a:b7:93:4f:
        2b:b2:a4:5a:65:f2:0f:e8:30:7a:f7:bb:31:dd:25:91:1d:27:
        95:46:5a:de:1a:f1:b1:f0:51:d1:22:db:d1:90:72:d2:a3:24:
        0c:c9:56:f8:46:90:a4:bb:ef:39:c0:7f:dc:38:5b:11:0f:53:
        a2:ef:9e:e5:ae:db:93:c1:bd:86:3f:28:86:4a:23:23:e4:b7:
        58:db:b2:e6:6e:44:8d:0f:b0:6a:4c:d8:d5:fa:44:b0:9e:a6:
        ce:7c:cb:24:bf:e0:60:5b:e0:10:51:05:db:55:48:6c:75:e7:
        c7:c5:ce:50:20:b6:78:1f:59:2d:21:0a:04:0b:8c:fb:6e:ef:
        9c:b4:78:85:26:35:7d:9c:0e:b2:4e:a4:34:48:9d:15:38:9f:
        be:55:c3:f2:5d:93:a7:ab:70:1b:74:b4:ec:44:d0:f8:b0:b6:
        53:6f:33:fa:42:9d:ea:16
-----BEGIN CERTIFICATE-----
MIIEXjCCAkagAwIBAgIBZDANBgkqhkiG9w0BAQsFADBGMQswCQYDVQQGEwJDQTEN
MAsGA1UECgwEU0VMRjENMAsGA1UECwwEU0VMRjEZMBcGA1UEAwwQU0VMRiBJREVO
VElUWSBDQTAgFw0yNDA5MDkxNTExMTdaGA8yMTI0MDgxNjE1MTExN1owLzELMAkG
A1UEBhMCQ0ExETAPBgNVBAoMCG1iZWQgVExTMQ0wCwYDVQQDDARDZXJ0MIIBIjAN
BgkqhkiG9w0BAQEFAAOCAQ8AMIIBCgKCAQEA1VSS/gKy3zIhWyzyMfIdK3AE11Cl
hkjt7lZyDl0XiaXYe/WlU5yERmzTndULj8xjm2cnPhlGNCxDvZcA/UirWFofTXyH
Dt/qY/lT7s6SSCYs/meSZC7p0feft+dAh8s2y+V5KBkTYJy5l7OuyfsEGk0Wf/jc
Q+9b7Yfk3aIzEO/p2jDVx/TGHNMZebr7sWc7PWAFM3JKqWuUjq2L6S1ni6G2ZBfP
/ulhclCQdDiWk7Iu2LWgprNvwv4mrv5AO6oKRD0o9LQAZbiLU8OhgUz4aa8ZCjev
MkRq1F7+zdGmM33QHypO1cO0mQllFLidT7Vskh8n1WlBHlcj3GGi6/hplwIDAQAB
o2wwajAdBgNVHQ4EFgQU+WqkrgvCgkXdOC+c27HTy0Y2gRgwHwYDVR0jBBgwFoAU
l271sTig+lUoDdXM4sNB+W/3LlcwCQYDVR0TBAIwADALBgNVHQ8EBAMCBaAwEAYJ
YIZIAYb4QgEBBAMDAQAwDQYJKoZIhvcNAQELBQADggIBAIX18Xh59NzjZjDxmxBo
D6JMKCanSw9cBpO4xISwktW0qCSFOoQjXq17C03Opd/P0aklvIxFYmBFVJH+8OPR
YSREPwhuFfMJqHwAM1GsFUrU03hv2NO4NUg3o+5Ys4QfySPfMpbTrZmP209bPMOt
PpUeamxHxkk871KMoZaxObHRSPpb7jmDz0XCW0laaCnPaxxX3xKVd/UI/0ZtyzAC
d4kIddCFHrcrnBOoRGmWj2Br6UYoR+y8eq1DHFw0YNw8NK5tPXu3nmEo7ZZeSX8q
D6i5lOZdfosfQXZWkgE4b+F3n/ogZQrZTzYYC9UQ1/XXNV51Q5azm9aRHLFZdNQ8
EbiWCt3DdUVOkcVvCdypWL7HyWU9ScIFTPa8jXlv/U7Vt1FZgpmBfS7ZwW9t5dKg
q8XOj3cjr0zqusPCKmOQ5onjTUne72Rl1/uFV5VtHbnp7NHkCreTTyuypFpl8g/o
MHr3uzHdJZEdJ5VGWt4a8bHwUdEi29GQctKjJAzJVvhGkKS77znAf9w4WxEPU6Lv
nuWu25PBvYY/KIZKIyPkt1jbsuZuRI0PsGpM2NX6RLCeps58yyS/4GBb4BBRBdtV
SGx158fFzlAgtngfWS0hCgQLjPtu75y0eIUmNX2cDrJOpDRInRU4n75Vw/Jdk6er
cBt0tOxE0PiwtlNvM/pCneoW
-----END CERTIFICATE-----
