Certificate:
    Data:
        Version: 3 (0x2)
        Serial Number: 101 (0x65)
        Signature Algorithm: sha256WithRSAEncryption
        Issuer: C=CA, O=SELF, OU=SELF, CN=SELF IDENTITY CA
        Validity
            Not Before: Sep  9 15:14:12 2024 GMT
            Not After : Aug 16 15:14:12 2124 GMT
        Subject: C=CA, O=mbed TLS, CN=Cert
        Subject Public Key Info:
            Public Key Algorithm: rsaEncryption
                Public-Key: (2048 bit)
                Modulus:
                    00:d5:54:92:fe:02:b2:df:32:21:5b:2c:f2:31:f2:
                    1d:2b:70:04:d7:50:a5:86:48:ed:ee:56:72:0e:5d:
                    17:89:a5:d8:7b:f5:a5:53:9c:84:46:6c:d3:9d:d5:
                    0b:8f:cc:63:9b:67:27:3e:19:46:34:2c:43:bd:97:
                    00:fd:48:ab:58:5a:1f:4d:7c:87:0e:df:ea:63:f9:
                    53:ee:ce:92:48:26:2c:fe:67:92:64:2e:e9:d1:f7:
                    9f:b7:e7:40:87:cb:36:cb:e5:79:28:19:13:60:9c:
                    b9:97:b3:ae:c9:fb:04:1a:4d:16:7f:f8:dc:43:ef:
                    5b:ed:87:e4:dd:a2:33:10:ef:e9:da:30:d5:c7:f4:
                    c6:1c:d3:19:79:ba:fb:b1:67:3b:3d:60:05:33:72:
                    4a:a9:6b:94:8e:ad:8b:e9:2d:67:8b:a1:b6:64:17:
                    cf:fe:e9:61:72:50:90:74:38:96:93:b2:2e:d8:b5:
                    a0:a6:b3:6f:c2:fe:26:ae:fe:40:3b:aa:0a:44:3d:
                    28:f4:b4:00:65:b8:8b:53:c3:a1:81:4c:f8:69:af:
                    19:0a:37:af:32:44:6a:d4:5e:fe:cd:d1:a6:33:7d:
                    d0:1f:2a:4e:d5:c3:b4:99:09:65:14:b8:9d:4f:b5:
                    6c:92:1f:27:d5:69:41:1e:57:23:dc:61:a2:eb:f8:
                    69:97
                Exponent: 65537 (0x10001)
        X509v3 extensions:
            X509v3 Subject Key Identifier: 
                F9:6A:A4:AE:0B:C2:82:45:DD:38:2F:9C:DB:B1:D3:CB:46:36:81:18
            X509v3 Authority Key Identifier: 
                97:6E:F5:B1:38:A0:FA:55:28:0D:D5:CC:E2:C3:41:F9:6F:F7:2E:57
            X509v3 Basic Constraints: 
                CA:FALSE
            X509v3 Key Usage: 
                Digital Signature, Key Encipherment
            Netscape Cert Type: 
                ...
    Signature Algorithm: sha256WithRSAEncryption
    Signature Value:
        40:05:64:67:07:b4:94:71:c5:3b:bd:f8:71:98:6b:ab:38:74:
        8e:a9:bc:1a:b5:4b:bb:ab:64:42:d5:78:01:7a:7e:62:76:7e:
        8b:1a:7f:09:82:0f:68:8d:ee:b9:8f:d5:b8:b1:4e:8d:83:22:
        f4:35:5d:d0:e2:e7:09:b6:ae:31:9f:35:da:68:53:b1:a3:8f:
        37:55:10:0c:ea:e0:63:30:ba:6c:ca:b6:4c:d5:5c:8e:4a:b7:
        95:62:5c:4c:ea:83:fa:d5:ba:fa:73:41:ab:53:27:36:a3:79:
        e6:12:74:a9:b5:40:fc:11:2c:a9:24:9f:e6:14:d6:fb:64:c4:
        b2:a9:54:88:58:dc:b5:5b:a0:8d:fb:d4:5d:3f:d8:86:42:fc:
        b7:9c:45:1c:cd:b0:00:ad:0e:82:f3:d7:96:57:8a:5c:13:73:
        71:7d:cd:e3:c4:1f:04:73:c2:38:45:60:d9:c7:c4:df:27:f9:
        17:9d:38:08:35:06:fc:1a:6d:8a:8f:8f:a0:2e:c7:d9:af:be:
        f9:61:d6:0e:97:c9:d0:32:ed:68:57:57:39:99:0d:2c:0e:9a:
        16:1d:21:e4:f8:f4:8e:6f:c2:7f:3a:97:6c:a7:29:79:e5:e2:
        ca:f7:61:26:b2:6a:46:40:5d:2a:aa:d5:1d:2c:84:cd:0b:85:
        25:d6:10:5a:9f:5f:b2:f9:5e:57:e7:e0:b6:da:a0:c4:a3:09:
        da:da:62:fd:2c:4d:a9:8d:68:2c:e5:47:dc:5e:96:63:50:45:
        b8:55:37:c2:21:cd:9e:c1:b2:c4:d3:f3:08:8a:22:a7:27:6b:
        6e:f4:65:8a:ae:83:d4:bb:b1:f5:5d:b2:aa:0d:ef:ee:96:30:
        ee:3c:8a:4e:8f:07:b7:75:ca:da:33:dc:ba:87:8b:5a:06:2f:
        d4:0f:29:a5:76:24:39:0c:90:c0:1d:49:68:37:50:9c:87:dd:
        13:20:d6:25:c2:39:ce:5e:1e:13:94:de:b0:b5:15:25:58:3d:
        1e:1e:f8:23:c9:cc:16:79:c6:fe:8e:08:96:53:7b:43:99:96:
        ed:56:ca:21:9f:59:ad:3f:da:fe:6a:6a:22:c9:0a:81:df:38:
        66:4d:45:0b:18:12:86:f1:b1:0f:e0:ac:d7:be:df:4b:30:36:
        3d:58:ca:e3:ed:b8:61:ed:05:eb:79:87:a3:e0:12:38:08:c0:
        61:cd:0f:0c:17:a0:da:2a:aa:e9:3f:a6:e9:bd:67:d7:69:c7:
        66:85:d2:9a:14:22:8f:38:ae:92:ab:a2:75:b4:bc:96:46:4a:
        8b:1f:4f:b0:01:60:9f:35:06:3a:c5:62:ca:ff:35:57:0b:da:
        ac:35:23:43:6d:9b:e0:de
-----BEGIN CERTIFICATE-----
MIIEXjCCAkagAwIBAgIBZTANBgkqhkiG9w0BAQsFADBGMQswCQYDVQQGEwJDQTEN
MAsGA1UECgwEU0VMRjENMAsGA1UECwwEU0VMRjEZMBcGA1UEAwwQU0VMRiBJREVO
VElUWSBDQTAgFw0yNDA5MDkxNTE0MTJaGA8yMTI0MDgxNjE1MTQxMlowLzELMAkG
A1UEBhMCQ0ExETAPBgNVBAoMCG1iZWQgVExTMQ0wCwYDVQQDDARDZXJ0MIIBIjAN
BgkqhkiG9w0BAQEFAAOCAQ8AMIIBCgKCAQEA1VSS/gKy3zIhWyzyMfIdK3AE11Cl
hkjt7lZyDl0XiaXYe/WlU5yERmzTndULj8xjm2cnPhlGNCxDvZcA/UirWFofTXyH
Dt/qY/lT7s6SSCYs/meSZC7p0feft+dAh8s2y+V5KBkTYJy5l7OuyfsEGk0Wf/jc
Q+9b7Yfk3aIzEO/p2jDVx/TGHNMZebr7sWc7PWAFM3JKqWuUjq2L6S1ni6G2ZBfP
/ulhclCQdDiWk7Iu2LWgprNvwv4mrv5AO6oKRD0o9LQAZbiLU8OhgUz4aa8ZCjev
MkRq1F7+zdGmM33QHypO1cO0mQllFLidT7Vskh8n1WlBHlcj3GGi6/hplwIDAQAB
o2wwajAdBgNVHQ4EFgQU+WqkrgvCgkXdOC+c27HTy0Y2gRgwHwYDVR0jBBgwFoAU
l271sTig+lUoDdXM4sNB+W/3LlcwCQYDVR0TBAIwADALBgNVHQ8EBAMCBaAwEAYJ
YIZIAYb4QgEBBAMDAQAwDQYJKoZIhvcNAQELBQADggIBAEAFZGcHtJRxxTu9+HGY
a6s4dI6pvBq1S7urZELVeAF6fmJ2fosafwmCD2iN7rmP1bixTo2DIvQ1XdDi5wm2
rjGfNdpoU7GjjzdVEAzq4GMwumzKtkzVXI5Kt5ViXEzqg/rVuvpzQatTJzajeeYS
dKm1QPwRLKkkn+YU1vtkxLKpVIhY3LVboI371F0/2IZC/LecRRzNsACtDoLz15ZX
ilwTc3F9zePEHwRzwjhFYNnHxN8n+RedOAg1BvwabYqPj6Aux9mvvvlh1g6XydAy
7WhXVzmZDSwOmhYdIeT49I5vwn86l2ynKXnl4sr3YSayakZAXSqq1R0shM0LhSXW
EFqfX7L5Xlfn4LbaoMSjCdraYv0sTamNaCzlR9xelmNQRbhVN8IhzZ7BssTT8wiK
Iqcna270ZYqug9S7sfVdsqoN7+6WMO48ik6PB7d1ytoz3LqHi1oGL9QPKaV2JDkM
kMAdSWg3UJyH3RMg1iXCOc5eHhOU3rC1FSVYPR4e+CPJzBZ5xv6OCJZTe0OZlu1W
yiGfWa0/2v5qaiLJCoHfOGZNRQsYEobxsQ/grNe+30swNj1YyuPtuGHtBet5h6Pg
EjgIwGHNDwwXoNoqquk/pum9Z9dpx2aF0poUIo84rpKronW0vJZGSosfT7ABYJ81
BjrFYsr/NVcL2qw1I0Ntm+De
-----END CERTIFICATE-----
