Certificate:
    Data:
        Version: 3 (0x2)
        Serial Number: 102 (0x66)
        Signature Algorithm: sha256WithRSAEncryption
        Issuer: C=CA, O=SELF, OU=SELF, CN=SELF IDENTITY CA
        Validity
            Not Before: Sep  9 15:21:41 2024 GMT
            Not After : Aug 16 15:21:41 2124 GMT
        Subject: C=CA, O=mbed TLS, CN=Cert
        Subject Public Key Info:
            Public Key Algorithm: rsaEncryption
                Public-Key: (2048 bit)
                Modulus:
                    00:d5:54:92:fe:02:b2:df:32:21:5b:2c:f2:31:f2:
                    1d:2b:70:04:d7:50:a5:86:48:ed:ee:56:72:0e:5d:
                    17:89:a5:d8:7b:f5:a5:53:9c:84:46:6c:d3:9d:d5:
                    0b:8f:cc:63:9b:67:27:3e:19:46:34:2c:43:bd:97:
                    00:fd:48:ab:58:5a:1f:4d:7c:87:0e:df:ea:63:f9:
                    53:ee:ce:92:48:26:2c:fe:67:92:64:2e:e9:d1:f7:
                    9f:b7:e7:40:87:cb:36:cb:e5:79:28:19:13:60:9c:
                    b9:97:b3:ae:c9:fb:04:1a:4d:16:7f:f8:dc:43:ef:
                    5b:ed:87:e4:dd:a2:33:10:ef:e9:da:30:d5:c7:f4:
                    c6:1c:d3:19:79:ba:fb:b1:67:3b:3d:60:05:33:72:
                    4a:a9:6b:94:8e:ad:8b:e9:2d:67:8b:a1:b6:64:17:
                    cf:fe:e9:61:72:50:90:74:38:96:93:b2:2e:d8:b5:
                    a0:a6:b3:6f:c2:fe:26:ae:fe:40:3b:aa:0a:44:3d:
                    28:f4:b4:00:65:b8:8b:53:c3:a1:81:4c:f8:69:af:
                    19:0a:37:af:32:44:6a:d4:5e:fe:cd:d1:a6:33:7d:
                    d0:1f:2a:4e:d5:c3:b4:99:09:65:14:b8:9d:4f:b5:
                    6c:92:1f:27:d5:69:41:1e:57:23:dc:61:a2:eb:f8:
                    69:97
                Exponent: 65537 (0x10001)
        X509v3 extensions:
            X509v3 Subject Key Identifier: 
                F9:6A:A4:AE:0B:C2:82:45:DD:38:2F:9C:DB:B1:D3:CB:46:36:81:18
            X509v3 Authority Key Identifier: 
                97:6E:F5:B1:38:A0:FA:55:28:0D:D5:CC:E2:C3:41:F9:6F:F7:2E:57
            X509v3 Basic Constraints: 
                CA:FALSE
            X509v3 Key Usage: 
                Digital Signature, Key Encipherment
            Netscape Cert Type: 
                ...
    Signature Algorithm: sha256WithRSAEncryption
    Signature Value:
        3a:c0:f3:8b:05:3f:59:69:c0:6f:3f:24:d7:ea:9a:32:a3:fb:
        35:2f:35:a0:9f:97:6f:7b:e6:d9:c7:5c:ab:1f:d5:b7:89:ed:
        1f:22:e4:2a:a7:a9:9a:13:f3:7d:9b:01:cb:54:2c:ff:71:95:
        85:5a:b8:30:82:d4:d6:f3:8d:f6:9d:3e:ff:3a:c7:f6:b0:e1:
        09:83:8b:98:79:ee:7c:97:d5:75:d2:f6:8e:4a:13:71:41:4a:
        c5:a9:58:52:e4:ff:ea:9b:eb:c9:9c:07:39:ee:42:d5:cb:3d:
        4b:25:b6:76:1a:4b:77:58:f8:94:b7:bd:a4:30:af:a0:a0:65:
        98:9f:10:bf:37:5c:0d:ce:40:e8:a7:6f:59:da:cb:47:83:cd:
        8e:f4:09:03:de:9a:46:02:ab:8b:de:94:67:8f:3f:e6:30:a3:
        58:f2:d0:22:5a:64:5c:1a:ea:47:ac:39:f6:d9:d1:96:8b:4f:
        61:ad:37:a4:07:39:05:c6:5f:b5:ca:d2:ef:73:2e:a4:7f:2a:
        12:5c:ff:5d:17:b3:53:07:2e:be:4a:59:7e:1f:fd:b2:2e:9e:
        1f:54:0e:b0:ef:a6:a1:a6:4d:17:b3:94:bb:63:65:1e:ce:0b:
        c8:3b:42:d4:df:75:f9:36:93:6a:cb:40:4b:8b:08:ea:c3:1d:
        78:b3:e2:d4:c3:d3:77:7a:9f:08:dd:ed:13:aa:4f:76:d3:21:
        11:81:7f:7e:c3:5e:48:b4:7d:c2:14:fe:fe:a3:d6:92:94:8b:
        ba:cd:96:d6:29:ff:f8:3d:e2:2f:da:f9:54:28:05:fa:07:59:
        98:ae:8f:96:66:9e:d1:b0:02:25:2b:da:c1:9c:a5:50:58:c2:
        6b:04:85:dc:71:55:28:b7:df:41:e8:e8:81:c7:ac:03:fe:99:
        87:90:32:00:b9:46:6e:94:b4:91:cf:31:85:f2:15:cd:de:ed:
        25:e0:e2:1a:9d:20:63:c1:b8:96:84:45:b2:92:82:11:07:87:
        e0:57:ab:a0:e2:52:3c:bd:d1:37:66:b7:b9:e1:35:23:19:ca:
        34:02:cc:43:cb:78:48:91:1d:96:55:5b:ce:52:cc:bf:5f:02:
        12:27:54:fc:00:e7:7d:9a:85:7e:c9:23:61:98:fc:93:ca:b4:
        d9:14:1d:54:86:6e:72:d5:0d:04:be:21:f2:65:3a:c7:08:8f:
        25:6d:6c:10:25:48:b8:27:67:ae:38:90:b4:46:42:f5:d0:7a:
        34:6f:89:c9:74:49:1a:9c:89:54:06:2b:34:5a:51:ad:ef:e0:
        13:6c:8a:21:ac:19:6d:29:83:27:90:fd:31:81:74:0e:44:43:
        36:5c:92:81:7e:9f:9b:09
-----BEGIN CERTIFICATE-----
MIIEXjCCAkagAwIBAgIBZjANBgkqhkiG9w0BAQsFADBGMQswCQYDVQQGEwJDQTEN
MAsGA1UECgwEU0VMRjENMAsGA1UECwwEU0VMRjEZMBcGA1UEAwwQU0VMRiBJREVO
VElUWSBDQTAgFw0yNDA5MDkxNTIxNDFaGA8yMTI0MDgxNjE1MjE0MVowLzELMAkG
A1UEBhMCQ0ExETAPBgNVBAoMCG1iZWQgVExTMQ0wCwYDVQQDDARDZXJ0MIIBIjAN
BgkqhkiG9w0BAQEFAAOCAQ8AMIIBCgKCAQEA1VSS/gKy3zIhWyzyMfIdK3AE11Cl
hkjt7lZyDl0XiaXYe/WlU5yERmzTndULj8xjm2cnPhlGNCxDvZcA/UirWFofTXyH
Dt/qY/lT7s6SSCYs/meSZC7p0feft+dAh8s2y+V5KBkTYJy5l7OuyfsEGk0Wf/jc
Q+9b7Yfk3aIzEO/p2jDVx/TGHNMZebr7sWc7PWAFM3JKqWuUjq2L6S1ni6G2ZBfP
/ulhclCQdDiWk7Iu2LWgprNvwv4mrv5AO6oKRD0o9LQAZbiLU8OhgUz4aa8ZCjev
MkRq1F7+zdGmM33QHypO1cO0mQllFLidT7Vskh8n1WlBHlcj3GGi6/hplwIDAQAB
o2wwajAdBgNVHQ4EFgQU+WqkrgvCgkXdOC+c27HTy0Y2gRgwHwYDVR0jBBgwFoAU
l271sTig+lUoDdXM4sNB+W/3LlcwCQYDVR0TBAIwADALBgNVHQ8EBAMCBaAwEAYJ
YIZIAYb4QgEBBAMDAQAwDQYJKoZIhvcNAQELBQADggIBADrA84sFP1lpwG8/JNfq
mjKj+zUvNaCfl2975tnHXKsf1beJ7R8i5CqnqZoT832bActULP9xlYVauDCC1Nbz
jfadPv86x/aw4QmDi5h57nyX1XXS9o5KE3FBSsWpWFLk/+qb68mcBznuQtXLPUsl
tnYaS3dY+JS3vaQwr6CgZZifEL83XA3OQOinb1nay0eDzY70CQPemkYCq4velGeP
P+Ywo1jy0CJaZFwa6kesOfbZ0ZaLT2GtN6QHOQXGX7XK0u9zLqR/KhJc/10Xs1MH
Lr5KWX4f/bIunh9UDrDvpqGmTRezlLtjZR7OC8g7QtTfdfk2k2rLQEuLCOrDHXiz
4tTD03d6nwjd7ROqT3bTIRGBf37DXki0fcIU/v6j1pKUi7rNltYp//g94i/a+VQo
BfoHWZiuj5ZmntGwAiUr2sGcpVBYwmsEhdxxVSi330Ho6IHHrAP+mYeQMgC5Rm6U
tJHPMYXyFc3e7SXg4hqdIGPBuJaERbKSghEHh+BXq6DiUjy90Tdmt7nhNSMZyjQC
zEPLeEiRHZZVW85SzL9fAhInVPwA532ahX7JI2GY/JPKtNkUHVSGbnLVDQS+IfJl
OscIjyVtbBAlSLgnZ644kLRGQvXQejRvicl0SRqciVQGKzRaUa3v4BNsiiGsGW0p
gyeQ/TGBdA5EQzZckoF+n5sJ
-----END CERTIFICATE-----
