Certificate:
    Data:
        Version: 3 (0x2)
        Serial Number: 103 (0x67)
        Signature Algorithm: sha256WithRSAEncryption
        Issuer: C=CA, O=SELF, OU=SELF, CN=SELF IDENTITY CA
        Validity
            Not Before: Sep  9 15:22:16 2024 GMT
            Not After : Aug 16 15:22:16 2124 GMT
        Subject: C=CA, O=mbed TLS, CN=Cert
        Subject Public Key Info:
            Public Key Algorithm: rsaEncryption
                Public-Key: (2048 bit)
                Modulus:
                    00:d5:54:92:fe:02:b2:df:32:21:5b:2c:f2:31:f2:
                    1d:2b:70:04:d7:50:a5:86:48:ed:ee:56:72:0e:5d:
                    17:89:a5:d8:7b:f5:a5:53:9c:84:46:6c:d3:9d:d5:
                    0b:8f:cc:63:9b:67:27:3e:19:46:34:2c:43:bd:97:
                    00:fd:48:ab:58:5a:1f:4d:7c:87:0e:df:ea:63:f9:
                    53:ee:ce:92:48:26:2c:fe:67:92:64:2e:e9:d1:f7:
                    9f:b7:e7:40:87:cb:36:cb:e5:79:28:19:13:60:9c:
                    b9:97:b3:ae:c9:fb:04:1a:4d:16:7f:f8:dc:43:ef:
                    5b:ed:87:e4:dd:a2:33:10:ef:e9:da:30:d5:c7:f4:
                    c6:1c:d3:19:79:ba:fb:b1:67:3b:3d:60:05:33:72:
                    4a:a9:6b:94:8e:ad:8b:e9:2d:67:8b:a1:b6:64:17:
                    cf:fe:e9:61:72:50:90:74:38:96:93:b2:2e:d8:b5:
                    a0:a6:b3:6f:c2:fe:26:ae:fe:40:3b:aa:0a:44:3d:
                    28:f4:b4:00:65:b8:8b:53:c3:a1:81:4c:f8:69:af:
                    19:0a:37:af:32:44:6a:d4:5e:fe:cd:d1:a6:33:7d:
                    d0:1f:2a:4e:d5:c3:b4:99:09:65:14:b8:9d:4f:b5:
                    6c:92:1f:27:d5:69:41:1e:57:23:dc:61:a2:eb:f8:
                    69:97
                Exponent: 65537 (0x10001)
        X509v3 extensions:
            X509v3 Subject Key Identifier: 
                F9:6A:A4:AE:0B:C2:82:45:DD:38:2F:9C:DB:B1:D3:CB:46:36:81:18
            X509v3 Authority Key Identifier: 
                97:6E:F5:B1:38:A0:FA:55:28:0D:D5:CC:E2:C3:41:F9:6F:F7:2E:57
            X509v3 Basic Constraints: 
                CA:FALSE
            X509v3 Key Usage: 
                Digital Signature, Key Encipherment
            Netscape Cert Type: 
                ...
    Signature Algorithm: sha256WithRSAEncryption
    Signature Value:
        84:ed:aa:d4:07:9c:b3:15:df:bb:fb:b8:21:9b:a2:6d:c8:be:
        b9:99:c9:32:51:92:c2:c3:eb:51:47:52:b7:3e:fd:d3:38:23:
        01:6e:7b:44:4c:2e:e9:a5:b4:c5:ff:a9:7a:16:5e:cc:05:b4:
        27:e6:c2:a0:89:bf:5f:b5:03:4d:bd:d5:4a:12:ca:2c:b1:1a:
        1d:c8:27:9c:a4:20:74:0e:55:e2:31:68:9a:12:4d:bd:23:c8:
        7d:a3:36:89:3a:4c:65:73:c1:d2:75:ec:c0:0f:21:c4:e6:6a:
        c7:fd:83:b7:f0:21:fb:cf:67:3e:27:68:c7:2f:21:26:10:78:
        34:21:70:b7:a6:6e:80:fc:13:70:d6:00:87:26:9b:55:62:20:
        64:44:73:28:b4:cd:65:94:5a:6a:85:8d:99:44:9c:aa:c3:50:
        3e:0e:cd:8c:b5:e1:3b:50:b1:e2:87:ee:0e:5d:60:36:85:ea:
        50:de:1d:d3:53:4a:10:23:2c:b9:fb:1c:59:94:2d:ce:47:2e:
        57:6d:84:ae:ee:7a:16:59:0e:8f:2a:ac:12:7f:12:ad:33:ae:
        cc:d5:ab:b8:8d:01:09:7f:d7:3f:8d:11:21:0f:7d:cc:b8:7c:
        ec:a4:e0:af:10:a3:70:21:e4:37:2d:13:2c:b2:eb:1b:aa:83:
        11:e9:59:22:b3:c1:f8:99:be:63:aa:c6:56:bb:f7:bc:b5:f7:
        79:18:0b:41:a2:cf:30:0c:56:ef:28:11:a9:75:2f:32:92:d4:
        05:bf:a7:a5:3d:c5:4d:00:64:a8:e1:01:e7:ed:e4:23:6f:88:
        42:83:01:3a:3d:0a:72:fa:10:84:3d:d4:6e:ff:61:f4:c7:b3:
        40:e2:51:1b:f1:94:55:0c:dc:14:74:4f:5b:a4:f6:ad:d2:90:
        c0:26:0d:9e:c5:88:c0:09:ec:e5:06:b4:19:dc:1d:50:24:e8:
        39:2d:c7:2e:96:74:00:51:22:98:b5:b7:05:16:82:5b:10:09:
        23:cc:48:f3:17:a4:0e:ce:34:73:02:9b:66:86:d1:0c:cf:ba:
        1f:bc:f9:c3:69:b0:ff:d7:54:1e:81:0c:b9:e0:e4:cf:86:8f:
        c8:48:0e:ce:e8:7c:2d:6e:0e:46:de:ae:0b:d6:1e:61:74:81:
        58:36:01:ee:2f:22:d3:db:b3:2e:33:39:a9:22:4d:68:b2:45:
        f3:1e:b1:fc:7a:a9:0d:3c:6a:41:8c:c4:ac:cf:66:16:44:88:
        bc:3c:62:91:eb:b2:52:f2:53:14:7f:d3:4c:5c:09:8c:27:40:
        9d:9e:86:dc:5e:46:37:04:98:97:2f:65:46:e1:ab:6b:b7:7f:
        48:b6:f6:88:54:15:5b:be
-----BEGIN CERTIFICATE-----
MIIEXjCCAkagAwIBAgIBZzANBgkqhkiG9w0BAQsFADBGMQswCQYDVQQGEwJDQTEN
MAsGA1UECgwEU0VMRjENMAsGA1UECwwEU0VMRjEZMBcGA1UEAwwQU0VMRiBJREVO
VElUWSBDQTAgFw0yNDA5MDkxNTIyMTZaGA8yMTI0MDgxNjE1MjIxNlowLzELMAkG
A1UEBhMCQ0ExETAPBgNVBAoMCG1iZWQgVExTMQ0wCwYDVQQDDARDZXJ0MIIBIjAN
BgkqhkiG9w0BAQEFAAOCAQ8AMIIBCgKCAQEA1VSS/gKy3zIhWyzyMfIdK3AE11Cl
hkjt7lZyDl0XiaXYe/WlU5yERmzTndULj8xjm2cnPhlGNCxDvZcA/UirWFofTXyH
Dt/qY/lT7s6SSCYs/meSZC7p0feft+dAh8s2y+V5KBkTYJy5l7OuyfsEGk0Wf/jc
Q+9b7Yfk3aIzEO/p2jDVx/TGHNMZebr7sWc7PWAFM3JKqWuUjq2L6S1ni6G2ZBfP
/ulhclCQdDiWk7Iu2LWgprNvwv4mrv5AO6oKRD0o9LQAZbiLU8OhgUz4aa8ZCjev
MkRq1F7+zdGmM33QHypO1cO0mQllFLidT7Vskh8n1WlBHlcj3GGi6/hplwIDAQAB
o2wwajAdBgNVHQ4EFgQU+WqkrgvCgkXdOC+c27HTy0Y2gRgwHwYDVR0jBBgwFoAU
l271sTig+lUoDdXM4sNB+W/3LlcwCQYDVR0TBAIwADALBgNVHQ8EBAMCBaAwEAYJ
YIZIAYb4QgEBBAMDAQAwDQYJKoZIhvcNAQELBQADggIBAITtqtQHnLMV37v7uCGb
om3IvrmZyTJRksLD61FHUrc+/dM4IwFue0RMLumltMX/qXoWXswFtCfmwqCJv1+1
A0291UoSyiyxGh3IJ5ykIHQOVeIxaJoSTb0jyH2jNok6TGVzwdJ17MAPIcTmasf9
g7fwIfvPZz4naMcvISYQeDQhcLemboD8E3DWAIcmm1ViIGREcyi0zWWUWmqFjZlE
nKrDUD4OzYy14TtQseKH7g5dYDaF6lDeHdNTShAjLLn7HFmULc5HLldthK7uehZZ
Do8qrBJ/Eq0zrszVq7iNAQl/1z+NESEPfcy4fOyk4K8Qo3Ah5DctEyyy6xuqgxHp
WSKzwfiZvmOqxla797y193kYC0GizzAMVu8oEal1LzKS1AW/p6U9xU0AZKjhAeft
5CNviEKDATo9CnL6EIQ91G7/YfTHs0DiURvxlFUM3BR0T1uk9q3SkMAmDZ7FiMAJ
7OUGtBncHVAk6Dktxy6WdABRIpi1twUWglsQCSPMSPMXpA7ONHMCm2aG0QzPuh+8
+cNpsP/XVB6BDLng5M+Gj8hIDs7ofC1uDkbergvWHmF0gVg2Ae4vItPbsy4zOaki
TWiyRfMesfx6qQ08akGMxKzPZhZEiLw8YpHrslLyUxR/00xcCYwnQJ2ehtxeRjcE
mJcvZUbhq2u3f0i29ohUFVu+
-----END CERTIFICATE-----
