Certificate:
    Data:
        Version: 3 (0x2)
        Serial Number: 104 (0x68)
        Signature Algorithm: sha256WithRSAEncryption
        Issuer: C=CA, O=SELF, OU=SELF, CN=SELF IDENTITY CA
        Validity
            Not Before: Sep  9 15:23:14 2024 GMT
            Not After : Aug 16 15:23:14 2124 GMT
        Subject: C=CA, O=mbed TLS, CN=Cert
        Subject Public Key Info:
            Public Key Algorithm: rsaEncryption
                Public-Key: (2048 bit)
                Modulus:
                    00:d5:54:92:fe:02:b2:df:32:21:5b:2c:f2:31:f2:
                    1d:2b:70:04:d7:50:a5:86:48:ed:ee:56:72:0e:5d:
                    17:89:a5:d8:7b:f5:a5:53:9c:84:46:6c:d3:9d:d5:
                    0b:8f:cc:63:9b:67:27:3e:19:46:34:2c:43:bd:97:
                    00:fd:48:ab:58:5a:1f:4d:7c:87:0e:df:ea:63:f9:
                    53:ee:ce:92:48:26:2c:fe:67:92:64:2e:e9:d1:f7:
                    9f:b7:e7:40:87:cb:36:cb:e5:79:28:19:13:60:9c:
                    b9:97:b3:ae:c9:fb:04:1a:4d:16:7f:f8:dc:43:ef:
                    5b:ed:87:e4:dd:a2:33:10:ef:e9:da:30:d5:c7:f4:
                    c6:1c:d3:19:79:ba:fb:b1:67:3b:3d:60:05:33:72:
                    4a:a9:6b:94:8e:ad:8b:e9:2d:67:8b:a1:b6:64:17:
                    cf:fe:e9:61:72:50:90:74:38:96:93:b2:2e:d8:b5:
                    a0:a6:b3:6f:c2:fe:26:ae:fe:40:3b:aa:0a:44:3d:
                    28:f4:b4:00:65:b8:8b:53:c3:a1:81:4c:f8:69:af:
                    19:0a:37:af:32:44:6a:d4:5e:fe:cd:d1:a6:33:7d:
                    d0:1f:2a:4e:d5:c3:b4:99:09:65:14:b8:9d:4f:b5:
                    6c:92:1f:27:d5:69:41:1e:57:23:dc:61:a2:eb:f8:
                    69:97
                Exponent: 65537 (0x10001)
        X509v3 extensions:
            X509v3 Subject Key Identifier: 
                F9:6A:A4:AE:0B:C2:82:45:DD:38:2F:9C:DB:B1:D3:CB:46:36:81:18
            X509v3 Authority Key Identifier: 
                97:6E:F5:B1:38:A0:FA:55:28:0D:D5:CC:E2:C3:41:F9:6F:F7:2E:57
            X509v3 Basic Constraints: 
                CA:FALSE
            X509v3 Key Usage: 
                Digital Signature, Key Encipherment
            Netscape Cert Type: 
                ...
    Signature Algorithm: sha256WithRSAEncryption
    Signature Value:
        08:87:ae:4d:b2:ac:18:a0:12:ee:f1:3e:c3:bb:17:0d:00:c9:
        3d:71:74:38:1d:02:ec:c0:64:bc:e2:c8:a7:8d:3d:48:8f:35:
        e9:e4:8c:64:9e:40:9a:24:58:af:2f:55:ce:9d:7c:b3:ef:bc:
        8e:9f:cc:45:a4:fb:de:65:1a:cb:8a:f3:98:ca:30:8b:c9:68:
        d2:7e:5b:2b:fb:09:4d:b0:0b:fa:98:b7:10:b7:be:23:90:ff:
        05:d5:df:90:50:c5:87:27:cc:3b:1e:9e:5e:f8:c7:6e:34:29:
        90:5b:ac:75:ab:86:88:c7:b1:f1:e9:07:b5:75:57:14:1f:f1:
        4d:12:7e:b9:f5:e5:2c:dd:57:22:1c:c4:83:93:2c:30:92:c9:
        80:1a:0a:fa:24:01:b5:80:e2:7a:bb:21:22:9c:b1:99:f2:97:
        0c:4c:fe:1e:cf:ee:27:38:b6:92:81:8a:83:af:15:05:6d:f3:
        68:e1:94:47:35:a8:7b:0a:4f:8d:44:5b:21:a3:51:60:47:dc:
        31:ea:03:f3:ec:af:96:22:92:c5:2c:37:37:66:d5:cb:aa:46:
        32:d9:e2:37:48:4c:14:72:d8:d4:82:a6:4f:1c:37:54:98:f4:
        58:e6:f3:c3:8c:b5:45:d0:dd:0f:29:9a:fb:03:7e:1b:e6:1e:
        f7:06:60:13:fa:2f:a5:b5:1e:1f:00:13:a2:6f:41:a2:2f:c3:
        5b:31:5b:30:cc:e9:e7:89:7a:be:e1:39:9a:db:58:50:a4:e3:
        72:51:18:61:95:72:53:85:84:89:4c:39:d0:95:c6:e7:2f:69:
        5b:8d:62:66:c9:5b:c7:58:65:7a:7b:f8:c7:7a:9d:61:40:5c:
        86:ff:d3:d3:6b:58:ed:a1:50:3d:39:8a:23:ba:bb:ac:c7:28:
        81:b0:9e:a5:7b:3d:84:f0:df:a8:b4:19:5f:b6:e6:53:ed:c2:
        f8:23:a9:66:31:9c:d7:47:8d:53:d6:b8:5f:1e:df:19:1b:ab:
        a1:c8:32:20:fa:c4:a0:35:a2:bd:f3:1f:25:ba:58:f8:4a:f3:
        b1:3c:a5:dd:b3:96:bc:3c:1d:94:3f:99:41:46:8e:b9:4a:6c:
        73:e1:c8:48:02:a8:6a:bd:2f:91:33:8d:61:de:56:b1:f4:2d:
        3b:07:a3:3f:3b:7f:36:ed:dc:a1:50:a5:8f:1f:f2:8d:51:8a:
        21:80:e1:34:27:46:a8:92:52:42:1b:7e:bb:55:b7:3b:42:bd:
        35:bf:9e:59:b4:3d:e4:4c:ce:db:3e:37:44:16:cf:e6:bc:08:
        f6:74:8e:4f:04:dc:af:bd:dc:41:01:3a:43:8a:16:64:6d:ec:
        4f:cd:26:4e:f2:46:c2:73
-----BEGIN CERTIFICATE-----
MIIEXjCCAkagAwIBAgIBaDANBgkqhkiG9w0BAQsFADBGMQswCQYDVQQGEwJDQTEN
MAsGA1UECgwEU0VMRjENMAsGA1UECwwEU0VMRjEZMBcGA1UEAwwQU0VMRiBJREVO
VElUWSBDQTAgFw0yNDA5MDkxNTIzMTRaGA8yMTI0MDgxNjE1MjMxNFowLzELMAkG
A1UEBhMCQ0ExETAPBgNVBAoMCG1iZWQgVExTMQ0wCwYDVQQDDARDZXJ0MIIBIjAN
BgkqhkiG9w0BAQEFAAOCAQ8AMIIBCgKCAQEA1VSS/gKy3zIhWyzyMfIdK3AE11Cl
hkjt7lZyDl0XiaXYe/WlU5yERmzTndULj8xjm2cnPhlGNCxDvZcA/UirWFofTXyH
Dt/qY/lT7s6SSCYs/meSZC7p0feft+dAh8s2y+V5KBkTYJy5l7OuyfsEGk0Wf/jc
Q+9b7Yfk3aIzEO/p2jDVx/TGHNMZebr7sWc7PWAFM3JKqWuUjq2L6S1ni6G2ZBfP
/ulhclCQdDiWk7Iu2LWgprNvwv4mrv5AO6oKRD0o9LQAZbiLU8OhgUz4aa8ZCjev
MkRq1F7+zdGmM33QHypO1cO0mQllFLidT7Vskh8n1WlBHlcj3GGi6/hplwIDAQAB
o2wwajAdBgNVHQ4EFgQU+WqkrgvCgkXdOC+c27HTy0Y2gRgwHwYDVR0jBBgwFoAU
l271sTig+lUoDdXM4sNB+W/3LlcwCQYDVR0TBAIwADALBgNVHQ8EBAMCBaAwEAYJ
YIZIAYb4QgEBBAMDAQAwDQYJKoZIhvcNAQELBQADggIBAAiHrk2yrBigEu7xPsO7
Fw0AyT1xdDgdAuzAZLziyKeNPUiPNenkjGSeQJokWK8vVc6dfLPvvI6fzEWk+95l
GsuK85jKMIvJaNJ+Wyv7CU2wC/qYtxC3viOQ/wXV35BQxYcnzDsenl74x240KZBb
rHWrhojHsfHpB7V1VxQf8U0Sfrn15SzdVyIcxIOTLDCSyYAaCvokAbWA4nq7ISKc
sZnylwxM/h7P7ic4tpKBioOvFQVt82jhlEc1qHsKT41EWyGjUWBH3DHqA/Psr5Yi
ksUsNzdm1cuqRjLZ4jdITBRy2NSCpk8cN1SY9Fjm88OMtUXQ3Q8pmvsDfhvmHvcG
YBP6L6W1Hh8AE6JvQaIvw1sxWzDM6eeJer7hOZrbWFCk43JRGGGVclOFhIlMOdCV
xucvaVuNYmbJW8dYZXp7+Md6nWFAXIb/09NrWO2hUD05iiO6u6zHKIGwnqV7PYTw
36i0GV+25lPtwvgjqWYxnNdHjVPWuF8e3xkbq6HIMiD6xKA1or3zHyW6WPhK87E8
pd2zlrw8HZQ/mUFGjrlKbHPhyEgCqGq9L5EzjWHeVrH0LTsHoz87fzbt3KFQpY8f
8o1RiiGA4TQnRqiSUkIbfrtVtztCvTW/nlm0PeRMzts+N0QWz+a8CPZ0jk8E3K+9
3EEBOkOKFmRt7E/NJk7yRsJz
-----END CERTIFICATE-----
