Certificate:
    Data:
        Version: 3 (0x2)
        Serial Number: 105 (0x69)
        Signature Algorithm: sha256WithRSAEncryption
        Issuer: C=CA, O=SELF, OU=SELF, CN=SELF IDENTITY CA
        Validity
            Not Before: Sep  9 15:27:12 2024 GMT
            Not After : Aug 16 15:27:12 2124 GMT
        Subject: C=CA, O=mbed TLS, CN=Cert
        Subject Public Key Info:
            Public Key Algorithm: rsaEncryption
                Public-Key: (2048 bit)
                Modulus:
                    00:d5:54:92:fe:02:b2:df:32:21:5b:2c:f2:31:f2:
                    1d:2b:70:04:d7:50:a5:86:48:ed:ee:56:72:0e:5d:
                    17:89:a5:d8:7b:f5:a5:53:9c:84:46:6c:d3:9d:d5:
                    0b:8f:cc:63:9b:67:27:3e:19:46:34:2c:43:bd:97:
                    00:fd:48:ab:58:5a:1f:4d:7c:87:0e:df:ea:63:f9:
                    53:ee:ce:92:48:26:2c:fe:67:92:64:2e:e9:d1:f7:
                    9f:b7:e7:40:87:cb:36:cb:e5:79:28:19:13:60:9c:
                    b9:97:b3:ae:c9:fb:04:1a:4d:16:7f:f8:dc:43:ef:
                    5b:ed:87:e4:dd:a2:33:10:ef:e9:da:30:d5:c7:f4:
                    c6:1c:d3:19:79:ba:fb:b1:67:3b:3d:60:05:33:72:
                    4a:a9:6b:94:8e:ad:8b:e9:2d:67:8b:a1:b6:64:17:
                    cf:fe:e9:61:72:50:90:74:38:96:93:b2:2e:d8:b5:
                    a0:a6:b3:6f:c2:fe:26:ae:fe:40:3b:aa:0a:44:3d:
                    28:f4:b4:00:65:b8:8b:53:c3:a1:81:4c:f8:69:af:
                    19:0a:37:af:32:44:6a:d4:5e:fe:cd:d1:a6:33:7d:
                    d0:1f:2a:4e:d5:c3:b4:99:09:65:14:b8:9d:4f:b5:
                    6c:92:1f:27:d5:69:41:1e:57:23:dc:61:a2:eb:f8:
                    69:97
                Exponent: 65537 (0x10001)
        X509v3 extensions:
            X509v3 Subject Key Identifier: 
                F9:6A:A4:AE:0B:C2:82:45:DD:38:2F:9C:DB:B1:D3:CB:46:36:81:18
            X509v3 Authority Key Identifier: 
                97:6E:F5:B1:38:A0:FA:55:28:0D:D5:CC:E2:C3:41:F9:6F:F7:2E:57
            X509v3 Basic Constraints: 
                CA:FALSE
            X509v3 Key Usage: 
                Digital Signature, Key Encipherment
            Netscape Cert Type: 
                ...
    Signature Algorithm: sha256WithRSAEncryption
    Signature Value:
        47:39:41:0b:94:4d:cc:27:41:96:81:81:48:76:77:a0:4c:6d:
        c3:cd:78:28:08:50:19:19:9f:44:9f:d6:9b:e7:3f:80:56:bc:
        74:29:cc:1c:17:eb:34:ac:6e:9d:2b:61:ca:42:e6:03:02:da:
        4c:ce:1b:94:cc:ce:9c:4a:54:1c:c3:d5:ba:5c:9c:57:2e:3c:
        4e:a2:d3:b3:72:b2:0d:b5:be:c5:9c:ff:9a:2d:5c:85:16:72:
        32:df:13:6e:fd:61:e8:24:63:33:71:ab:d5:b1:43:13:c2:46:
        00:d5:f5:5d:72:41:85:fd:86:92:2a:9d:26:6f:f1:6c:f0:47:
        fe:77:b4:3e:1a:2e:65:eb:cc:99:00:d2:fa:a2:ff:71:d9:ea:
        3b:67:a7:25:70:68:3e:b3:a0:8a:f8:ff:b0:4a:d2:c9:9f:df:
        12:59:6f:1a:82:d8:7e:c9:86:23:f5:65:fc:32:bc:83:f2:f6:
        90:e0:b5:9b:c5:6f:a7:0c:d6:76:0f:08:49:ee:46:7b:b0:11:
        6b:14:5f:a6:5a:53:3d:0e:8a:f4:eb:32:eb:84:9c:90:cb:c9:
        f8:9c:2f:d3:1f:26:57:7c:3d:72:45:f9:ef:dd:d9:bb:d1:54:
        78:8e:bf:c5:d2:4c:a4:49:35:28:86:01:a0:bb:0d:0f:a6:ba:
        d2:9e:e9:aa:ab:46:42:f8:6e:a6:94:7b:01:78:4b:cc:02:9f:
        93:bb:cf:da:45:e6:bf:fc:f0:a5:d9:33:c6:99:5a:e6:db:eb:
        a4:ef:1a:29:3e:aa:5a:f4:b9:c0:c6:fc:7c:0b:62:07:7f:ec:
        31:59:31:8e:cc:81:15:a1:d1:0f:c8:b9:ef:10:5a:eb:bd:2b:
        cc:e8:eb:d0:e3:91:f1:0e:40:58:92:d2:bf:39:53:38:f6:8d:
        26:58:77:b3:bc:45:32:9c:16:2d:b4:28:9c:f6:d7:cd:03:65:
        9b:23:ca:54:58:5f:d2:f0:f4:98:3d:fd:3b:ce:76:ed:e1:fc:
        50:ab:20:c5:6b:da:3a:f9:52:91:7c:88:8e:5a:43:b1:70:c5:
        c6:7f:34:94:83:91:5e:ac:16:05:e8:6e:35:ed:15:f3:3c:9b:
        83:3f:58:c0:81:3d:2f:03:79:8c:43:a0:f7:ae:67:44:90:f3:
        29:52:66:c0:41:6b:bc:56:24:8b:4a:b0:17:dd:a2:76:d2:bb:
        09:98:ce:92:07:8d:fe:e9:af:d0:51:95:da:c1:c5:db:86:9e:
        d7:26:3c:27:9d:81:85:bf:92:81:14:0a:87:43:33:41:8a:25:
        ed:06:4d:b9:6e:a8:34:93:51:34:0b:3e:1b:32:c2:11:1f:f7:
        96:b5:4f:52:11:dc:48:dc
-----BEGIN CERTIFICATE-----
MIIEXjCCAkagAwIBAgIBaTANBgkqhkiG9w0BAQsFADBGMQswCQYDVQQGEwJDQTEN
MAsGA1UECgwEU0VMRjENMAsGA1UECwwEU0VMRjEZMBcGA1UEAwwQU0VMRiBJREVO
VElUWSBDQTAgFw0yNDA5MDkxNTI3MTJaGA8yMTI0MDgxNjE1MjcxMlowLzELMAkG
A1UEBhMCQ0ExETAPBgNVBAoMCG1iZWQgVExTMQ0wCwYDVQQDDARDZXJ0MIIBIjAN
BgkqhkiG9w0BAQEFAAOCAQ8AMIIBCgKCAQEA1VSS/gKy3zIhWyzyMfIdK3AE11Cl
hkjt7lZyDl0XiaXYe/WlU5yERmzTndULj8xjm2cnPhlGNCxDvZcA/UirWFofTXyH
Dt/qY/lT7s6SSCYs/meSZC7p0feft+dAh8s2y+V5KBkTYJy5l7OuyfsEGk0Wf/jc
Q+9b7Yfk3aIzEO/p2jDVx/TGHNMZebr7sWc7PWAFM3JKqWuUjq2L6S1ni6G2ZBfP
/ulhclCQdDiWk7Iu2LWgprNvwv4mrv5AO6oKRD0o9LQAZbiLU8OhgUz4aa8ZCjev
MkRq1F7+zdGmM33QHypO1cO0mQllFLidT7Vskh8n1WlBHlcj3GGi6/hplwIDAQAB
o2wwajAdBgNVHQ4EFgQU+WqkrgvCgkXdOC+c27HTy0Y2gRgwHwYDVR0jBBgwFoAU
l271sTig+lUoDdXM4sNB+W/3LlcwCQYDVR0TBAIwADALBgNVHQ8EBAMCBaAwEAYJ
YIZIAYb4QgEBBAMDAQAwDQYJKoZIhvcNAQELBQADggIBAEc5QQuUTcwnQZaBgUh2
d6BMbcPNeCgIUBkZn0Sf1pvnP4BWvHQpzBwX6zSsbp0rYcpC5gMC2kzOG5TMzpxK
VBzD1bpcnFcuPE6i07Nysg21vsWc/5otXIUWcjLfE279YegkYzNxq9WxQxPCRgDV
9V1yQYX9hpIqnSZv8WzwR/53tD4aLmXrzJkA0vqi/3HZ6jtnpyVwaD6zoIr4/7BK
0smf3xJZbxqC2H7JhiP1ZfwyvIPy9pDgtZvFb6cM1nYPCEnuRnuwEWsUX6ZaUz0O
ivTrMuuEnJDLyficL9MfJld8PXJF+e/d2bvRVHiOv8XSTKRJNSiGAaC7DQ+mutKe
6aqrRkL4bqaUewF4S8wCn5O7z9pF5r/88KXZM8aZWubb66TvGik+qlr0ucDG/HwL
Ygd/7DFZMY7MgRWh0Q/Iue8QWuu9K8zo69DjkfEOQFiS0r85Uzj2jSZYd7O8RTKc
Fi20KJz2180DZZsjylRYX9Lw9Jg9/TvOdu3h/FCrIMVr2jr5UpF8iI5aQ7FwxcZ/
NJSDkV6sFgXobjXtFfM8m4M/WMCBPS8DeYxDoPeuZ0SQ8ylSZsBBa7xWJItKsBfd
onbSuwmYzpIHjf7pr9BRldrBxduGntcmPCedgYW/koEUCodDM0GKJe0GTbluqDST
UTQLPhsywhEf95a1T1IR3Ejc
-----END CERTIFICATE-----
