Certificate:
    Data:
        Version: 3 (0x2)
        Serial Number: 106 (0x6a)
        Signature Algorithm: sha256WithRSAEncryption
        Issuer: C=CA, O=SELF, OU=SELF, CN=SELF IDENTITY CA
        Validity
            Not Before: Sep  9 15:32:05 2024 GMT
            Not After : Aug 16 15:32:05 2124 GMT
        Subject: C=CA, O=mbed TLS, CN=Cert
        Subject Public Key Info:
            Public Key Algorithm: rsaEncryption
                Public-Key: (2048 bit)
                Modulus:
                    00:d5:54:92:fe:02:b2:df:32:21:5b:2c:f2:31:f2:
                    1d:2b:70:04:d7:50:a5:86:48:ed:ee:56:72:0e:5d:
                    17:89:a5:d8:7b:f5:a5:53:9c:84:46:6c:d3:9d:d5:
                    0b:8f:cc:63:9b:67:27:3e:19:46:34:2c:43:bd:97:
                    00:fd:48:ab:58:5a:1f:4d:7c:87:0e:df:ea:63:f9:
                    53:ee:ce:92:48:26:2c:fe:67:92:64:2e:e9:d1:f7:
                    9f:b7:e7:40:87:cb:36:cb:e5:79:28:19:13:60:9c:
                    b9:97:b3:ae:c9:fb:04:1a:4d:16:7f:f8:dc:43:ef:
                    5b:ed:87:e4:dd:a2:33:10:ef:e9:da:30:d5:c7:f4:
                    c6:1c:d3:19:79:ba:fb:b1:67:3b:3d:60:05:33:72:
                    4a:a9:6b:94:8e:ad:8b:e9:2d:67:8b:a1:b6:64:17:
                    cf:fe:e9:61:72:50:90:74:38:96:93:b2:2e:d8:b5:
                    a0:a6:b3:6f:c2:fe:26:ae:fe:40:3b:aa:0a:44:3d:
                    28:f4:b4:00:65:b8:8b:53:c3:a1:81:4c:f8:69:af:
                    19:0a:37:af:32:44:6a:d4:5e:fe:cd:d1:a6:33:7d:
                    d0:1f:2a:4e:d5:c3:b4:99:09:65:14:b8:9d:4f:b5:
                    6c:92:1f:27:d5:69:41:1e:57:23:dc:61:a2:eb:f8:
                    69:97
                Exponent: 65537 (0x10001)
        X509v3 extensions:
            X509v3 Subject Key Identifier: 
                F9:6A:A4:AE:0B:C2:82:45:DD:38:2F:9C:DB:B1:D3:CB:46:36:81:18
            X509v3 Authority Key Identifier: 
                97:6E:F5:B1:38:A0:FA:55:28:0D:D5:CC:E2:C3:41:F9:6F:F7:2E:57
            X509v3 Basic Constraints: 
                CA:FALSE
            X509v3 Key Usage: 
                Digital Signature, Key Encipherment
            Netscape Cert Type: 
                ...
    Signature Algorithm: sha256WithRSAEncryption
    Signature Value:
        68:85:5b:1d:72:74:c4:a7:94:b9:83:0c:4a:af:06:e0:e3:ec:
        5d:0a:6a:18:87:ae:e9:1d:49:14:81:18:6a:60:65:fd:df:13:
        ca:d5:6a:53:f3:a1:de:1d:dd:de:e5:6a:7e:a7:f8:18:79:89:
        95:bb:82:64:f7:85:72:d4:88:6b:7f:9f:a8:c8:12:74:d7:c8:
        d7:43:aa:34:9a:0d:6c:fc:32:bb:99:b9:82:fd:e8:0a:b0:aa:
        c2:d2:6b:ee:83:c5:bc:55:85:c1:1f:ba:c7:10:0c:cb:4c:dc:
        c9:44:a1:74:75:2e:87:e6:10:69:cd:75:68:3e:1c:e0:ee:01:
        ca:3d:60:88:b1:ae:78:c1:0d:2d:d1:d4:c0:97:1b:2c:0c:40:
        03:b0:d3:96:2b:68:11:a0:24:b4:79:94:9a:61:82:27:e7:95:
        8c:a5:f6:f7:2b:20:26:15:c6:88:94:d5:5c:36:41:56:76:8c:
        4d:20:a9:cf:f3:d1:ca:95:44:9b:60:14:c8:55:e9:ae:d1:bc:
        57:88:0e:2d:60:d5:0f:6c:81:b6:cc:91:30:26:c0:57:44:32:
        5d:79:59:77:fd:07:6d:05:86:aa:95:46:be:5b:05:03:11:21:
        5a:70:70:fd:8f:34:a7:13:65:15:1c:e9:72:dd:22:c4:79:e3:
        81:1b:92:3c:e8:23:b0:6f:db:6b:10:bf:7d:c8:99:37:fd:6b:
        d5:bc:40:79:23:6a:20:7c:c5:fb:a5:44:44:1c:c6:c0:06:a3:
        85:4a:43:e0:4d:94:24:09:4a:f0:5b:d2:09:93:b0:b5:bd:1d:
        7f:16:8f:5f:bd:0c:5d:a0:55:66:8c:1c:8e:88:ae:0a:5f:16:
        ff:ea:4d:89:c1:a5:ce:04:07:6c:36:19:84:1c:6f:d1:09:f5:
        11:97:be:d2:f4:02:6c:11:78:5a:ab:ff:90:bd:38:75:76:b4:
        25:a0:4d:dc:ad:e9:d6:95:a6:af:f7:08:53:68:86:20:fb:cb:
        9a:a6:b0:30:4c:89:13:8e:b6:da:7c:1b:c9:b2:50:d0:72:bf:
        da:8d:f8:65:6c:64:32:56:d7:52:53:e8:2a:fa:a9:8e:39:db:
        a0:28:c6:ed:30:0d:a3:a1:db:4c:e1:b2:54:18:de:00:85:70:
        90:1a:a0:0b:b4:fb:b3:31:af:f3:93:38:d7:03:f8:10:87:a8:
        b4:9c:3f:eb:ed:86:a1:01:17:c3:8c:5d:74:b9:0b:10:0c:99:
        73:1e:e9:9e:a2:62:cf:4d:b4:9e:09:a2:c0:15:24:fe:88:45:
        19:88:de:b5:e3:d3:72:3b:3c:cc:fc:da:61:0d:a4:f8:f4:92:
        27:d8:e3:3a:35:42:1b:fd
-----BEGIN CERTIFICATE-----
MIIEXjCCAkagAwIBAgIBajANBgkqhkiG9w0BAQsFADBGMQswCQYDVQQGEwJDQTEN
MAsGA1UECgwEU0VMRjENMAsGA1UECwwEU0VMRjEZMBcGA1UEAwwQU0VMRiBJREVO
VElUWSBDQTAgFw0yNDA5MDkxNTMyMDVaGA8yMTI0MDgxNjE1MzIwNVowLzELMAkG
A1UEBhMCQ0ExETAPBgNVBAoMCG1iZWQgVExTMQ0wCwYDVQQDDARDZXJ0MIIBIjAN
BgkqhkiG9w0BAQEFAAOCAQ8AMIIBCgKCAQEA1VSS/gKy3zIhWyzyMfIdK3AE11Cl
hkjt7lZyDl0XiaXYe/WlU5yERmzTndULj8xjm2cnPhlGNCxDvZcA/UirWFofTXyH
Dt/qY/lT7s6SSCYs/meSZC7p0feft+dAh8s2y+V5KBkTYJy5l7OuyfsEGk0Wf/jc
Q+9b7Yfk3aIzEO/p2jDVx/TGHNMZebr7sWc7PWAFM3JKqWuUjq2L6S1ni6G2ZBfP
/ulhclCQdDiWk7Iu2LWgprNvwv4mrv5AO6oKRD0o9LQAZbiLU8OhgUz4aa8ZCjev
MkRq1F7+zdGmM33QHypO1cO0mQllFLidT7Vskh8n1WlBHlcj3GGi6/hplwIDAQAB
o2wwajAdBgNVHQ4EFgQU+WqkrgvCgkXdOC+c27HTy0Y2gRgwHwYDVR0jBBgwFoAU
l271sTig+lUoDdXM4sNB+W/3LlcwCQYDVR0TBAIwADALBgNVHQ8EBAMCBaAwEAYJ
YIZIAYb4QgEBBAMDAQAwDQYJKoZIhvcNAQELBQADggIBAGiFWx1ydMSnlLmDDEqv
BuDj7F0KahiHrukdSRSBGGpgZf3fE8rValPzod4d3d7lan6n+Bh5iZW7gmT3hXLU
iGt/n6jIEnTXyNdDqjSaDWz8MruZuYL96AqwqsLSa+6DxbxVhcEfuscQDMtM3MlE
oXR1LofmEGnNdWg+HODuAco9YIixrnjBDS3R1MCXGywMQAOw05YraBGgJLR5lJph
gifnlYyl9vcrICYVxoiU1Vw2QVZ2jE0gqc/z0cqVRJtgFMhV6a7RvFeIDi1g1Q9s
gbbMkTAmwFdEMl15WXf9B20FhqqVRr5bBQMRIVpwcP2PNKcTZRUc6XLdIsR544Eb
kjzoI7Bv22sQv33ImTf9a9W8QHkjaiB8xfulREQcxsAGo4VKQ+BNlCQJSvBb0gmT
sLW9HX8Wj1+9DF2gVWaMHI6IrgpfFv/qTYnBpc4EB2w2GYQcb9EJ9RGXvtL0AmwR
eFqr/5C9OHV2tCWgTdyt6daVpq/3CFNohiD7y5qmsDBMiROOttp8G8myUNByv9qN
+GVsZDJW11JT6Cr6qY4526Aoxu0wDaOh20zhslQY3gCFcJAaoAu0+7Mxr/OTONcD
+BCHqLScP+vthqEBF8OMXXS5CxAMmXMe6Z6iYs9NtJ4JosAVJP6IRRmI3rXj03I7
PMz82mENpPj0kifY4zo1Qhv9
-----END CERTIFICATE-----
