Certificate:
    Data:
        Version: 3 (0x2)
        Serial Number: 107 (0x6b)
        Signature Algorithm: sha256WithRSAEncryption
        Issuer: C=CA, O=SELF, OU=SELF, CN=SELF IDENTITY CA
        Validity
            Not Before: Sep  9 15:33:40 2024 GMT
            Not After : Aug 16 15:33:40 2124 GMT
        Subject: C=CA, O=mbed TLS, CN=Cert
        Subject Public Key Info:
            Public Key Algorithm: rsaEncryption
                Public-Key: (2048 bit)
                Modulus:
                    00:d5:54:92:fe:02:b2:df:32:21:5b:2c:f2:31:f2:
                    1d:2b:70:04:d7:50:a5:86:48:ed:ee:56:72:0e:5d:
                    17:89:a5:d8:7b:f5:a5:53:9c:84:46:6c:d3:9d:d5:
                    0b:8f:cc:63:9b:67:27:3e:19:46:34:2c:43:bd:97:
                    00:fd:48:ab:58:5a:1f:4d:7c:87:0e:df:ea:63:f9:
                    53:ee:ce:92:48:26:2c:fe:67:92:64:2e:e9:d1:f7:
                    9f:b7:e7:40:87:cb:36:cb:e5:79:28:19:13:60:9c:
                    b9:97:b3:ae:c9:fb:04:1a:4d:16:7f:f8:dc:43:ef:
                    5b:ed:87:e4:dd:a2:33:10:ef:e9:da:30:d5:c7:f4:
                    c6:1c:d3:19:79:ba:fb:b1:67:3b:3d:60:05:33:72:
                    4a:a9:6b:94:8e:ad:8b:e9:2d:67:8b:a1:b6:64:17:
                    cf:fe:e9:61:72:50:90:74:38:96:93:b2:2e:d8:b5:
                    a0:a6:b3:6f:c2:fe:26:ae:fe:40:3b:aa:0a:44:3d:
                    28:f4:b4:00:65:b8:8b:53:c3:a1:81:4c:f8:69:af:
                    19:0a:37:af:32:44:6a:d4:5e:fe:cd:d1:a6:33:7d:
                    d0:1f:2a:4e:d5:c3:b4:99:09:65:14:b8:9d:4f:b5:
                    6c:92:1f:27:d5:69:41:1e:57:23:dc:61:a2:eb:f8:
                    69:97
                Exponent: 65537 (0x10001)
        X509v3 extensions:
            X509v3 Subject Key Identifier: 
                F9:6A:A4:AE:0B:C2:82:45:DD:38:2F:9C:DB:B1:D3:CB:46:36:81:18
            X509v3 Authority Key Identifier: 
                97:6E:F5:B1:38:A0:FA:55:28:0D:D5:CC:E2:C3:41:F9:6F:F7:2E:57
            X509v3 Basic Constraints: 
                CA:FALSE
            X509v3 Key Usage: 
                Digital Signature, Key Encipherment
            Netscape Cert Type: 
                ...
    Signature Algorithm: sha256WithRSAEncryption
    Signature Value:
        42:a2:4d:34:39:6a:d0:16:06:bc:05:9b:1f:39:28:dd:84:9c:
        87:6b:76:0e:4a:c6:18:87:11:ad:c8:a2:ee:11:a5:1a:05:41:
        d0:75:78:f2:b8:9d:86:6e:57:19:9b:87:15:75:a2:ed:13:3d:
        ce:5d:5b:12:d9:5e:06:2b:35:6f:ea:cd:26:51:68:99:4a:34:
        68:45:85:f1:b2:04:69:10:a2:fe:ce:bc:3b:c9:e9:cb:a8:ec:
        7e:bb:d1:a5:0b:6d:4a:d3:85:10:21:f3:b3:a0:e6:32:5e:88:
        cf:e5:a3:7b:9d:df:33:a2:b2:3f:4c:42:83:c0:3e:85:b6:73:
        ae:b0:16:f0:dc:89:73:c8:69:7c:02:0e:77:7a:37:97:33:af:
        b8:bf:dc:d8:5e:4f:8f:d7:3b:0e:8f:1a:2d:ec:c4:4a:98:73:
        3c:31:5f:56:0b:0e:3d:5d:d8:37:50:b9:bb:69:11:23:e0:eb:
        0b:85:92:67:e9:0e:71:43:45:7f:51:aa:29:67:09:d3:d5:5b:
        94:53:1b:8f:f0:ab:f5:3f:6a:04:47:d1:1c:32:de:a8:0b:53:
        ef:e6:cd:b9:a7:27:cf:bf:60:49:61:b0:b1:8c:52:cb:01:75:
        65:c0:fa:d6:ba:68:84:72:b4:99:f6:e4:2f:00:0d:bf:41:bc:
        92:6d:a1:c6:06:ca:75:59:7a:05:9a:94:53:94:73:3e:3f:d5:
        34:77:ec:08:83:ea:5b:fb:94:e5:57:09:1c:1f:62:9e:0e:c9:
        05:8f:cc:4f:7b:8b:83:f7:1e:e3:92:31:5f:51:13:04:f8:f0:
        cc:4f:41:f6:88:50:2b:30:ad:3e:eb:00:37:29:8d:5c:3c:82:
        a2:86:cf:7b:6a:90:db:38:cf:47:5f:f0:c4:0b:a6:da:c6:fb:
        d3:eb:f6:cf:e5:75:89:06:76:bd:3b:80:b8:24:07:38:56:81:
        6a:c3:53:d2:d9:47:90:e6:e6:b9:28:9a:1f:38:47:92:1e:82:
        30:7b:9b:9f:52:7d:52:ab:cb:34:69:7f:f1:83:d6:f4:2f:0b:
        d3:3e:40:c5:d2:1f:41:72:02:1a:09:bd:4d:12:6f:de:a7:97:
        d6:df:17:6f:81:41:8f:bc:48:46:91:57:90:98:d5:74:12:fa:
        7c:f3:4d:50:0c:c2:41:82:d6:5c:d3:d0:c4:1b:91:48:24:8d:
        29:46:ee:5f:b9:af:15:e5:bf:ed:b9:a6:1e:68:ce:85:1d:0f:
        c6:59:26:f5:d2:cc:92:6e:0e:55:94:6d:86:8d:31:53:d1:d9:
        9d:3f:c1:4c:1b:3a:b6:40:79:2b:41:6a:b3:6f:9c:96:6d:f3:
        56:47:fa:01:bf:92:10:cf
-----BEGIN CERTIFICATE-----
MIIEXjCCAkagAwIBAgIBazANBgkqhkiG9w0BAQsFADBGMQswCQYDVQQGEwJDQTEN
MAsGA1UECgwEU0VMRjENMAsGA1UECwwEU0VMRjEZMBcGA1UEAwwQU0VMRiBJREVO
VElUWSBDQTAgFw0yNDA5MDkxNTMzNDBaGA8yMTI0MDgxNjE1MzM0MFowLzELMAkG
A1UEBhMCQ0ExETAPBgNVBAoMCG1iZWQgVExTMQ0wCwYDVQQDDARDZXJ0MIIBIjAN
BgkqhkiG9w0BAQEFAAOCAQ8AMIIBCgKCAQEA1VSS/gKy3zIhWyzyMfIdK3AE11Cl
hkjt7lZyDl0XiaXYe/WlU5yERmzTndULj8xjm2cnPhlGNCxDvZcA/UirWFofTXyH
Dt/qY/lT7s6SSCYs/meSZC7p0feft+dAh8s2y+V5KBkTYJy5l7OuyfsEGk0Wf/jc
Q+9b7Yfk3aIzEO/p2jDVx/TGHNMZebr7sWc7PWAFM3JKqWuUjq2L6S1ni6G2ZBfP
/ulhclCQdDiWk7Iu2LWgprNvwv4mrv5AO6oKRD0o9LQAZbiLU8OhgUz4aa8ZCjev
MkRq1F7+zdGmM33QHypO1cO0mQllFLidT7Vskh8n1WlBHlcj3GGi6/hplwIDAQAB
o2wwajAdBgNVHQ4EFgQU+WqkrgvCgkXdOC+c27HTy0Y2gRgwHwYDVR0jBBgwFoAU
l271sTig+lUoDdXM4sNB+W/3LlcwCQYDVR0TBAIwADALBgNVHQ8EBAMCBaAwEAYJ
YIZIAYb4QgEBBAMDAQAwDQYJKoZIhvcNAQELBQADggIBAEKiTTQ5atAWBrwFmx85
KN2EnIdrdg5KxhiHEa3Iou4RpRoFQdB1ePK4nYZuVxmbhxV1ou0TPc5dWxLZXgYr
NW/qzSZRaJlKNGhFhfGyBGkQov7OvDvJ6cuo7H670aULbUrThRAh87Og5jJeiM/l
o3ud3zOisj9MQoPAPoW2c66wFvDciXPIaXwCDnd6N5czr7i/3NheT4/XOw6PGi3s
xEqYczwxX1YLDj1d2DdQubtpESPg6wuFkmfpDnFDRX9RqilnCdPVW5RTG4/wq/U/
agRH0Rwy3qgLU+/mzbmnJ8+/YElhsLGMUssBdWXA+ta6aIRytJn25C8ADb9BvJJt
ocYGynVZegWalFOUcz4/1TR37AiD6lv7lOVXCRwfYp4OyQWPzE97i4P3HuOSMV9R
EwT48MxPQfaIUCswrT7rADcpjVw8gqKGz3tqkNs4z0df8MQLptrG+9Pr9s/ldYkG
dr07gLgkBzhWgWrDU9LZR5Dm5rkomh84R5IegjB7m59SfVKryzRpf/GD1vQvC9M+
QMXSH0FyAhoJvU0Sb96nl9bfF2+BQY+8SEaRV5CY1XQS+nzzTVAMwkGC1lzT0MQb
kUgkjSlG7l+5rxXlv+25ph5ozoUdD8ZZJvXSzJJuDlWUbYaNMVPR2Z0/wUwbOrZA
eStBarNvnJZt81ZH+gG/khDP
-----END CERTIFICATE-----
