Certificate:
    Data:
        Version: 3 (0x2)
        Serial Number: 108 (0x6c)
        Signature Algorithm: sha256WithRSAEncryption
        Issuer: C=CA, O=SELF, OU=SELF, CN=SELF IDENTITY CA
        Validity
            Not Before: Sep  9 15:34:16 2024 GMT
            Not After : Aug 16 15:34:16 2124 GMT
        Subject: C=CA, O=mbed TLS, CN=Cert
        Subject Public Key Info:
            Public Key Algorithm: rsaEncryption
                Public-Key: (2048 bit)
                Modulus:
                    00:d5:54:92:fe:02:b2:df:32:21:5b:2c:f2:31:f2:
                    1d:2b:70:04:d7:50:a5:86:48:ed:ee:56:72:0e:5d:
                    17:89:a5:d8:7b:f5:a5:53:9c:84:46:6c:d3:9d:d5:
                    0b:8f:cc:63:9b:67:27:3e:19:46:34:2c:43:bd:97:
                    00:fd:48:ab:58:5a:1f:4d:7c:87:0e:df:ea:63:f9:
                    53:ee:ce:92:48:26:2c:fe:67:92:64:2e:e9:d1:f7:
                    9f:b7:e7:40:87:cb:36:cb:e5:79:28:19:13:60:9c:
                    b9:97:b3:ae:c9:fb:04:1a:4d:16:7f:f8:dc:43:ef:
                    5b:ed:87:e4:dd:a2:33:10:ef:e9:da:30:d5:c7:f4:
                    c6:1c:d3:19:79:ba:fb:b1:67:3b:3d:60:05:33:72:
                    4a:a9:6b:94:8e:ad:8b:e9:2d:67:8b:a1:b6:64:17:
                    cf:fe:e9:61:72:50:90:74:38:96:93:b2:2e:d8:b5:
                    a0:a6:b3:6f:c2:fe:26:ae:fe:40:3b:aa:0a:44:3d:
                    28:f4:b4:00:65:b8:8b:53:c3:a1:81:4c:f8:69:af:
                    19:0a:37:af:32:44:6a:d4:5e:fe:cd:d1:a6:33:7d:
                    d0:1f:2a:4e:d5:c3:b4:99:09:65:14:b8:9d:4f:b5:
                    6c:92:1f:27:d5:69:41:1e:57:23:dc:61:a2:eb:f8:
                    69:97
                Exponent: 65537 (0x10001)
        X509v3 extensions:
            X509v3 Subject Key Identifier: 
                F9:6A:A4:AE:0B:C2:82:45:DD:38:2F:9C:DB:B1:D3:CB:46:36:81:18
            X509v3 Authority Key Identifier: 
                97:6E:F5:B1:38:A0:FA:55:28:0D:D5:CC:E2:C3:41:F9:6F:F7:2E:57
            X509v3 Basic Constraints: 
                CA:FALSE
            X509v3 Key Usage: 
                Digital Signature, Key Encipherment
            Netscape Cert Type: 
                ...
    Signature Algorithm: sha256WithRSAEncryption
    Signature Value:
        80:48:29:23:75:e1:f1:6c:f9:7c:16:e6:60:ca:63:6b:37:0b:
        76:eb:22:3d:d9:be:88:92:24:f7:10:22:e8:56:d8:6d:d0:09:
        3e:38:87:8f:5a:1c:45:f1:95:5f:88:d1:83:8c:0d:83:fe:ee:
        42:b8:43:24:61:5e:90:36:e4:88:2b:1b:85:f4:90:39:ae:53:
        5e:68:6a:c2:ca:da:fb:a0:4f:10:9c:c1:ad:58:26:b0:9d:a7:
        dd:8e:c4:af:09:33:f5:70:31:e2:ed:2a:cf:d8:83:3c:37:80:
        0f:83:82:20:b4:95:b6:ee:5d:13:ac:39:24:44:34:e2:66:a2:
        49:5c:1f:d9:db:1b:09:c3:1f:8b:81:ae:f5:c2:b4:eb:d6:8f:
        67:79:fd:f6:ab:46:17:58:f9:7f:14:de:90:3b:3a:32:5f:24:
        24:82:30:02:e1:76:ca:65:7e:09:58:a7:4e:9a:53:6b:75:c6:
        bd:68:c7:eb:31:db:33:2c:20:40:3b:86:07:5f:93:fa:a8:e3:
        84:ac:3a:d8:dc:0f:ae:61:1e:33:d3:1c:4e:82:c3:a3:6b:22:
        6a:69:f9:fd:fc:a7:e2:d5:7f:bb:9b:52:8f:d3:04:d9:9b:28:
        aa:52:7e:ff:03:b5:c8:b5:f4:9a:b9:3c:4e:62:d8:03:e3:87:
        26:95:a7:b1:1d:c4:aa:ce:5e:e7:0a:06:6e:1f:3a:ee:c9:e0:
        6e:54:e7:6e:a1:3a:57:8e:42:58:e6:db:72:21:86:e3:ff:6f:
        a0:7c:91:99:65:0a:9b:67:f2:d7:4f:f7:ad:b2:e3:8f:8e:1e:
        57:5b:48:67:6d:4c:a3:87:d9:23:78:a8:cd:5c:0c:d3:c2:87:
        39:ba:ca:38:a8:93:9a:8a:a1:af:87:75:42:59:ee:a9:8b:07:
        18:3e:c3:41:52:2e:49:eb:e1:0d:3d:9a:0d:fd:df:cd:32:15:
        3f:06:35:cc:a6:3b:b2:90:e8:ac:7c:b0:b9:20:22:0d:f8:7a:
        fe:3a:fd:02:e3:00:b2:81:67:75:99:37:f9:2c:fc:4e:a9:b0:
        85:97:1d:52:dc:83:05:10:f2:46:e1:ae:f0:20:f8:9b:ae:40:
        61:38:0a:12:04:a7:1f:45:43:73:5b:92:72:b8:72:44:9a:96:
        49:27:a4:fc:2d:49:7c:39:68:68:99:5e:6b:f9:dc:61:b8:25:
        28:7b:cf:f3:92:87:6a:1b:18:ba:ee:3d:6c:bc:a5:ff:fc:87:
        a5:0c:af:de:45:47:13:62:80:37:3b:d9:16:18:b3:e1:34:43:
        46:94:16:89:49:4f:b1:2e:a6:b6:4e:a2:17:22:19:9f:77:1b:
        b1:02:f9:96:58:87:35:cf
-----BEGIN CERTIFICATE-----
MIIEXjCCAkagAwIBAgIBbDANBgkqhkiG9w0BAQsFADBGMQswCQYDVQQGEwJDQTEN
MAsGA1UECgwEU0VMRjENMAsGA1UECwwEU0VMRjEZMBcGA1UEAwwQU0VMRiBJREVO
VElUWSBDQTAgFw0yNDA5MDkxNTM0MTZaGA8yMTI0MDgxNjE1MzQxNlowLzELMAkG
A1UEBhMCQ0ExETAPBgNVBAoMCG1iZWQgVExTMQ0wCwYDVQQDDARDZXJ0MIIBIjAN
BgkqhkiG9w0BAQEFAAOCAQ8AMIIBCgKCAQEA1VSS/gKy3zIhWyzyMfIdK3AE11Cl
hkjt7lZyDl0XiaXYe/WlU5yERmzTndULj8xjm2cnPhlGNCxDvZcA/UirWFofTXyH
Dt/qY/lT7s6SSCYs/meSZC7p0feft+dAh8s2y+V5KBkTYJy5l7OuyfsEGk0Wf/jc
Q+9b7Yfk3aIzEO/p2jDVx/TGHNMZebr7sWc7PWAFM3JKqWuUjq2L6S1ni6G2ZBfP
/ulhclCQdDiWk7Iu2LWgprNvwv4mrv5AO6oKRD0o9LQAZbiLU8OhgUz4aa8ZCjev
MkRq1F7+zdGmM33QHypO1cO0mQllFLidT7Vskh8n1WlBHlcj3GGi6/hplwIDAQAB
o2wwajAdBgNVHQ4EFgQU+WqkrgvCgkXdOC+c27HTy0Y2gRgwHwYDVR0jBBgwFoAU
l271sTig+lUoDdXM4sNB+W/3LlcwCQYDVR0TBAIwADALBgNVHQ8EBAMCBaAwEAYJ
YIZIAYb4QgEBBAMDAQAwDQYJKoZIhvcNAQELBQADggIBAIBIKSN14fFs+XwW5mDK
Y2s3C3brIj3ZvoiSJPcQIuhW2G3QCT44h49aHEXxlV+I0YOMDYP+7kK4QyRhXpA2
5IgrG4X0kDmuU15oasLK2vugTxCcwa1YJrCdp92OxK8JM/VwMeLtKs/Ygzw3gA+D
giC0lbbuXROsOSRENOJmoklcH9nbGwnDH4uBrvXCtOvWj2d5/farRhdY+X8U3pA7
OjJfJCSCMALhdsplfglYp06aU2t1xr1ox+sx2zMsIEA7hgdfk/qo44SsOtjcD65h
HjPTHE6Cw6NrImpp+f38p+LVf7ubUo/TBNmbKKpSfv8Dtci19Jq5PE5i2APjhyaV
p7EdxKrOXucKBm4fOu7J4G5U526hOleOQljm23IhhuP/b6B8kZllCptn8tdP962y
44+OHldbSGdtTKOH2SN4qM1cDNPChzm6yjiok5qKoa+HdUJZ7qmLBxg+w0FSLknr
4Q09mg39380yFT8GNcymO7KQ6Kx8sLkgIg34ev46/QLjALKBZ3WZN/ks/E6psIWX
HVLcgwUQ8kbhrvAg+JuuQGE4ChIEpx9FQ3NbknK4ckSalkknpPwtSXw5aGiZXmv5
3GG4JSh7z/OSh2obGLruPWy8pf/8h6UMr95FRxNigDc72RYYs+E0Q0aUFolJT7Eu
prZOohciGZ93G7EC+ZZYhzXP
-----END CERTIFICATE-----
