Certificate:
    Data:
        Version: 3 (0x2)
        Serial Number: 109 (0x6d)
        Signature Algorithm: sha256WithRSAEncryption
        Issuer: C=CA, O=SELF, OU=SELF, CN=SELF IDENTITY CA
        Validity
            Not Before: Sep  9 15:37:01 2024 GMT
            Not After : Aug 16 15:37:01 2124 GMT
        Subject: C=CA, O=mbed TLS, CN=Cert
        Subject Public Key Info:
            Public Key Algorithm: rsaEncryption
                Public-Key: (2048 bit)
                Modulus:
                    00:d5:54:92:fe:02:b2:df:32:21:5b:2c:f2:31:f2:
                    1d:2b:70:04:d7:50:a5:86:48:ed:ee:56:72:0e:5d:
                    17:89:a5:d8:7b:f5:a5:53:9c:84:46:6c:d3:9d:d5:
                    0b:8f:cc:63:9b:67:27:3e:19:46:34:2c:43:bd:97:
                    00:fd:48:ab:58:5a:1f:4d:7c:87:0e:df:ea:63:f9:
                    53:ee:ce:92:48:26:2c:fe:67:92:64:2e:e9:d1:f7:
                    9f:b7:e7:40:87:cb:36:cb:e5:79:28:19:13:60:9c:
                    b9:97:b3:ae:c9:fb:04:1a:4d:16:7f:f8:dc:43:ef:
                    5b:ed:87:e4:dd:a2:33:10:ef:e9:da:30:d5:c7:f4:
                    c6:1c:d3:19:79:ba:fb:b1:67:3b:3d:60:05:33:72:
                    4a:a9:6b:94:8e:ad:8b:e9:2d:67:8b:a1:b6:64:17:
                    cf:fe:e9:61:72:50:90:74:38:96:93:b2:2e:d8:b5:
                    a0:a6:b3:6f:c2:fe:26:ae:fe:40:3b:aa:0a:44:3d:
                    28:f4:b4:00:65:b8:8b:53:c3:a1:81:4c:f8:69:af:
                    19:0a:37:af:32:44:6a:d4:5e:fe:cd:d1:a6:33:7d:
                    d0:1f:2a:4e:d5:c3:b4:99:09:65:14:b8:9d:4f:b5:
                    6c:92:1f:27:d5:69:41:1e:57:23:dc:61:a2:eb:f8:
                    69:97
                Exponent: 65537 (0x10001)
        X509v3 extensions:
            X509v3 Subject Key Identifier: 
                F9:6A:A4:AE:0B:C2:82:45:DD:38:2F:9C:DB:B1:D3:CB:46:36:81:18
            X509v3 Authority Key Identifier: 
                97:6E:F5:B1:38:A0:FA:55:28:0D:D5:CC:E2:C3:41:F9:6F:F7:2E:57
            X509v3 Basic Constraints: 
                CA:FALSE
            X509v3 Key Usage: 
                Digital Signature, Key Encipherment
            Netscape Cert Type: 
                ...
    Signature Algorithm: sha256WithRSAEncryption
    Signature Value:
        0e:26:a9:d0:2f:53:83:d9:0e:82:10:0a:44:bd:8d:01:81:28:
        90:5d:41:08:d5:31:01:62:3e:eb:77:b9:c1:6e:a4:c0:e7:4f:
        9b:d1:fb:ab:4c:f2:fc:d5:41:83:44:61:8e:8e:d7:a7:7b:f1:
        23:8f:ed:fd:8a:29:f7:13:60:bd:6f:36:a9:23:7e:42:61:12:
        3e:03:6d:aa:62:ca:5b:5c:96:34:06:5d:9d:1d:03:ac:9e:53:
        39:89:3e:b9:30:f9:0d:b9:a0:d8:c6:9e:4f:8f:77:2a:a7:6e:
        4b:77:a8:44:d6:bc:6b:d3:da:ea:f8:3b:45:a9:8d:41:05:f5:
        67:b1:e6:63:ce:65:95:b1:8b:1d:7c:2b:a8:1f:db:15:53:47:
        f7:fb:41:a7:15:0c:ef:8d:30:b3:eb:13:ff:7d:38:e9:61:f2:
        b5:aa:11:a3:7a:17:28:53:81:11:90:c5:5e:a7:02:68:94:4c:
        62:74:33:01:2e:e2:33:bb:80:67:13:77:fb:9d:53:fc:b8:ca:
        31:2f:0b:e3:aa:8e:cb:27:b9:d7:ef:ca:c0:68:b2:6f:a9:ae:
        15:d3:0f:f7:a7:dc:c4:00:7e:be:c2:4d:15:2b:63:2f:b8:26:
        7d:3f:d5:62:c4:47:12:90:ee:25:d2:53:00:e0:88:ec:13:4b:
        83:89:28:6c:b8:15:3c:7e:e7:8a:f5:91:51:b7:e1:df:4a:f1:
        92:bb:c2:53:3f:3e:ce:b7:d0:8e:eb:6f:74:7a:37:48:39:50:
        88:ce:f0:5a:7c:a9:50:3b:e5:4c:d5:dd:9c:92:14:4e:45:09:
        ae:a4:56:cb:83:56:4d:b1:be:fc:26:ba:6f:6a:6c:ff:14:a4:
        c8:84:a3:41:ea:2e:8a:83:3d:4a:13:11:3c:43:fd:64:a7:45:
        c5:af:da:c9:94:02:f9:db:3d:5d:96:e6:66:48:7c:8d:e5:58:
        6c:34:70:27:a6:bb:9f:a3:f4:11:ac:1d:ae:18:4a:59:26:5a:
        51:74:c9:50:39:d9:40:e0:9b:5b:0e:7e:a5:bf:f2:60:04:66:
        a3:f8:32:a4:ec:88:52:89:03:0f:78:05:65:59:1d:5b:4d:8c:
        37:3d:56:77:0e:74:b5:23:d8:29:0a:da:b5:c7:8b:c4:98:33:
        19:4a:5b:32:36:99:4e:85:ae:d1:d6:63:a7:9c:41:f5:19:60:
        7d:82:1b:d9:2e:50:44:e0:7c:9c:e0:4d:9f:ce:fa:ce:4a:60:
        86:cc:74:84:7d:f8:dc:20:d5:d4:6d:cc:7e:f8:36:9a:e6:63:
        b6:31:67:74:20:ff:f2:ea:3e:2b:11:7c:df:9d:ec:12:96:d2:
        a9:8d:a7:a9:62:fd:80:46
-----BEGIN CERTIFICATE-----
MIIEXjCCAkagAwIBAgIBbTANBgkqhkiG9w0BAQsFADBGMQswCQYDVQQGEwJDQTEN
MAsGA1UECgwEU0VMRjENMAsGA1UECwwEU0VMRjEZMBcGA1UEAwwQU0VMRiBJREVO
VElUWSBDQTAgFw0yNDA5MDkxNTM3MDFaGA8yMTI0MDgxNjE1MzcwMVowLzELMAkG
A1UEBhMCQ0ExETAPBgNVBAoMCG1iZWQgVExTMQ0wCwYDVQQDDARDZXJ0MIIBIjAN
BgkqhkiG9w0BAQEFAAOCAQ8AMIIBCgKCAQEA1VSS/gKy3zIhWyzyMfIdK3AE11Cl
hkjt7lZyDl0XiaXYe/WlU5yERmzTndULj8xjm2cnPhlGNCxDvZcA/UirWFofTXyH
Dt/qY/lT7s6SSCYs/meSZC7p0feft+dAh8s2y+V5KBkTYJy5l7OuyfsEGk0Wf/jc
Q+9b7Yfk3aIzEO/p2jDVx/TGHNMZebr7sWc7PWAFM3JKqWuUjq2L6S1ni6G2ZBfP
/ulhclCQdDiWk7Iu2LWgprNvwv4mrv5AO6oKRD0o9LQAZbiLU8OhgUz4aa8ZCjev
MkRq1F7+zdGmM33QHypO1cO0mQllFLidT7Vskh8n1WlBHlcj3GGi6/hplwIDAQAB
o2wwajAdBgNVHQ4EFgQU+WqkrgvCgkXdOC+c27HTy0Y2gRgwHwYDVR0jBBgwFoAU
l271sTig+lUoDdXM4sNB+W/3LlcwCQYDVR0TBAIwADALBgNVHQ8EBAMCBaAwEAYJ
YIZIAYb4QgEBBAMDAQAwDQYJKoZIhvcNAQELBQADggIBAA4mqdAvU4PZDoIQCkS9
jQGBKJBdQQjVMQFiPut3ucFupMDnT5vR+6tM8vzVQYNEYY6O16d78SOP7f2KKfcT
YL1vNqkjfkJhEj4DbapiyltcljQGXZ0dA6yeUzmJPrkw+Q25oNjGnk+Pdyqnbkt3
qETWvGvT2ur4O0WpjUEF9Wex5mPOZZWxix18K6gf2xVTR/f7QacVDO+NMLPrE/99
OOlh8rWqEaN6FyhTgRGQxV6nAmiUTGJ0MwEu4jO7gGcTd/udU/y4yjEvC+Oqjssn
udfvysBosm+prhXTD/en3MQAfr7CTRUrYy+4Jn0/1WLERxKQ7iXSUwDgiOwTS4OJ
KGy4FTx+54r1kVG34d9K8ZK7wlM/Ps630I7rb3R6N0g5UIjO8Fp8qVA75UzV3ZyS
FE5FCa6kVsuDVk2xvvwmum9qbP8UpMiEo0HqLoqDPUoTETxD/WSnRcWv2smUAvnb
PV2W5mZIfI3lWGw0cCemu5+j9BGsHa4YSlkmWlF0yVA52UDgm1sOfqW/8mAEZqP4
MqTsiFKJAw94BWVZHVtNjDc9VncOdLUj2CkK2rXHi8SYMxlKWzI2mU6FrtHWY6ec
QfUZYH2CG9kuUETgfJzgTZ/O+s5KYIbMdIR9+Nwg1dRtzH74NprmY7YxZ3Qg//Lq
PisRfN+d7BKW0qmNp6li/YBG
-----END CERTIFICATE-----
