Certificate:
    Data:
        Version: 3 (0x2)
        Serial Number: 110 (0x6e)
        Signature Algorithm: sha256WithRSAEncryption
        Issuer: C=CA, O=SELF, OU=SELF, CN=SELF IDENTITY CA
        Validity
            Not Before: Sep  9 15:37:32 2024 GMT
            Not After : Aug 16 15:37:32 2124 GMT
        Subject: C=CA, O=mbed TLS, CN=Cert
        Subject Public Key Info:
            Public Key Algorithm: rsaEncryption
                Public-Key: (2048 bit)
                Modulus:
                    00:d5:54:92:fe:02:b2:df:32:21:5b:2c:f2:31:f2:
                    1d:2b:70:04:d7:50:a5:86:48:ed:ee:56:72:0e:5d:
                    17:89:a5:d8:7b:f5:a5:53:9c:84:46:6c:d3:9d:d5:
                    0b:8f:cc:63:9b:67:27:3e:19:46:34:2c:43:bd:97:
                    00:fd:48:ab:58:5a:1f:4d:7c:87:0e:df:ea:63:f9:
                    53:ee:ce:92:48:26:2c:fe:67:92:64:2e:e9:d1:f7:
                    9f:b7:e7:40:87:cb:36:cb:e5:79:28:19:13:60:9c:
                    b9:97:b3:ae:c9:fb:04:1a:4d:16:7f:f8:dc:43:ef:
                    5b:ed:87:e4:dd:a2:33:10:ef:e9:da:30:d5:c7:f4:
                    c6:1c:d3:19:79:ba:fb:b1:67:3b:3d:60:05:33:72:
                    4a:a9:6b:94:8e:ad:8b:e9:2d:67:8b:a1:b6:64:17:
                    cf:fe:e9:61:72:50:90:74:38:96:93:b2:2e:d8:b5:
                    a0:a6:b3:6f:c2:fe:26:ae:fe:40:3b:aa:0a:44:3d:
                    28:f4:b4:00:65:b8:8b:53:c3:a1:81:4c:f8:69:af:
                    19:0a:37:af:32:44:6a:d4:5e:fe:cd:d1:a6:33:7d:
                    d0:1f:2a:4e:d5:c3:b4:99:09:65:14:b8:9d:4f:b5:
                    6c:92:1f:27:d5:69:41:1e:57:23:dc:61:a2:eb:f8:
                    69:97
                Exponent: 65537 (0x10001)
        X509v3 extensions:
            X509v3 Subject Key Identifier: 
                F9:6A:A4:AE:0B:C2:82:45:DD:38:2F:9C:DB:B1:D3:CB:46:36:81:18
            X509v3 Authority Key Identifier: 
                97:6E:F5:B1:38:A0:FA:55:28:0D:D5:CC:E2:C3:41:F9:6F:F7:2E:57
            X509v3 Basic Constraints: 
                CA:FALSE
            X509v3 Key Usage: 
                Digital Signature, Key Encipherment
            Netscape Cert Type: 
                ...
    Signature Algorithm: sha256WithRSAEncryption
    Signature Value:
        14:d7:b7:e0:c2:fd:76:bf:c3:e7:e0:c8:78:a0:00:76:0c:ec:
        e5:ab:02:0b:1d:27:cf:a7:59:aa:99:12:e4:52:bd:db:78:47:
        ab:21:fc:83:81:4a:35:12:0c:41:f8:85:03:0f:bb:14:82:16:
        01:be:9f:ab:54:18:ed:d4:0b:cd:e1:f3:e4:7e:bd:93:f4:db:
        e9:47:74:42:b0:e9:f8:58:8a:a2:df:3b:3b:8a:68:ca:29:2f:
        5a:52:30:e8:16:7f:d0:c5:f6:95:92:2f:14:75:44:0f:cf:04:
        df:27:7f:76:f8:83:eb:64:88:e5:cd:fb:e4:28:a1:a5:aa:13:
        71:67:e1:8b:c3:14:13:da:1c:ae:b1:7e:f0:b8:82:dd:75:51:
        4f:70:fe:80:89:d3:ee:43:fc:7c:0c:8a:58:84:5a:65:e7:1e:
        20:d7:16:fe:4d:36:b2:9b:ea:a9:45:3b:e6:e7:bb:55:88:21:
        a4:62:bb:bb:75:fe:b7:57:0b:99:21:35:e3:9f:9e:a9:ad:d7:
        b5:b7:d8:1a:da:1f:1d:a3:99:80:7a:66:62:62:53:6a:47:85:
        89:12:20:a0:30:2c:6a:7e:0d:31:e6:01:1a:b5:c0:3b:31:74:
        ad:b4:d8:e3:93:c3:7a:16:aa:6c:43:8d:6b:bf:a5:da:9b:14:
        e6:fb:85:c8:64:82:94:d6:bd:55:19:d7:0c:a3:ad:ee:63:d0:
        00:fc:89:50:57:55:c9:cb:cb:43:20:eb:8f:1b:32:a3:d1:32:
        10:d0:3e:a9:3d:ba:10:45:bd:dd:c7:a1:9a:6e:67:82:59:b7:
        c7:24:a5:44:9f:82:83:13:86:f7:7a:e6:4c:aa:1f:70:b0:a6:
        3e:76:2d:2a:1a:a7:ec:54:13:1c:70:ce:ce:74:97:51:a7:7d:
        06:81:70:2c:d0:bc:a2:b0:8a:0c:c2:a2:c7:77:54:c8:c3:99:
        99:00:56:04:5b:62:d3:f1:4e:50:d5:fe:73:70:d0:19:50:ee:
        95:aa:d1:77:4b:fe:a8:95:c6:67:90:04:31:98:9b:f8:01:4c:
        51:f5:06:e6:c2:5c:f2:5e:44:88:58:d8:a4:cb:c8:5f:12:12:
        c1:a0:8a:df:b4:97:da:38:d9:85:43:19:d3:ae:0b:16:ad:a4:
        20:4b:57:6b:42:38:76:7d:f6:ac:45:e3:ac:99:65:68:8c:7c:
        46:5e:56:26:a1:c0:1c:a9:5f:43:48:67:7b:cd:f5:bf:4b:61:
        35:db:f6:d2:ae:dc:c9:36:b8:9b:c1:4a:3a:7c:9f:0a:5f:4d:
        34:fb:38:81:f1:57:b5:9c:e5:4e:ce:24:96:3c:33:69:7f:2b:
        90:76:62:3e:03:cb:2e:40
-----BEGIN CERTIFICATE-----
MIIEXjCCAkagAwIBAgIBbjANBgkqhkiG9w0BAQsFADBGMQswCQYDVQQGEwJDQTEN
MAsGA1UECgwEU0VMRjENMAsGA1UECwwEU0VMRjEZMBcGA1UEAwwQU0VMRiBJREVO
VElUWSBDQTAgFw0yNDA5MDkxNTM3MzJaGA8yMTI0MDgxNjE1MzczMlowLzELMAkG
A1UEBhMCQ0ExETAPBgNVBAoMCG1iZWQgVExTMQ0wCwYDVQQDDARDZXJ0MIIBIjAN
BgkqhkiG9w0BAQEFAAOCAQ8AMIIBCgKCAQEA1VSS/gKy3zIhWyzyMfIdK3AE11Cl
hkjt7lZyDl0XiaXYe/WlU5yERmzTndULj8xjm2cnPhlGNCxDvZcA/UirWFofTXyH
Dt/qY/lT7s6SSCYs/meSZC7p0feft+dAh8s2y+V5KBkTYJy5l7OuyfsEGk0Wf/jc
Q+9b7Yfk3aIzEO/p2jDVx/TGHNMZebr7sWc7PWAFM3JKqWuUjq2L6S1ni6G2ZBfP
/ulhclCQdDiWk7Iu2LWgprNvwv4mrv5AO6oKRD0o9LQAZbiLU8OhgUz4aa8ZCjev
MkRq1F7+zdGmM33QHypO1cO0mQllFLidT7Vskh8n1WlBHlcj3GGi6/hplwIDAQAB
o2wwajAdBgNVHQ4EFgQU+WqkrgvCgkXdOC+c27HTy0Y2gRgwHwYDVR0jBBgwFoAU
l271sTig+lUoDdXM4sNB+W/3LlcwCQYDVR0TBAIwADALBgNVHQ8EBAMCBaAwEAYJ
YIZIAYb4QgEBBAMDAQAwDQYJKoZIhvcNAQELBQADggIBABTXt+DC/Xa/w+fgyHig
AHYM7OWrAgsdJ8+nWaqZEuRSvdt4R6sh/IOBSjUSDEH4hQMPuxSCFgG+n6tUGO3U
C83h8+R+vZP02+lHdEKw6fhYiqLfOzuKaMopL1pSMOgWf9DF9pWSLxR1RA/PBN8n
f3b4g+tkiOXN++QooaWqE3Fn4YvDFBPaHK6xfvC4gt11UU9w/oCJ0+5D/HwMiliE
WmXnHiDXFv5NNrKb6qlFO+bnu1WIIaRiu7t1/rdXC5khNeOfnqmt17W32BraHx2j
mYB6ZmJiU2pHhYkSIKAwLGp+DTHmARq1wDsxdK202OOTw3oWqmxDjWu/pdqbFOb7
hchkgpTWvVUZ1wyjre5j0AD8iVBXVcnLy0Mg648bMqPRMhDQPqk9uhBFvd3HoZpu
Z4JZt8ckpUSfgoMThvd65kyqH3Cwpj52LSoap+xUExxwzs50l1GnfQaBcCzQvKKw
igzCosd3VMjDmZkAVgRbYtPxTlDV/nNw0BlQ7pWq0XdL/qiVxmeQBDGYm/gBTFH1
BubCXPJeRIhY2KTLyF8SEsGgit+0l9o42YVDGdOuCxatpCBLV2tCOHZ99qxF46yZ
ZWiMfEZeViahwBypX0NIZ3vN9b9LYTXb9tKu3Mk2uJvBSjp8nwpfTTT7OIHxV7Wc
5U7OJJY8M2l/K5B2Yj4Dyy5A
-----END CERTIFICATE-----
