Certificate:
    Data:
        Version: 3 (0x2)
        Serial Number: 111 (0x6f)
        Signature Algorithm: sha256WithRSAEncryption
        Issuer: C=CA, O=SELF, OU=SELF, CN=SELF IDENTITY CA
        Validity
            Not Before: Sep  9 15:38:21 2024 GMT
            Not After : Aug 16 15:38:21 2124 GMT
        Subject: C=CA, O=mbed TLS, CN=Cert
        Subject Public Key Info:
            Public Key Algorithm: rsaEncryption
                Public-Key: (2048 bit)
                Modulus:
                    00:d5:54:92:fe:02:b2:df:32:21:5b:2c:f2:31:f2:
                    1d:2b:70:04:d7:50:a5:86:48:ed:ee:56:72:0e:5d:
                    17:89:a5:d8:7b:f5:a5:53:9c:84:46:6c:d3:9d:d5:
                    0b:8f:cc:63:9b:67:27:3e:19:46:34:2c:43:bd:97:
                    00:fd:48:ab:58:5a:1f:4d:7c:87:0e:df:ea:63:f9:
                    53:ee:ce:92:48:26:2c:fe:67:92:64:2e:e9:d1:f7:
                    9f:b7:e7:40:87:cb:36:cb:e5:79:28:19:13:60:9c:
                    b9:97:b3:ae:c9:fb:04:1a:4d:16:7f:f8:dc:43:ef:
                    5b:ed:87:e4:dd:a2:33:10:ef:e9:da:30:d5:c7:f4:
                    c6:1c:d3:19:79:ba:fb:b1:67:3b:3d:60:05:33:72:
                    4a:a9:6b:94:8e:ad:8b:e9:2d:67:8b:a1:b6:64:17:
                    cf:fe:e9:61:72:50:90:74:38:96:93:b2:2e:d8:b5:
                    a0:a6:b3:6f:c2:fe:26:ae:fe:40:3b:aa:0a:44:3d:
                    28:f4:b4:00:65:b8:8b:53:c3:a1:81:4c:f8:69:af:
                    19:0a:37:af:32:44:6a:d4:5e:fe:cd:d1:a6:33:7d:
                    d0:1f:2a:4e:d5:c3:b4:99:09:65:14:b8:9d:4f:b5:
                    6c:92:1f:27:d5:69:41:1e:57:23:dc:61:a2:eb:f8:
                    69:97
                Exponent: 65537 (0x10001)
        X509v3 extensions:
            X509v3 Subject Key Identifier: 
                F9:6A:A4:AE:0B:C2:82:45:DD:38:2F:9C:DB:B1:D3:CB:46:36:81:18
            X509v3 Authority Key Identifier: 
                97:6E:F5:B1:38:A0:FA:55:28:0D:D5:CC:E2:C3:41:F9:6F:F7:2E:57
            X509v3 Basic Constraints: 
                CA:FALSE
            X509v3 Key Usage: 
                Digital Signature, Key Encipherment
            Netscape Cert Type: 
                ...
    Signature Algorithm: sha256WithRSAEncryption
    Signature Value:
        8d:63:39:a4:32:de:e3:49:98:2e:be:d5:4d:8d:45:f3:0a:fd:
        d3:08:20:3b:32:bd:5a:2d:f6:45:48:da:91:54:71:50:8b:3d:
        ae:97:43:b1:f1:f1:f8:cd:18:26:fe:61:af:2e:9e:1d:bb:22:
        e9:a4:62:c0:38:9f:97:b2:72:a6:dc:c2:b1:b5:09:12:e4:5f:
        0b:08:d6:c5:db:6b:90:fb:e2:c4:8c:c9:41:13:fb:0e:67:7d:
        2c:b7:c8:44:15:57:26:e8:2c:15:2c:7e:c9:87:ab:07:2b:c3:
        91:cf:0b:af:5a:a1:99:7c:3a:d2:e3:65:97:3e:dd:df:36:17:
        b5:67:19:77:f5:52:a5:8f:1e:a3:e2:80:21:c2:91:5c:ae:af:
        bc:fa:9a:f5:dc:d1:ad:1c:50:66:89:b1:94:1e:73:f2:48:60:
        47:59:29:c7:a1:de:33:59:0d:db:5f:ed:70:f5:be:34:97:43:
        90:99:09:1f:48:27:7d:f4:a1:16:a4:26:ed:f2:c9:2b:e9:07:
        e0:5d:04:a5:37:73:79:77:74:5e:87:3a:f1:ef:08:bb:75:a3:
        ca:c0:5f:6e:4a:15:ab:15:1d:cb:c3:9e:ca:8a:fd:40:4f:b7:
        2c:65:8b:4f:23:ac:9d:9f:eb:b5:22:39:6e:07:b8:25:64:f7:
        cd:65:d2:ca:0f:12:e9:19:89:a1:e3:30:25:6e:e3:1c:0a:14:
        c2:47:95:7c:79:77:64:0b:e8:2c:7e:88:5f:08:aa:f2:42:4a:
        6b:e8:8e:01:3a:56:25:8f:df:0c:a8:da:a8:39:a1:c5:ab:a2:
        cb:5c:1c:e8:2c:5f:fe:28:e8:5b:23:fd:14:9b:90:1d:96:a5:
        a1:b0:b0:df:56:a5:1d:f5:7b:5f:05:3b:0c:3d:f0:69:0d:7e:
        87:16:59:31:ac:f9:46:05:d4:97:52:74:c2:9b:c7:05:4a:1c:
        b5:e3:aa:ee:26:6b:88:08:02:4e:15:e3:25:db:c6:e3:11:91:
        6c:b6:d9:fd:aa:1c:ca:65:a9:7f:b2:ca:8a:8b:9c:62:92:48:
        0f:f6:7a:21:6f:05:4b:4d:72:c4:ba:90:66:3a:39:0e:c6:4c:
        9c:74:da:f1:b5:30:37:b5:ec:da:ed:14:94:bf:dc:34:05:21:
        99:9e:09:be:95:d0:ad:72:65:69:12:77:9e:6b:4f:a4:bf:34:
        e5:a5:8d:17:5c:e9:f4:4e:9a:aa:c4:78:a8:59:16:5a:89:33:
        f2:73:13:bb:7f:68:2d:77:71:7b:67:0a:97:41:07:06:44:d5:
        cc:d6:11:91:cd:b3:fc:61:a3:00:3d:28:ca:94:60:61:fe:29:
        35:2d:d6:0c:d3:ea:66:ab
-----BEGIN CERTIFICATE-----
MIIEXjCCAkagAwIBAgIBbzANBgkqhkiG9w0BAQsFADBGMQswCQYDVQQGEwJDQTEN
MAsGA1UECgwEU0VMRjENMAsGA1UECwwEU0VMRjEZMBcGA1UEAwwQU0VMRiBJREVO
VElUWSBDQTAgFw0yNDA5MDkxNTM4MjFaGA8yMTI0MDgxNjE1MzgyMVowLzELMAkG
A1UEBhMCQ0ExETAPBgNVBAoMCG1iZWQgVExTMQ0wCwYDVQQDDARDZXJ0MIIBIjAN
BgkqhkiG9w0BAQEFAAOCAQ8AMIIBCgKCAQEA1VSS/gKy3zIhWyzyMfIdK3AE11Cl
hkjt7lZyDl0XiaXYe/WlU5yERmzTndULj8xjm2cnPhlGNCxDvZcA/UirWFofTXyH
Dt/qY/lT7s6SSCYs/meSZC7p0feft+dAh8s2y+V5KBkTYJy5l7OuyfsEGk0Wf/jc
Q+9b7Yfk3aIzEO/p2jDVx/TGHNMZebr7sWc7PWAFM3JKqWuUjq2L6S1ni6G2ZBfP
/ulhclCQdDiWk7Iu2LWgprNvwv4mrv5AO6oKRD0o9LQAZbiLU8OhgUz4aa8ZCjev
MkRq1F7+zdGmM33QHypO1cO0mQllFLidT7Vskh8n1WlBHlcj3GGi6/hplwIDAQAB
o2wwajAdBgNVHQ4EFgQU+WqkrgvCgkXdOC+c27HTy0Y2gRgwHwYDVR0jBBgwFoAU
l271sTig+lUoDdXM4sNB+W/3LlcwCQYDVR0TBAIwADALBgNVHQ8EBAMCBaAwEAYJ
YIZIAYb4QgEBBAMDAQAwDQYJKoZIhvcNAQELBQADggIBAI1jOaQy3uNJmC6+1U2N
RfMK/dMIIDsyvVot9kVI2pFUcVCLPa6XQ7Hx8fjNGCb+Ya8unh27IumkYsA4n5ey
cqbcwrG1CRLkXwsI1sXba5D74sSMyUET+w5nfSy3yEQVVyboLBUsfsmHqwcrw5HP
C69aoZl8OtLjZZc+3d82F7VnGXf1UqWPHqPigCHCkVyur7z6mvXc0a0cUGaJsZQe
c/JIYEdZKceh3jNZDdtf7XD1vjSXQ5CZCR9IJ330oRakJu3yySvpB+BdBKU3c3l3
dF6HOvHvCLt1o8rAX25KFasVHcvDnsqK/UBPtyxli08jrJ2f67UiOW4HuCVk981l
0soPEukZiaHjMCVu4xwKFMJHlXx5d2QL6Cx+iF8IqvJCSmvojgE6ViWP3wyo2qg5
ocWrostcHOgsX/4o6Fsj/RSbkB2WpaGwsN9WpR31e18FOww98GkNfocWWTGs+UYF
1JdSdMKbxwVKHLXjqu4ma4gIAk4V4yXbxuMRkWy22f2qHMplqX+yyoqLnGKSSA/2
eiFvBUtNcsS6kGY6OQ7GTJx02vG1MDe17NrtFJS/3DQFIZmeCb6V0K1yZWkSd55r
T6S/NOWljRdc6fROmqrEeKhZFlqJM/JzE7t/aC13cXtnCpdBBwZE1czWEZHNs/xh
owA9KMqUYGH+KTUt1gzT6mar
-----END CERTIFICATE-----
