Certificate:
    Data:
        Version: 3 (0x2)
        Serial Number: 112 (0x70)
        Signature Algorithm: sha256WithRSAEncryption
        Issuer: C=CA, O=SELF, OU=SELF, CN=SELF IDENTITY CA
        Validity
            Not Before: Sep  9 15:39:48 2024 GMT
            Not After : Aug 16 15:39:48 2124 GMT
        Subject: C=CA, O=mbed TLS, CN=Cert
        Subject Public Key Info:
            Public Key Algorithm: rsaEncryption
                Public-Key: (2048 bit)
                Modulus:
                    00:d5:54:92:fe:02:b2:df:32:21:5b:2c:f2:31:f2:
                    1d:2b:70:04:d7:50:a5:86:48:ed:ee:56:72:0e:5d:
                    17:89:a5:d8:7b:f5:a5:53:9c:84:46:6c:d3:9d:d5:
                    0b:8f:cc:63:9b:67:27:3e:19:46:34:2c:43:bd:97:
                    00:fd:48:ab:58:5a:1f:4d:7c:87:0e:df:ea:63:f9:
                    53:ee:ce:92:48:26:2c:fe:67:92:64:2e:e9:d1:f7:
                    9f:b7:e7:40:87:cb:36:cb:e5:79:28:19:13:60:9c:
                    b9:97:b3:ae:c9:fb:04:1a:4d:16:7f:f8:dc:43:ef:
                    5b:ed:87:e4:dd:a2:33:10:ef:e9:da:30:d5:c7:f4:
                    c6:1c:d3:19:79:ba:fb:b1:67:3b:3d:60:05:33:72:
                    4a:a9:6b:94:8e:ad:8b:e9:2d:67:8b:a1:b6:64:17:
                    cf:fe:e9:61:72:50:90:74:38:96:93:b2:2e:d8:b5:
                    a0:a6:b3:6f:c2:fe:26:ae:fe:40:3b:aa:0a:44:3d:
                    28:f4:b4:00:65:b8:8b:53:c3:a1:81:4c:f8:69:af:
                    19:0a:37:af:32:44:6a:d4:5e:fe:cd:d1:a6:33:7d:
                    d0:1f:2a:4e:d5:c3:b4:99:09:65:14:b8:9d:4f:b5:
                    6c:92:1f:27:d5:69:41:1e:57:23:dc:61:a2:eb:f8:
                    69:97
                Exponent: 65537 (0x10001)
        X509v3 extensions:
            X509v3 Subject Key Identifier: 
                F9:6A:A4:AE:0B:C2:82:45:DD:38:2F:9C:DB:B1:D3:CB:46:36:81:18
            X509v3 Authority Key Identifier: 
                97:6E:F5:B1:38:A0:FA:55:28:0D:D5:CC:E2:C3:41:F9:6F:F7:2E:57
            X509v3 Basic Constraints: 
                CA:FALSE
            X509v3 Key Usage: 
                Digital Signature, Key Encipherment
            Netscape Cert Type: 
                ...
    Signature Algorithm: sha256WithRSAEncryption
    Signature Value:
        5e:77:37:c1:fd:a0:4f:aa:fc:27:c4:c3:13:38:e0:97:b3:0a:
        6a:ba:2d:0e:d9:b9:7d:9a:80:88:30:e5:5a:3f:a5:26:f5:ee:
        39:1e:77:a4:c5:ae:bf:88:bb:2a:ef:61:87:f2:1d:d1:1f:54:
        a9:4d:a4:b5:57:b0:be:ba:7d:55:3e:db:73:79:18:82:f6:21:
        d2:2a:23:d8:f0:e4:57:6f:e2:52:d1:f6:88:a6:16:bd:eb:fa:
        7d:76:9e:98:75:82:fb:c2:c7:36:05:d7:47:11:9a:af:2d:be:
        91:ff:58:e4:ff:19:67:5b:cd:fd:38:16:8e:35:75:76:a2:3c:
        16:98:7b:d8:08:09:13:12:14:53:32:c9:12:24:b7:74:f9:bd:
        18:c0:78:06:4b:e7:ce:6f:5c:09:61:30:a7:69:e1:7d:fe:15:
        1c:b2:b6:ea:66:63:ad:e3:48:66:64:f7:d9:2f:de:99:1b:2b:
        75:e2:69:cd:8e:ff:2b:9a:d3:f8:3c:b8:d4:7e:6f:6c:68:e9:
        1c:ee:55:3f:a7:d5:31:4a:c0:70:6c:23:a7:7a:80:78:37:1d:
        27:b9:dd:da:55:59:03:15:ba:62:0a:b3:bf:6b:76:af:cd:3d:
        b7:04:80:8f:82:a6:8b:ed:42:f3:58:59:55:9a:7f:c6:5e:13:
        6d:ae:d3:7c:2b:de:38:47:1c:ed:b6:1d:1e:2d:05:36:f3:b4:
        fb:23:19:6b:54:c5:11:0f:c1:19:1b:69:61:f3:9a:0e:ae:62:
        19:36:54:6f:7e:74:7d:bb:d6:14:9d:7a:4a:bc:d2:18:96:4d:
        ea:92:e9:f7:51:51:ae:70:34:b7:4d:de:b6:cd:0c:d5:38:0a:
        46:7b:e5:1b:99:64:a3:af:ce:07:5d:e3:47:43:d6:77:61:59:
        c3:e8:77:63:9d:4f:11:da:8f:ae:cb:c1:a8:c2:13:13:bd:51:
        16:eb:2c:03:84:d7:80:d0:b4:22:c8:31:60:d4:e4:de:fe:bc:
        04:59:85:45:0e:2f:17:c1:42:02:1f:57:6f:61:ab:20:2d:77:
        b5:22:f8:9a:a8:b8:c7:40:07:7d:8a:f7:e7:cb:0c:3c:27:7b:
        4e:ab:a0:7b:97:00:84:a1:56:84:b4:d4:54:3c:a5:5b:41:e5:
        f7:98:bd:37:e4:d6:9c:c2:b7:3c:03:c3:88:bd:70:de:26:06:
        ac:bd:e4:9c:95:79:54:db:62:f8:60:b8:f4:3e:37:2f:e6:e8:
        83:1c:81:7e:3e:a3:0d:24:36:af:d7:cf:64:43:a6:c2:b4:0d:
        b8:4e:d6:4c:f8:10:7f:c4:e5:d0:f9:45:51:be:9b:ff:95:25:
        30:6e:43:c4:07:8c:17:77
-----BEGIN CERTIFICATE-----
MIIEXjCCAkagAwIBAgIBcDANBgkqhkiG9w0BAQsFADBGMQswCQYDVQQGEwJDQTEN
MAsGA1UECgwEU0VMRjENMAsGA1UECwwEU0VMRjEZMBcGA1UEAwwQU0VMRiBJREVO
VElUWSBDQTAgFw0yNDA5MDkxNTM5NDhaGA8yMTI0MDgxNjE1Mzk0OFowLzELMAkG
A1UEBhMCQ0ExETAPBgNVBAoMCG1iZWQgVExTMQ0wCwYDVQQDDARDZXJ0MIIBIjAN
BgkqhkiG9w0BAQEFAAOCAQ8AMIIBCgKCAQEA1VSS/gKy3zIhWyzyMfIdK3AE11Cl
hkjt7lZyDl0XiaXYe/WlU5yERmzTndULj8xjm2cnPhlGNCxDvZcA/UirWFofTXyH
Dt/qY/lT7s6SSCYs/meSZC7p0feft+dAh8s2y+V5KBkTYJy5l7OuyfsEGk0Wf/jc
Q+9b7Yfk3aIzEO/p2jDVx/TGHNMZebr7sWc7PWAFM3JKqWuUjq2L6S1ni6G2ZBfP
/ulhclCQdDiWk7Iu2LWgprNvwv4mrv5AO6oKRD0o9LQAZbiLU8OhgUz4aa8ZCjev
MkRq1F7+zdGmM33QHypO1cO0mQllFLidT7Vskh8n1WlBHlcj3GGi6/hplwIDAQAB
o2wwajAdBgNVHQ4EFgQU+WqkrgvCgkXdOC+c27HTy0Y2gRgwHwYDVR0jBBgwFoAU
l271sTig+lUoDdXM4sNB+W/3LlcwCQYDVR0TBAIwADALBgNVHQ8EBAMCBaAwEAYJ
YIZIAYb4QgEBBAMDAQAwDQYJKoZIhvcNAQELBQADggIBAF53N8H9oE+q/CfEwxM4
4JezCmq6LQ7ZuX2agIgw5Vo/pSb17jked6TFrr+IuyrvYYfyHdEfVKlNpLVXsL66
fVU+23N5GIL2IdIqI9jw5Fdv4lLR9oimFr3r+n12nph1gvvCxzYF10cRmq8tvpH/
WOT/GWdbzf04Fo41dXaiPBaYe9gICRMSFFMyyRIkt3T5vRjAeAZL585vXAlhMKdp
4X3+FRyytupmY63jSGZk99kv3pkbK3Xiac2O/yua0/g8uNR+b2xo6RzuVT+n1TFK
wHBsI6d6gHg3HSe53dpVWQMVumIKs79rdq/NPbcEgI+CpovtQvNYWVWaf8ZeE22u
03wr3jhHHO22HR4tBTbztPsjGWtUxREPwRkbaWHzmg6uYhk2VG9+dH271hSdekq8
0hiWTeqS6fdRUa5wNLdN3rbNDNU4CkZ75RuZZKOvzgdd40dD1ndhWcPod2OdTxHa
j67LwajCExO9URbrLAOE14DQtCLIMWDU5N7+vARZhUUOLxfBQgIfV29hqyAtd7Ui
+JqouMdAB32K9+fLDDwne06roHuXAIShVoS01FQ8pVtB5feYvTfk1pzCtzwDw4i9
cN4mBqy95JyVeVTbYvhguPQ+Ny/m6IMcgX4+ow0kNq/Xz2RDpsK0DbhO1kz4EH/E
5dD5RVG+m/+VJTBuQ8QHjBd3
-----END CERTIFICATE-----
