Certificate:
    Data:
        Version: 3 (0x2)
        Serial Number: 113 (0x71)
        Signature Algorithm: sha256WithRSAEncryption
        Issuer: C=CA, O=SELF, OU=SELF, CN=SELF IDENTITY CA
        Validity
            Not Before: Sep  9 15:41:31 2024 GMT
            Not After : Aug 16 15:41:31 2124 GMT
        Subject: C=CA, O=mbed TLS, CN=Cert
        Subject Public Key Info:
            Public Key Algorithm: rsaEncryption
                Public-Key: (2048 bit)
                Modulus:
                    00:d5:54:92:fe:02:b2:df:32:21:5b:2c:f2:31:f2:
                    1d:2b:70:04:d7:50:a5:86:48:ed:ee:56:72:0e:5d:
                    17:89:a5:d8:7b:f5:a5:53:9c:84:46:6c:d3:9d:d5:
                    0b:8f:cc:63:9b:67:27:3e:19:46:34:2c:43:bd:97:
                    00:fd:48:ab:58:5a:1f:4d:7c:87:0e:df:ea:63:f9:
                    53:ee:ce:92:48:26:2c:fe:67:92:64:2e:e9:d1:f7:
                    9f:b7:e7:40:87:cb:36:cb:e5:79:28:19:13:60:9c:
                    b9:97:b3:ae:c9:fb:04:1a:4d:16:7f:f8:dc:43:ef:
                    5b:ed:87:e4:dd:a2:33:10:ef:e9:da:30:d5:c7:f4:
                    c6:1c:d3:19:79:ba:fb:b1:67:3b:3d:60:05:33:72:
                    4a:a9:6b:94:8e:ad:8b:e9:2d:67:8b:a1:b6:64:17:
                    cf:fe:e9:61:72:50:90:74:38:96:93:b2:2e:d8:b5:
                    a0:a6:b3:6f:c2:fe:26:ae:fe:40:3b:aa:0a:44:3d:
                    28:f4:b4:00:65:b8:8b:53:c3:a1:81:4c:f8:69:af:
                    19:0a:37:af:32:44:6a:d4:5e:fe:cd:d1:a6:33:7d:
                    d0:1f:2a:4e:d5:c3:b4:99:09:65:14:b8:9d:4f:b5:
                    6c:92:1f:27:d5:69:41:1e:57:23:dc:61:a2:eb:f8:
                    69:97
                Exponent: 65537 (0x10001)
        X509v3 extensions:
            X509v3 Subject Key Identifier: 
                F9:6A:A4:AE:0B:C2:82:45:DD:38:2F:9C:DB:B1:D3:CB:46:36:81:18
            X509v3 Authority Key Identifier: 
                97:6E:F5:B1:38:A0:FA:55:28:0D:D5:CC:E2:C3:41:F9:6F:F7:2E:57
            X509v3 Basic Constraints: 
                CA:FALSE
            X509v3 Key Usage: 
                Digital Signature, Key Encipherment
            Netscape Cert Type: 
                ...
    Signature Algorithm: sha256WithRSAEncryption
    Signature Value:
        16:5f:30:09:89:42:3d:9c:44:48:6f:da:47:2e:d4:d9:14:76:
        a1:09:ff:19:e5:34:93:1d:ba:6d:98:b8:7d:fa:1d:d6:bb:8d:
        fa:16:f5:0d:d6:6f:80:7e:b5:ac:31:b3:c8:6e:f2:0b:60:47:
        43:c0:f9:3f:7b:fd:ca:c3:6e:19:b0:de:1f:36:20:9b:f4:02:
        15:e8:81:a7:d4:92:7a:6c:1c:ec:1a:26:66:15:4d:37:46:53:
        40:98:2e:6b:d4:0b:a3:4c:e7:35:5b:38:0c:7c:3e:4c:f7:28:
        11:64:b1:55:88:49:f9:91:bc:63:17:5f:9d:05:09:2e:51:ed:
        2a:95:f4:45:ed:f9:8d:2b:27:06:88:9c:a6:38:63:f6:2b:34:
        7d:04:6e:13:f3:8e:4e:41:b7:9c:cd:2e:08:fc:e0:2e:a7:4c:
        2e:db:3e:7a:1c:d6:65:4a:1f:39:ce:e0:02:09:5e:f1:8b:be:
        cc:c6:63:7d:e1:c4:11:36:20:6d:5b:66:56:df:be:04:d1:68:
        39:ae:96:4c:a6:c1:25:44:a3:86:cf:c3:32:ac:c3:8d:83:b1:
        5c:74:aa:49:b9:36:1b:97:66:8a:f0:43:c5:4f:93:94:32:82:
        7b:44:26:06:c1:17:50:57:8c:8c:24:63:d8:ca:5b:c8:b8:8f:
        92:ab:1e:ac:09:70:4f:9a:e7:16:4a:4f:7d:64:df:00:10:41:
        9c:4d:c1:b8:fb:9d:9c:49:e8:91:a5:b3:76:ee:7f:43:f7:94:
        56:65:68:c4:30:db:e7:86:5f:e8:72:7a:b9:67:7b:71:8e:7f:
        bd:ed:c0:7e:5f:31:4a:66:83:ba:7a:d1:71:56:04:69:06:41:
        32:d9:25:89:e0:6f:fc:2d:ae:4e:d8:8b:50:ed:91:26:d7:9d:
        22:8f:8d:78:11:8b:4c:df:72:94:e2:a2:2d:63:04:4f:06:5f:
        77:b8:55:69:28:1c:03:ba:df:15:59:b5:56:e5:0c:77:ba:cf:
        f2:49:ce:77:4c:d7:27:6b:2a:13:ba:d3:0d:25:08:63:49:61:
        eb:79:39:f9:f8:7c:96:57:1e:92:67:d2:79:2f:00:e9:10:65:
        82:53:c8:be:61:77:38:15:cf:e9:ea:d6:a3:fe:44:7c:14:cc:
        ed:8c:2f:8f:91:fa:07:84:08:15:a8:04:23:60:ef:05:0e:77:
        dc:19:50:44:fc:57:a7:ab:d2:15:90:ac:02:e4:eb:05:e0:3c:
        94:64:18:60:af:b0:6f:71:70:dc:db:bb:7a:ec:7d:e3:d5:44:
        5d:c4:9d:c1:95:48:2d:0c:9e:11:12:57:5d:f9:69:95:6e:ba:
        73:6e:00:ee:8a:75:b0:14
-----BEGIN CERTIFICATE-----
MIIEXjCCAkagAwIBAgIBcTANBgkqhkiG9w0BAQsFADBGMQswCQYDVQQGEwJDQTEN
MAsGA1UECgwEU0VMRjENMAsGA1UECwwEU0VMRjEZMBcGA1UEAwwQU0VMRiBJREVO
VElUWSBDQTAgFw0yNDA5MDkxNTQxMzFaGA8yMTI0MDgxNjE1NDEzMVowLzELMAkG
A1UEBhMCQ0ExETAPBgNVBAoMCG1iZWQgVExTMQ0wCwYDVQQDDARDZXJ0MIIBIjAN
BgkqhkiG9w0BAQEFAAOCAQ8AMIIBCgKCAQEA1VSS/gKy3zIhWyzyMfIdK3AE11Cl
hkjt7lZyDl0XiaXYe/WlU5yERmzTndULj8xjm2cnPhlGNCxDvZcA/UirWFofTXyH
Dt/qY/lT7s6SSCYs/meSZC7p0feft+dAh8s2y+V5KBkTYJy5l7OuyfsEGk0Wf/jc
Q+9b7Yfk3aIzEO/p2jDVx/TGHNMZebr7sWc7PWAFM3JKqWuUjq2L6S1ni6G2ZBfP
/ulhclCQdDiWk7Iu2LWgprNvwv4mrv5AO6oKRD0o9LQAZbiLU8OhgUz4aa8ZCjev
MkRq1F7+zdGmM33QHypO1cO0mQllFLidT7Vskh8n1WlBHlcj3GGi6/hplwIDAQAB
o2wwajAdBgNVHQ4EFgQU+WqkrgvCgkXdOC+c27HTy0Y2gRgwHwYDVR0jBBgwFoAU
l271sTig+lUoDdXM4sNB+W/3LlcwCQYDVR0TBAIwADALBgNVHQ8EBAMCBaAwEAYJ
YIZIAYb4QgEBBAMDAQAwDQYJKoZIhvcNAQELBQADggIBABZfMAmJQj2cREhv2kcu
1NkUdqEJ/xnlNJMdum2YuH36Hda7jfoW9Q3Wb4B+tawxs8hu8gtgR0PA+T97/crD
bhmw3h82IJv0AhXogafUknpsHOwaJmYVTTdGU0CYLmvUC6NM5zVbOAx8Pkz3KBFk
sVWISfmRvGMXX50FCS5R7SqV9EXt+Y0rJwaInKY4Y/YrNH0EbhPzjk5Bt5zNLgj8
4C6nTC7bPnoc1mVKHznO4AIJXvGLvszGY33hxBE2IG1bZlbfvgTRaDmulkymwSVE
o4bPwzKsw42DsVx0qkm5NhuXZorwQ8VPk5QygntEJgbBF1BXjIwkY9jKW8i4j5Kr
HqwJcE+a5xZKT31k3wAQQZxNwbj7nZxJ6JGls3buf0P3lFZlaMQw2+eGX+hyerln
e3GOf73twH5fMUpmg7p60XFWBGkGQTLZJYngb/wtrk7Yi1DtkSbXnSKPjXgRi0zf
cpTioi1jBE8GX3e4VWkoHAO63xVZtVblDHe6z/JJzndM1ydrKhO60w0lCGNJYet5
Ofn4fJZXHpJn0nkvAOkQZYJTyL5hdzgVz+nq1qP+RHwUzO2ML4+R+geECBWoBCNg
7wUOd9wZUET8V6er0hWQrALk6wXgPJRkGGCvsG9xcNzbu3rsfePVRF3EncGVSC0M
nhESV135aZVuunNuAO6KdbAU
-----END CERTIFICATE-----
