Certificate:
    Data:
        Version: 3 (0x2)
        Serial Number: 114 (0x72)
        Signature Algorithm: sha256WithRSAEncryption
        Issuer: C=CA, O=SELF, OU=SELF, CN=SELF IDENTITY CA
        Validity
            Not Before: Sep  9 15:41:56 2024 GMT
            Not After : Aug 16 15:41:56 2124 GMT
        Subject: C=CA, O=mbed TLS, CN=Cert
        Subject Public Key Info:
            Public Key Algorithm: rsaEncryption
                Public-Key: (2048 bit)
                Modulus:
                    00:d5:54:92:fe:02:b2:df:32:21:5b:2c:f2:31:f2:
                    1d:2b:70:04:d7:50:a5:86:48:ed:ee:56:72:0e:5d:
                    17:89:a5:d8:7b:f5:a5:53:9c:84:46:6c:d3:9d:d5:
                    0b:8f:cc:63:9b:67:27:3e:19:46:34:2c:43:bd:97:
                    00:fd:48:ab:58:5a:1f:4d:7c:87:0e:df:ea:63:f9:
                    53:ee:ce:92:48:26:2c:fe:67:92:64:2e:e9:d1:f7:
                    9f:b7:e7:40:87:cb:36:cb:e5:79:28:19:13:60:9c:
                    b9:97:b3:ae:c9:fb:04:1a:4d:16:7f:f8:dc:43:ef:
                    5b:ed:87:e4:dd:a2:33:10:ef:e9:da:30:d5:c7:f4:
                    c6:1c:d3:19:79:ba:fb:b1:67:3b:3d:60:05:33:72:
                    4a:a9:6b:94:8e:ad:8b:e9:2d:67:8b:a1:b6:64:17:
                    cf:fe:e9:61:72:50:90:74:38:96:93:b2:2e:d8:b5:
                    a0:a6:b3:6f:c2:fe:26:ae:fe:40:3b:aa:0a:44:3d:
                    28:f4:b4:00:65:b8:8b:53:c3:a1:81:4c:f8:69:af:
                    19:0a:37:af:32:44:6a:d4:5e:fe:cd:d1:a6:33:7d:
                    d0:1f:2a:4e:d5:c3:b4:99:09:65:14:b8:9d:4f:b5:
                    6c:92:1f:27:d5:69:41:1e:57:23:dc:61:a2:eb:f8:
                    69:97
                Exponent: 65537 (0x10001)
        X509v3 extensions:
            X509v3 Subject Key Identifier: 
                F9:6A:A4:AE:0B:C2:82:45:DD:38:2F:9C:DB:B1:D3:CB:46:36:81:18
            X509v3 Authority Key Identifier: 
                97:6E:F5:B1:38:A0:FA:55:28:0D:D5:CC:E2:C3:41:F9:6F:F7:2E:57
            X509v3 Basic Constraints: 
                CA:FALSE
            X509v3 Key Usage: 
                Digital Signature, Key Encipherment
            Netscape Cert Type: 
                ...
    Signature Algorithm: sha256WithRSAEncryption
    Signature Value:
        55:83:68:d6:2d:cc:ff:6b:55:40:c5:5c:24:ee:86:e6:1e:bf:
        73:2b:3a:50:15:ef:71:52:2a:c0:27:60:e7:a7:a6:fc:41:ba:
        a2:55:38:8e:bb:11:13:b5:0a:3e:b8:4a:18:cd:e7:3f:6e:74:
        5d:7a:c5:2b:77:22:a9:3e:6d:e5:06:9a:50:e2:2d:5c:ad:72:
        57:9d:56:7c:11:b3:ff:47:27:a7:e5:86:bc:13:3a:97:46:c8:
        a0:60:86:5d:aa:f8:b8:68:4c:86:e8:7d:30:92:18:29:61:df:
        f4:cc:58:49:a6:b5:47:e3:ed:1a:b0:49:92:e7:b9:14:b5:72:
        17:96:47:fb:62:79:e6:63:0a:41:86:09:0f:a3:49:90:ae:67:
        d9:c8:e0:e9:ce:9e:d0:e8:94:11:df:82:a9:77:a2:e0:f8:92:
        64:5b:fe:15:13:7f:06:50:fa:8d:88:1c:d3:68:63:f9:fc:5b:
        19:c4:ca:7f:e7:c8:47:f7:82:b4:1d:cf:a2:bb:f0:0b:ee:de:
        e1:9a:92:56:51:2b:6f:6d:c6:cb:f4:e3:38:13:01:63:41:96:
        ee:1a:42:88:77:92:df:25:d9:43:a4:dd:fc:e5:6e:fb:79:1d:
        ce:fa:d8:ae:b6:7b:e5:8f:d6:1f:c6:73:48:5f:9d:40:9f:91:
        b3:64:1a:f6:eb:9a:01:3b:bd:f0:03:31:5f:d9:9c:fd:45:b7:
        af:a3:29:ba:bf:c1:fd:d1:fa:72:d0:0d:f0:cc:33:d5:02:90:
        5c:c0:14:a3:39:cf:87:ba:c2:5e:c1:ca:15:f4:bf:13:13:ab:
        a5:b0:8c:b6:23:91:29:08:ae:a0:8c:37:58:4b:eb:58:22:31:
        34:64:26:3c:ea:3e:b1:87:c4:d5:72:35:29:8c:b3:b3:6b:2e:
        27:1f:35:2d:3d:17:f6:ed:98:4e:35:a3:98:9a:2d:07:d2:cd:
        5d:03:f8:b5:bf:21:14:41:62:ba:15:61:86:fb:cd:e6:ea:ca:
        61:ec:98:13:a2:53:1f:51:5d:c8:c9:a4:b2:28:dc:af:cc:a9:
        90:32:8d:4e:0f:e9:66:05:5e:f9:dc:03:f5:25:24:34:e2:fb:
        ba:2d:ac:be:9e:ba:57:1c:aa:d6:59:fd:d7:b1:d8:db:d9:be:
        3c:de:57:9f:04:01:11:2e:97:6f:90:6d:c4:55:e9:14:e0:15:
        df:ea:f7:d6:e7:69:ca:6d:f0:9f:38:9d:b0:31:95:61:b1:f4:
        bc:70:8b:8b:6c:c2:f2:53:19:22:7b:17:33:df:3f:2c:21:eb:
        3a:e5:b0:bd:55:f6:fb:74:5b:69:da:2d:b9:74:be:ae:82:e6:
        aa:bf:fc:41:db:42:5a:16
-----BEGIN CERTIFICATE-----
MIIEXjCCAkagAwIBAgIBcjANBgkqhkiG9w0BAQsFADBGMQswCQYDVQQGEwJDQTEN
MAsGA1UECgwEU0VMRjENMAsGA1UECwwEU0VMRjEZMBcGA1UEAwwQU0VMRiBJREVO
VElUWSBDQTAgFw0yNDA5MDkxNTQxNTZaGA8yMTI0MDgxNjE1NDE1NlowLzELMAkG
A1UEBhMCQ0ExETAPBgNVBAoMCG1iZWQgVExTMQ0wCwYDVQQDDARDZXJ0MIIBIjAN
BgkqhkiG9w0BAQEFAAOCAQ8AMIIBCgKCAQEA1VSS/gKy3zIhWyzyMfIdK3AE11Cl
hkjt7lZyDl0XiaXYe/WlU5yERmzTndULj8xjm2cnPhlGNCxDvZcA/UirWFofTXyH
Dt/qY/lT7s6SSCYs/meSZC7p0feft+dAh8s2y+V5KBkTYJy5l7OuyfsEGk0Wf/jc
Q+9b7Yfk3aIzEO/p2jDVx/TGHNMZebr7sWc7PWAFM3JKqWuUjq2L6S1ni6G2ZBfP
/ulhclCQdDiWk7Iu2LWgprNvwv4mrv5AO6oKRD0o9LQAZbiLU8OhgUz4aa8ZCjev
MkRq1F7+zdGmM33QHypO1cO0mQllFLidT7Vskh8n1WlBHlcj3GGi6/hplwIDAQAB
o2wwajAdBgNVHQ4EFgQU+WqkrgvCgkXdOC+c27HTy0Y2gRgwHwYDVR0jBBgwFoAU
l271sTig+lUoDdXM4sNB+W/3LlcwCQYDVR0TBAIwADALBgNVHQ8EBAMCBaAwEAYJ
YIZIAYb4QgEBBAMDAQAwDQYJKoZIhvcNAQELBQADggIBAFWDaNYtzP9rVUDFXCTu
huYev3MrOlAV73FSKsAnYOenpvxBuqJVOI67ERO1Cj64ShjN5z9udF16xSt3Iqk+
beUGmlDiLVytcledVnwRs/9HJ6flhrwTOpdGyKBghl2q+LhoTIbofTCSGClh3/TM
WEmmtUfj7RqwSZLnuRS1cheWR/tieeZjCkGGCQ+jSZCuZ9nI4OnOntDolBHfgql3
ouD4kmRb/hUTfwZQ+o2IHNNoY/n8WxnEyn/nyEf3grQdz6K78Avu3uGaklZRK29t
xsv04zgTAWNBlu4aQoh3kt8l2UOk3fzlbvt5Hc762K62e+WP1h/Gc0hfnUCfkbNk
GvbrmgE7vfADMV/ZnP1Ft6+jKbq/wf3R+nLQDfDMM9UCkFzAFKM5z4e6wl7ByhX0
vxMTq6WwjLYjkSkIrqCMN1hL61giMTRkJjzqPrGHxNVyNSmMs7NrLicfNS09F/bt
mE41o5iaLQfSzV0D+LW/IRRBYroVYYb7zebqymHsmBOiUx9RXcjJpLIo3K/MqZAy
jU4P6WYFXvncA/UlJDTi+7otrL6eulccqtZZ/dex2NvZvjzeV58EAREul2+QbcRV
6RTgFd/q99bnacpt8J84nbAxlWGx9Lxwi4tswvJTGSJ7FzPfPywh6zrlsL1V9vt0
W2naLbl0vq6C5qq//EHbQloW
-----END CERTIFICATE-----
