Certificate:
    Data:
        Version: 3 (0x2)
        Serial Number: 115 (0x73)
        Signature Algorithm: sha256WithRSAEncryption
        Issuer: C=CA, O=SELF, OU=SELF, CN=SELF IDENTITY CA
        Validity
            Not Before: Sep  9 16:46:13 2024 GMT
            Not After : Aug 16 16:46:13 2124 GMT
        Subject: C=CA, O=mbed TLS, CN=Cert
        Subject Public Key Info:
            Public Key Algorithm: rsaEncryption
                Public-Key: (2048 bit)
                Modulus:
                    00:d5:54:92:fe:02:b2:df:32:21:5b:2c:f2:31:f2:
                    1d:2b:70:04:d7:50:a5:86:48:ed:ee:56:72:0e:5d:
                    17:89:a5:d8:7b:f5:a5:53:9c:84:46:6c:d3:9d:d5:
                    0b:8f:cc:63:9b:67:27:3e:19:46:34:2c:43:bd:97:
                    00:fd:48:ab:58:5a:1f:4d:7c:87:0e:df:ea:63:f9:
                    53:ee:ce:92:48:26:2c:fe:67:92:64:2e:e9:d1:f7:
                    9f:b7:e7:40:87:cb:36:cb:e5:79:28:19:13:60:9c:
                    b9:97:b3:ae:c9:fb:04:1a:4d:16:7f:f8:dc:43:ef:
                    5b:ed:87:e4:dd:a2:33:10:ef:e9:da:30:d5:c7:f4:
                    c6:1c:d3:19:79:ba:fb:b1:67:3b:3d:60:05:33:72:
                    4a:a9:6b:94:8e:ad:8b:e9:2d:67:8b:a1:b6:64:17:
                    cf:fe:e9:61:72:50:90:74:38:96:93:b2:2e:d8:b5:
                    a0:a6:b3:6f:c2:fe:26:ae:fe:40:3b:aa:0a:44:3d:
                    28:f4:b4:00:65:b8:8b:53:c3:a1:81:4c:f8:69:af:
                    19:0a:37:af:32:44:6a:d4:5e:fe:cd:d1:a6:33:7d:
                    d0:1f:2a:4e:d5:c3:b4:99:09:65:14:b8:9d:4f:b5:
                    6c:92:1f:27:d5:69:41:1e:57:23:dc:61:a2:eb:f8:
                    69:97
                Exponent: 65537 (0x10001)
        X509v3 extensions:
            X509v3 Subject Key Identifier: 
                F9:6A:A4:AE:0B:C2:82:45:DD:38:2F:9C:DB:B1:D3:CB:46:36:81:18
            X509v3 Authority Key Identifier: 
                97:6E:F5:B1:38:A0:FA:55:28:0D:D5:CC:E2:C3:41:F9:6F:F7:2E:57
            X509v3 Basic Constraints: 
                CA:FALSE
            X509v3 Key Usage: 
                Digital Signature, Key Encipherment
            Netscape Cert Type: 
                ...
    Signature Algorithm: sha256WithRSAEncryption
    Signature Value:
        84:7c:10:9b:1c:d8:0d:00:6d:bc:49:62:d4:2d:69:13:33:e6:
        3c:87:23:31:3b:c1:0e:c2:9b:be:02:7d:75:c0:cd:e5:bc:93:
        e9:3a:e2:e0:f2:c3:c9:d4:f5:b6:08:08:4e:a1:e6:60:2c:1e:
        ca:09:10:06:15:98:dd:27:3b:f3:30:7c:39:44:cf:54:ed:e4:
        69:87:c2:1d:42:55:1f:4f:0b:86:43:1c:04:ff:3d:88:fa:a8:
        ca:da:93:6b:3d:47:e9:0f:0f:c1:f4:57:33:ef:7a:40:59:ce:
        c6:b7:d0:8d:01:5b:ac:08:d1:fc:de:9e:df:07:31:52:ab:ae:
        c2:90:0d:81:7c:9d:cc:ec:be:f3:86:6b:52:6c:22:82:55:4f:
        94:3d:2d:4d:e5:94:40:87:a6:b1:3b:e2:8c:26:9c:40:80:44:
        ee:49:56:51:e2:6a:4b:96:a1:f9:28:26:85:de:47:8c:db:73:
        cb:c0:95:c8:8c:eb:ca:e6:04:ba:26:6b:f4:c1:4c:42:7a:c5:
        5d:6d:87:a5:f8:87:cc:72:6d:93:0f:41:b8:87:6e:e3:ad:bf:
        67:14:67:a1:a9:ed:4f:e3:88:11:92:2f:b4:ad:88:ed:24:cc:
        f6:4a:7a:ed:70:75:66:c9:6c:9a:d1:fd:8b:82:ed:3d:43:54:
        63:80:34:b6:cf:02:0e:30:f0:ce:73:25:79:71:98:70:22:bd:
        3e:90:68:c3:d5:a9:52:71:7a:b2:94:8d:c5:bd:92:18:de:d9:
        39:a3:66:57:bb:c4:4f:16:e1:ab:06:2e:fb:cb:8e:a0:6a:7d:
        05:1a:d6:64:c1:a8:62:ec:9a:aa:53:0e:ea:9b:4d:d4:81:f7:
        69:0b:e3:a5:79:05:0d:53:be:f0:2a:ad:38:97:2c:92:74:91:
        ae:38:87:13:9b:a5:e3:16:64:b8:58:a7:2d:cf:da:2e:17:14:
        f5:b6:f0:c9:5b:43:c3:f2:23:2d:f2:ba:85:66:6d:9f:f2:a3:
        ae:a3:fe:dd:bd:33:c6:5e:4b:2b:d7:21:35:b6:a0:3c:de:3a:
        4d:7f:2c:aa:79:1e:35:bb:ae:21:7a:62:5b:7e:9a:f3:2d:06:
        53:43:81:82:ac:85:12:cc:92:65:69:92:9e:4e:99:79:52:2e:
        26:46:41:53:2f:1f:1e:90:7b:23:2c:42:2a:d9:15:85:b5:5f:
        37:d3:3b:69:12:8a:27:6f:75:cb:f9:57:92:35:2c:28:d5:ff:
        48:b7:3c:c7:16:8a:f8:cc:e6:a9:b6:57:a1:13:f4:29:27:ed:
        0e:c9:dd:20:e4:3b:db:38:e0:70:3a:5f:fb:f4:a4:08:bc:a8:
        0a:f7:cc:f1:1c:6f:ec:34
-----BEGIN CERTIFICATE-----
MIIEXjCCAkagAwIBAgIBczANBgkqhkiG9w0BAQsFADBGMQswCQYDVQQGEwJDQTEN
MAsGA1UECgwEU0VMRjENMAsGA1UECwwEU0VMRjEZMBcGA1UEAwwQU0VMRiBJREVO
VElUWSBDQTAgFw0yNDA5MDkxNjQ2MTNaGA8yMTI0MDgxNjE2NDYxM1owLzELMAkG
A1UEBhMCQ0ExETAPBgNVBAoMCG1iZWQgVExTMQ0wCwYDVQQDDARDZXJ0MIIBIjAN
BgkqhkiG9w0BAQEFAAOCAQ8AMIIBCgKCAQEA1VSS/gKy3zIhWyzyMfIdK3AE11Cl
hkjt7lZyDl0XiaXYe/WlU5yERmzTndULj8xjm2cnPhlGNCxDvZcA/UirWFofTXyH
Dt/qY/lT7s6SSCYs/meSZC7p0feft+dAh8s2y+V5KBkTYJy5l7OuyfsEGk0Wf/jc
Q+9b7Yfk3aIzEO/p2jDVx/TGHNMZebr7sWc7PWAFM3JKqWuUjq2L6S1ni6G2ZBfP
/ulhclCQdDiWk7Iu2LWgprNvwv4mrv5AO6oKRD0o9LQAZbiLU8OhgUz4aa8ZCjev
MkRq1F7+zdGmM33QHypO1cO0mQllFLidT7Vskh8n1WlBHlcj3GGi6/hplwIDAQAB
o2wwajAdBgNVHQ4EFgQU+WqkrgvCgkXdOC+c27HTy0Y2gRgwHwYDVR0jBBgwFoAU
l271sTig+lUoDdXM4sNB+W/3LlcwCQYDVR0TBAIwADALBgNVHQ8EBAMCBaAwEAYJ
YIZIAYb4QgEBBAMDAQAwDQYJKoZIhvcNAQELBQADggIBAIR8EJsc2A0AbbxJYtQt
aRMz5jyHIzE7wQ7Cm74CfXXAzeW8k+k64uDyw8nU9bYICE6h5mAsHsoJEAYVmN0n
O/MwfDlEz1Tt5GmHwh1CVR9PC4ZDHAT/PYj6qMrak2s9R+kPD8H0VzPvekBZzsa3
0I0BW6wI0fzent8HMVKrrsKQDYF8nczsvvOGa1JsIoJVT5Q9LU3llECHprE74owm
nECARO5JVlHiakuWofkoJoXeR4zbc8vAlciM68rmBLoma/TBTEJ6xV1th6X4h8xy
bZMPQbiHbuOtv2cUZ6Gp7U/jiBGSL7StiO0kzPZKeu1wdWbJbJrR/YuC7T1DVGOA
NLbPAg4w8M5zJXlxmHAivT6QaMPVqVJxerKUjcW9khje2TmjZle7xE8W4asGLvvL
jqBqfQUa1mTBqGLsmqpTDuqbTdSB92kL46V5BQ1TvvAqrTiXLJJ0ka44hxObpeMW
ZLhYpy3P2i4XFPW28MlbQ8PyIy3yuoVmbZ/yo66j/t29M8ZeSyvXITW2oDzeOk1/
LKp5HjW7riF6Ylt+mvMtBlNDgYKshRLMkmVpkp5OmXlSLiZGQVMvHx6QeyMsQirZ
FYW1XzfTO2kSiidvdcv5V5I1LCjV/0i3PMcWivjM5qm2V6ET9Ckn7Q7J3SDkO9s4
4HA6X/v0pAi8qAr3zPEcb+w0
-----END CERTIFICATE-----
