Certificate:
    Data:
        Version: 3 (0x2)
        Serial Number: 116 (0x74)
        Signature Algorithm: sha256WithRSAEncryption
        Issuer: C=CA, O=SELF, OU=SELF, CN=SELF IDENTITY CA
        Validity
            Not Before: Sep  9 16:48:19 2024 GMT
            Not After : Aug 16 16:48:19 2124 GMT
        Subject: C=CA, O=mbed TLS, CN=Cert
        Subject Public Key Info:
            Public Key Algorithm: rsaEncryption
                Public-Key: (2048 bit)
                Modulus:
                    00:d5:54:92:fe:02:b2:df:32:21:5b:2c:f2:31:f2:
                    1d:2b:70:04:d7:50:a5:86:48:ed:ee:56:72:0e:5d:
                    17:89:a5:d8:7b:f5:a5:53:9c:84:46:6c:d3:9d:d5:
                    0b:8f:cc:63:9b:67:27:3e:19:46:34:2c:43:bd:97:
                    00:fd:48:ab:58:5a:1f:4d:7c:87:0e:df:ea:63:f9:
                    53:ee:ce:92:48:26:2c:fe:67:92:64:2e:e9:d1:f7:
                    9f:b7:e7:40:87:cb:36:cb:e5:79:28:19:13:60:9c:
                    b9:97:b3:ae:c9:fb:04:1a:4d:16:7f:f8:dc:43:ef:
                    5b:ed:87:e4:dd:a2:33:10:ef:e9:da:30:d5:c7:f4:
                    c6:1c:d3:19:79:ba:fb:b1:67:3b:3d:60:05:33:72:
                    4a:a9:6b:94:8e:ad:8b:e9:2d:67:8b:a1:b6:64:17:
                    cf:fe:e9:61:72:50:90:74:38:96:93:b2:2e:d8:b5:
                    a0:a6:b3:6f:c2:fe:26:ae:fe:40:3b:aa:0a:44:3d:
                    28:f4:b4:00:65:b8:8b:53:c3:a1:81:4c:f8:69:af:
                    19:0a:37:af:32:44:6a:d4:5e:fe:cd:d1:a6:33:7d:
                    d0:1f:2a:4e:d5:c3:b4:99:09:65:14:b8:9d:4f:b5:
                    6c:92:1f:27:d5:69:41:1e:57:23:dc:61:a2:eb:f8:
                    69:97
                Exponent: 65537 (0x10001)
        X509v3 extensions:
            X509v3 Subject Key Identifier: 
                F9:6A:A4:AE:0B:C2:82:45:DD:38:2F:9C:DB:B1:D3:CB:46:36:81:18
            X509v3 Authority Key Identifier: 
                97:6E:F5:B1:38:A0:FA:55:28:0D:D5:CC:E2:C3:41:F9:6F:F7:2E:57
            X509v3 Basic Constraints: 
                CA:FALSE
            X509v3 Key Usage: 
                Digital Signature, Key Encipherment
            Netscape Cert Type: 
                ...
    Signature Algorithm: sha256WithRSAEncryption
    Signature Value:
        12:42:03:53:da:ea:45:5f:30:08:12:cf:8b:41:e5:9a:2d:b2:
        b5:3d:36:36:07:9f:e0:19:a8:52:4c:9d:f0:23:9c:b9:2e:cd:
        24:1e:eb:36:7d:79:7f:f4:d4:66:c4:ed:14:eb:1e:21:31:92:
        e8:7d:9e:e7:96:65:5f:a7:d6:b6:69:f7:2b:46:64:89:37:42:
        a6:e2:c6:5d:17:12:43:fb:77:e8:c2:9a:4f:61:31:d3:fd:26:
        9e:10:36:a4:b9:3a:9c:bf:08:58:9d:15:d8:3c:66:25:f9:df:
        27:e7:c5:c0:65:69:7e:48:f2:08:ab:34:d3:39:ec:9a:9b:ad:
        20:7b:f5:e0:1d:52:7d:a9:54:29:25:38:e4:38:dc:6f:b6:cb:
        4a:cd:c7:cf:2e:81:43:9b:a6:c9:00:5d:2f:ee:2c:4d:89:23:
        ae:50:bc:35:8f:0d:54:19:fb:f0:49:52:8e:e0:34:28:62:61:
        75:8b:0a:4e:c2:30:d8:64:cf:55:79:6a:e0:f4:c6:ff:3b:34:
        23:56:b0:c0:90:97:aa:f9:6f:d3:84:82:1d:75:ae:20:ae:70:
        9a:13:9d:96:c8:d1:8a:a7:db:8c:0e:54:b0:91:dc:c9:0a:a8:
        6f:7c:cc:02:f6:e6:d0:4e:df:09:ad:48:dd:3a:a7:9a:c4:d1:
        8a:5a:de:ca:6a:61:5b:31:38:c1:4e:65:64:7e:65:f5:04:42:
        96:06:76:7e:56:2e:20:29:fe:cc:e9:50:1e:c8:db:a3:c5:a6:
        be:bd:89:87:bb:93:4b:57:ad:37:65:91:76:57:41:b4:2c:ae:
        23:49:e6:af:fe:be:a8:3e:d9:c8:3b:c9:9f:5e:e2:c2:5e:c9:
        2c:4a:03:5b:8e:46:9c:c9:3e:08:4b:93:dc:0e:2c:83:c8:c4:
        52:6f:20:de:4a:28:d1:13:70:d4:e9:33:33:da:6e:cf:83:c3:
        bc:1d:f8:e0:e1:c4:2d:03:15:97:ef:23:54:8a:41:e1:48:68:
        c6:7a:ab:07:53:2f:e6:1a:1a:c2:6a:32:8a:74:d1:fa:f5:01:
        39:13:20:ad:cf:07:53:b2:7d:a4:3a:3d:1f:7a:d8:42:bd:36:
        f9:5f:12:14:e4:cd:0f:e4:84:06:66:39:4b:8c:c5:c5:5c:f3:
        10:5a:68:70:4c:de:8a:2a:3e:4d:86:33:da:09:b5:6e:ce:3d:
        e3:92:6a:50:ad:25:3c:8d:99:d6:82:6c:00:a6:46:81:b0:3d:
        78:66:22:6f:4a:76:1c:6d:91:6a:b0:8b:87:d0:07:39:24:24:
        92:69:e9:5f:c9:af:1f:2f:c6:13:27:bf:21:e3:ab:8e:aa:d3:
        07:51:25:85:2f:b5:64:a7
-----BEGIN CERTIFICATE-----
MIIEXjCCAkagAwIBAgIBdDANBgkqhkiG9w0BAQsFADBGMQswCQYDVQQGEwJDQTEN
MAsGA1UECgwEU0VMRjENMAsGA1UECwwEU0VMRjEZMBcGA1UEAwwQU0VMRiBJREVO
VElUWSBDQTAgFw0yNDA5MDkxNjQ4MTlaGA8yMTI0MDgxNjE2NDgxOVowLzELMAkG
A1UEBhMCQ0ExETAPBgNVBAoMCG1iZWQgVExTMQ0wCwYDVQQDDARDZXJ0MIIBIjAN
BgkqhkiG9w0BAQEFAAOCAQ8AMIIBCgKCAQEA1VSS/gKy3zIhWyzyMfIdK3AE11Cl
hkjt7lZyDl0XiaXYe/WlU5yERmzTndULj8xjm2cnPhlGNCxDvZcA/UirWFofTXyH
Dt/qY/lT7s6SSCYs/meSZC7p0feft+dAh8s2y+V5KBkTYJy5l7OuyfsEGk0Wf/jc
Q+9b7Yfk3aIzEO/p2jDVx/TGHNMZebr7sWc7PWAFM3JKqWuUjq2L6S1ni6G2ZBfP
/ulhclCQdDiWk7Iu2LWgprNvwv4mrv5AO6oKRD0o9LQAZbiLU8OhgUz4aa8ZCjev
MkRq1F7+zdGmM33QHypO1cO0mQllFLidT7Vskh8n1WlBHlcj3GGi6/hplwIDAQAB
o2wwajAdBgNVHQ4EFgQU+WqkrgvCgkXdOC+c27HTy0Y2gRgwHwYDVR0jBBgwFoAU
l271sTig+lUoDdXM4sNB+W/3LlcwCQYDVR0TBAIwADALBgNVHQ8EBAMCBaAwEAYJ
YIZIAYb4QgEBBAMDAQAwDQYJKoZIhvcNAQELBQADggIBABJCA1Pa6kVfMAgSz4tB
5ZotsrU9NjYHn+AZqFJMnfAjnLkuzSQe6zZ9eX/01GbE7RTrHiExkuh9nueWZV+n
1rZp9ytGZIk3Qqbixl0XEkP7d+jCmk9hMdP9Jp4QNqS5Opy/CFidFdg8ZiX53yfn
xcBlaX5I8girNNM57JqbrSB79eAdUn2pVCklOOQ43G+2y0rNx88ugUObpskAXS/u
LE2JI65QvDWPDVQZ+/BJUo7gNChiYXWLCk7CMNhkz1V5auD0xv87NCNWsMCQl6r5
b9OEgh11riCucJoTnZbI0Yqn24wOVLCR3MkKqG98zAL25tBO3wmtSN06p5rE0Ypa
3spqYVsxOMFOZWR+ZfUEQpYGdn5WLiAp/szpUB7I26PFpr69iYe7k0tXrTdlkXZX
QbQsriNJ5q/+vqg+2cg7yZ9e4sJeySxKA1uORpzJPghLk9wOLIPIxFJvIN5KKNET
cNTpMzPabs+Dw7wd+ODhxC0DFZfvI1SKQeFIaMZ6qwdTL+YaGsJqMop00fr1ATkT
IK3PB1OyfaQ6PR962EK9NvlfEhTkzQ/khAZmOUuMxcVc8xBaaHBM3ooqPk2GM9oJ
tW7OPeOSalCtJTyNmdaCbACmRoGwPXhmIm9KdhxtkWqwi4fQBzkkJJJp6V/Jrx8v
xhMnvyHjq46q0wdRJYUvtWSn
-----END CERTIFICATE-----
