Certificate:
    Data:
        Version: 3 (0x2)
        Serial Number: 117 (0x75)
        Signature Algorithm: sha256WithRSAEncryption
        Issuer: C=CA, O=SELF, OU=SELF, CN=SELF IDENTITY CA
        Validity
            Not Before: Sep  9 16:51:35 2024 GMT
            Not After : Aug 16 16:51:35 2124 GMT
        Subject: C=CA, O=mbed TLS, CN=Cert
        Subject Public Key Info:
            Public Key Algorithm: rsaEncryption
                Public-Key: (2048 bit)
                Modulus:
                    00:d5:54:92:fe:02:b2:df:32:21:5b:2c:f2:31:f2:
                    1d:2b:70:04:d7:50:a5:86:48:ed:ee:56:72:0e:5d:
                    17:89:a5:d8:7b:f5:a5:53:9c:84:46:6c:d3:9d:d5:
                    0b:8f:cc:63:9b:67:27:3e:19:46:34:2c:43:bd:97:
                    00:fd:48:ab:58:5a:1f:4d:7c:87:0e:df:ea:63:f9:
                    53:ee:ce:92:48:26:2c:fe:67:92:64:2e:e9:d1:f7:
                    9f:b7:e7:40:87:cb:36:cb:e5:79:28:19:13:60:9c:
                    b9:97:b3:ae:c9:fb:04:1a:4d:16:7f:f8:dc:43:ef:
                    5b:ed:87:e4:dd:a2:33:10:ef:e9:da:30:d5:c7:f4:
                    c6:1c:d3:19:79:ba:fb:b1:67:3b:3d:60:05:33:72:
                    4a:a9:6b:94:8e:ad:8b:e9:2d:67:8b:a1:b6:64:17:
                    cf:fe:e9:61:72:50:90:74:38:96:93:b2:2e:d8:b5:
                    a0:a6:b3:6f:c2:fe:26:ae:fe:40:3b:aa:0a:44:3d:
                    28:f4:b4:00:65:b8:8b:53:c3:a1:81:4c:f8:69:af:
                    19:0a:37:af:32:44:6a:d4:5e:fe:cd:d1:a6:33:7d:
                    d0:1f:2a:4e:d5:c3:b4:99:09:65:14:b8:9d:4f:b5:
                    6c:92:1f:27:d5:69:41:1e:57:23:dc:61:a2:eb:f8:
                    69:97
                Exponent: 65537 (0x10001)
        X509v3 extensions:
            X509v3 Subject Key Identifier: 
                F9:6A:A4:AE:0B:C2:82:45:DD:38:2F:9C:DB:B1:D3:CB:46:36:81:18
            X509v3 Authority Key Identifier: 
                97:6E:F5:B1:38:A0:FA:55:28:0D:D5:CC:E2:C3:41:F9:6F:F7:2E:57
            X509v3 Basic Constraints: 
                CA:FALSE
            X509v3 Key Usage: 
                Digital Signature, Key Encipherment
            Netscape Cert Type: 
                ...
    Signature Algorithm: sha256WithRSAEncryption
    Signature Value:
        91:1e:f5:71:a5:20:94:56:96:5e:98:94:4d:62:ee:ae:f5:a6:
        d6:24:a4:ac:83:91:14:fc:d5:5b:ce:ff:c2:2e:b6:c6:4d:4f:
        65:67:42:76:10:be:e0:2c:2d:bb:3e:f1:df:c3:6f:ee:52:40:
        f2:0a:96:f6:9c:64:63:fe:01:e6:9f:09:e8:35:53:ae:d9:5b:
        da:d1:e0:97:6d:e4:25:d4:43:17:02:d9:cd:2b:d2:bc:4c:e1:
        26:06:52:86:8d:83:26:bc:6e:4a:73:31:b4:3a:5c:f1:c2:5d:
        0e:78:48:2c:89:c0:bb:31:7d:f7:0c:fc:fa:86:5a:63:78:fc:
        c4:39:9e:ee:b2:8f:75:6d:c0:7f:61:3b:f0:66:89:ce:61:b8:
        66:35:f6:dd:5c:47:f6:1a:27:f0:99:c7:b1:4b:5d:dc:36:18:
        76:ff:8b:84:80:61:b3:20:aa:20:c9:a5:e7:1d:5a:01:90:d3:
        09:99:e4:e0:5e:a6:b7:64:d7:04:a2:b5:34:19:b3:c1:02:44:
        f8:44:d6:dd:9c:fe:1c:b9:46:c7:dc:41:d5:07:92:4c:06:87:
        82:43:1b:bc:b6:7f:8e:11:ad:56:77:c5:1a:04:23:c2:7b:1e:
        58:8a:57:f6:65:82:6b:f7:79:d7:36:13:5b:4e:70:75:ea:fa:
        1c:58:50:7f:e9:c8:19:59:41:d5:43:4e:3e:b4:c6:1b:48:9e:
        55:33:e2:d9:69:3c:96:8b:5e:d6:49:32:b8:55:b4:37:f6:d2:
        c6:30:70:16:d9:6c:6e:e7:30:40:d7:84:99:fe:3c:76:5a:58:
        e2:7d:cb:0c:88:ba:bb:3e:d6:14:8e:e8:b5:50:43:4d:ba:dd:
        48:d4:79:c3:0a:e9:59:c4:e8:c9:18:5b:8d:00:62:fb:fa:7b:
        cf:b5:8d:33:52:cf:0c:9e:14:fa:9c:ea:e8:59:36:c6:ac:8d:
        86:fc:9b:2c:c5:b7:68:ff:ce:14:33:9b:51:ee:03:59:5d:3a:
        6c:26:8c:c9:24:3f:08:f9:32:e4:5a:99:74:56:38:3f:52:33:
        66:8b:de:f4:28:3e:98:4a:a0:63:6a:12:b4:ee:87:4e:92:9f:
        90:82:a0:6b:25:4f:a1:f5:a0:08:f3:13:df:41:93:e7:ea:02:
        36:d8:1b:5b:ee:4e:37:83:58:42:a8:58:fc:30:a5:16:49:b6:
        e5:82:ab:69:33:7d:c1:aa:0d:1b:19:d4:65:36:d8:d3:48:5a:
        53:65:cb:c6:c2:4e:86:73:a9:87:51:03:09:c7:d4:70:2c:36:
        08:93:f3:b8:39:70:ac:83:74:a8:fb:3f:b9:1c:c8:b6:a5:44:
        ea:cf:13:ee:eb:78:91:95
-----BEGIN CERTIFICATE-----
MIIEXjCCAkagAwIBAgIBdTANBgkqhkiG9w0BAQsFADBGMQswCQYDVQQGEwJDQTEN
MAsGA1UECgwEU0VMRjENMAsGA1UECwwEU0VMRjEZMBcGA1UEAwwQU0VMRiBJREVO
VElUWSBDQTAgFw0yNDA5MDkxNjUxMzVaGA8yMTI0MDgxNjE2NTEzNVowLzELMAkG
A1UEBhMCQ0ExETAPBgNVBAoMCG1iZWQgVExTMQ0wCwYDVQQDDARDZXJ0MIIBIjAN
BgkqhkiG9w0BAQEFAAOCAQ8AMIIBCgKCAQEA1VSS/gKy3zIhWyzyMfIdK3AE11Cl
hkjt7lZyDl0XiaXYe/WlU5yERmzTndULj8xjm2cnPhlGNCxDvZcA/UirWFofTXyH
Dt/qY/lT7s6SSCYs/meSZC7p0feft+dAh8s2y+V5KBkTYJy5l7OuyfsEGk0Wf/jc
Q+9b7Yfk3aIzEO/p2jDVx/TGHNMZebr7sWc7PWAFM3JKqWuUjq2L6S1ni6G2ZBfP
/ulhclCQdDiWk7Iu2LWgprNvwv4mrv5AO6oKRD0o9LQAZbiLU8OhgUz4aa8ZCjev
MkRq1F7+zdGmM33QHypO1cO0mQllFLidT7Vskh8n1WlBHlcj3GGi6/hplwIDAQAB
o2wwajAdBgNVHQ4EFgQU+WqkrgvCgkXdOC+c27HTy0Y2gRgwHwYDVR0jBBgwFoAU
l271sTig+lUoDdXM4sNB+W/3LlcwCQYDVR0TBAIwADALBgNVHQ8EBAMCBaAwEAYJ
YIZIAYb4QgEBBAMDAQAwDQYJKoZIhvcNAQELBQADggIBAJEe9XGlIJRWll6YlE1i
7q71ptYkpKyDkRT81VvO/8IutsZNT2VnQnYQvuAsLbs+8d/Db+5SQPIKlvacZGP+
AeafCeg1U67ZW9rR4Jdt5CXUQxcC2c0r0rxM4SYGUoaNgya8bkpzMbQ6XPHCXQ54
SCyJwLsxffcM/PqGWmN4/MQ5nu6yj3VtwH9hO/Bmic5huGY19t1cR/YaJ/CZx7FL
Xdw2GHb/i4SAYbMgqiDJpecdWgGQ0wmZ5OBeprdk1wSitTQZs8ECRPhE1t2c/hy5
RsfcQdUHkkwGh4JDG7y2f44RrVZ3xRoEI8J7HliKV/Zlgmv3edc2E1tOcHXq+hxY
UH/pyBlZQdVDTj60xhtInlUz4tlpPJaLXtZJMrhVtDf20sYwcBbZbG7nMEDXhJn+
PHZaWOJ9ywyIurs+1hSO6LVQQ0263UjUecMK6VnE6MkYW40AYvv6e8+1jTNSzwye
FPqc6uhZNsasjYb8myzFt2j/zhQzm1HuA1ldOmwmjMkkPwj5MuRamXRWOD9SM2aL
3vQoPphKoGNqErTuh06Sn5CCoGslT6H1oAjzE99Bk+fqAjbYG1vuTjeDWEKoWPww
pRZJtuWCq2kzfcGqDRsZ1GU22NNIWlNly8bCToZzqYdRAwnH1HAsNgiT87g5cKyD
dKj7P7kcyLalROrPE+7reJGV
-----END CERTIFICATE-----
