Certificate:
    Data:
        Version: 3 (0x2)
        Serial Number: 118 (0x76)
        Signature Algorithm: sha256WithRSAEncryption
        Issuer: C=CA, O=SELF, OU=SELF, CN=SELF IDENTITY CA
        Validity
            Not Before: Sep  9 16:52:38 2024 GMT
            Not After : Aug 16 16:52:38 2124 GMT
        Subject: C=CA, O=mbed TLS, CN=Cert
        Subject Public Key Info:
            Public Key Algorithm: rsaEncryption
                Public-Key: (2048 bit)
                Modulus:
                    00:d5:54:92:fe:02:b2:df:32:21:5b:2c:f2:31:f2:
                    1d:2b:70:04:d7:50:a5:86:48:ed:ee:56:72:0e:5d:
                    17:89:a5:d8:7b:f5:a5:53:9c:84:46:6c:d3:9d:d5:
                    0b:8f:cc:63:9b:67:27:3e:19:46:34:2c:43:bd:97:
                    00:fd:48:ab:58:5a:1f:4d:7c:87:0e:df:ea:63:f9:
                    53:ee:ce:92:48:26:2c:fe:67:92:64:2e:e9:d1:f7:
                    9f:b7:e7:40:87:cb:36:cb:e5:79:28:19:13:60:9c:
                    b9:97:b3:ae:c9:fb:04:1a:4d:16:7f:f8:dc:43:ef:
                    5b:ed:87:e4:dd:a2:33:10:ef:e9:da:30:d5:c7:f4:
                    c6:1c:d3:19:79:ba:fb:b1:67:3b:3d:60:05:33:72:
                    4a:a9:6b:94:8e:ad:8b:e9:2d:67:8b:a1:b6:64:17:
                    cf:fe:e9:61:72:50:90:74:38:96:93:b2:2e:d8:b5:
                    a0:a6:b3:6f:c2:fe:26:ae:fe:40:3b:aa:0a:44:3d:
                    28:f4:b4:00:65:b8:8b:53:c3:a1:81:4c:f8:69:af:
                    19:0a:37:af:32:44:6a:d4:5e:fe:cd:d1:a6:33:7d:
                    d0:1f:2a:4e:d5:c3:b4:99:09:65:14:b8:9d:4f:b5:
                    6c:92:1f:27:d5:69:41:1e:57:23:dc:61:a2:eb:f8:
                    69:97
                Exponent: 65537 (0x10001)
        X509v3 extensions:
            X509v3 Subject Key Identifier: 
                F9:6A:A4:AE:0B:C2:82:45:DD:38:2F:9C:DB:B1:D3:CB:46:36:81:18
            X509v3 Authority Key Identifier: 
                97:6E:F5:B1:38:A0:FA:55:28:0D:D5:CC:E2:C3:41:F9:6F:F7:2E:57
            X509v3 Basic Constraints: 
                CA:FALSE
            X509v3 Key Usage: 
                Digital Signature, Key Encipherment
            Netscape Cert Type: 
                ...
    Signature Algorithm: sha256WithRSAEncryption
    Signature Value:
        72:d0:17:05:cb:56:c7:e5:96:1a:6b:42:48:94:b9:47:2b:33:
        e3:aa:b0:a5:e3:47:7e:53:a9:7d:c0:71:30:9c:40:df:c0:a3:
        a2:2f:02:98:7a:b1:ee:0b:0b:2c:d0:ab:4b:cd:a4:63:1b:4d:
        31:95:f1:71:3d:99:d0:6e:d3:a7:06:33:63:05:a7:6d:6a:2c:
        e1:97:b2:2c:23:58:c7:f8:49:ba:f4:f4:6d:28:fa:71:85:c0:
        8e:44:bc:5c:9a:b6:08:41:69:cb:08:28:62:30:9d:38:30:05:
        18:0f:89:7d:f1:30:65:50:08:28:ec:ec:15:89:7b:46:6d:58:
        e5:f9:27:6b:6f:e4:be:25:d6:7f:14:94:b3:1e:ba:60:aa:80:
        c7:d4:97:9a:40:1c:a5:3f:0e:fd:f5:e1:25:e4:36:81:c2:69:
        15:77:7d:20:9f:dd:eb:b6:c3:91:29:98:7f:cd:bc:bf:4c:6f:
        45:1a:9b:b3:5c:bc:6b:2a:4c:60:23:29:a0:db:46:40:e3:51:
        3a:84:56:ca:ae:7e:00:c2:26:ad:b9:3e:82:69:c4:c4:2b:b5:
        76:28:bb:45:58:c8:7b:bd:bb:c4:27:7e:24:21:48:7d:0d:65:
        54:d2:56:e1:28:af:e0:e0:4f:b7:67:6c:a2:eb:31:ad:10:25:
        6d:e1:e8:18:bc:d4:e9:76:54:ec:d2:1e:51:d0:04:92:6f:96:
        00:d3:c4:ff:b0:2a:d0:49:61:9f:34:9a:a3:da:36:88:8d:4f:
        b3:98:77:9d:57:e8:b0:9d:66:23:71:c8:aa:14:36:09:04:67:
        da:b3:91:1a:8f:54:4f:88:45:6a:ae:63:f5:de:aa:61:0b:02:
        b3:28:be:20:83:ba:4c:b9:d0:4c:4e:42:4f:2c:41:d5:1e:ec:
        86:6b:5b:7b:a3:a1:3e:ed:12:09:e5:58:b5:ec:c9:15:db:36:
        4d:11:bc:dc:83:83:2f:37:95:07:c0:b7:b9:42:a1:ad:b2:f2:
        97:5d:23:ce:1f:fc:a4:bf:15:e8:4d:3c:10:95:02:83:e2:b0:
        a3:fb:81:96:ce:f4:c1:72:36:4e:28:40:4a:8d:41:40:a6:d2:
        12:c7:78:70:66:4d:75:41:a0:a2:1c:af:9b:db:77:07:38:f8:
        a2:e4:b6:d5:d9:a0:14:6e:b5:33:fb:9b:ed:c9:f0:e9:5f:75:
        ea:b6:6f:de:08:54:ee:f1:90:23:b1:eb:73:5d:e4:53:ef:34:
        99:dd:64:2f:b0:8d:ee:33:15:3b:8f:03:99:bb:9f:06:03:b9:
        f5:6d:38:b3:59:1e:cd:2d:5e:e2:43:5a:7b:a7:c1:59:bc:c2:
        c7:04:db:96:e6:a2:34:0a
-----BEGIN CERTIFICATE-----
MIIEXjCCAkagAwIBAgIBdjANBgkqhkiG9w0BAQsFADBGMQswCQYDVQQGEwJDQTEN
MAsGA1UECgwEU0VMRjENMAsGA1UECwwEU0VMRjEZMBcGA1UEAwwQU0VMRiBJREVO
VElUWSBDQTAgFw0yNDA5MDkxNjUyMzhaGA8yMTI0MDgxNjE2NTIzOFowLzELMAkG
A1UEBhMCQ0ExETAPBgNVBAoMCG1iZWQgVExTMQ0wCwYDVQQDDARDZXJ0MIIBIjAN
BgkqhkiG9w0BAQEFAAOCAQ8AMIIBCgKCAQEA1VSS/gKy3zIhWyzyMfIdK3AE11Cl
hkjt7lZyDl0XiaXYe/WlU5yERmzTndULj8xjm2cnPhlGNCxDvZcA/UirWFofTXyH
Dt/qY/lT7s6SSCYs/meSZC7p0feft+dAh8s2y+V5KBkTYJy5l7OuyfsEGk0Wf/jc
Q+9b7Yfk3aIzEO/p2jDVx/TGHNMZebr7sWc7PWAFM3JKqWuUjq2L6S1ni6G2ZBfP
/ulhclCQdDiWk7Iu2LWgprNvwv4mrv5AO6oKRD0o9LQAZbiLU8OhgUz4aa8ZCjev
MkRq1F7+zdGmM33QHypO1cO0mQllFLidT7Vskh8n1WlBHlcj3GGi6/hplwIDAQAB
o2wwajAdBgNVHQ4EFgQU+WqkrgvCgkXdOC+c27HTy0Y2gRgwHwYDVR0jBBgwFoAU
l271sTig+lUoDdXM4sNB+W/3LlcwCQYDVR0TBAIwADALBgNVHQ8EBAMCBaAwEAYJ
YIZIAYb4QgEBBAMDAQAwDQYJKoZIhvcNAQELBQADggIBAHLQFwXLVsfllhprQkiU
uUcrM+OqsKXjR35TqX3AcTCcQN/Ao6IvAph6se4LCyzQq0vNpGMbTTGV8XE9mdBu
06cGM2MFp21qLOGXsiwjWMf4Sbr09G0o+nGFwI5EvFyatghBacsIKGIwnTgwBRgP
iX3xMGVQCCjs7BWJe0ZtWOX5J2tv5L4l1n8UlLMeumCqgMfUl5pAHKU/Dv314SXk
NoHCaRV3fSCf3eu2w5EpmH/NvL9Mb0Uam7NcvGsqTGAjKaDbRkDjUTqEVsqufgDC
Jq25PoJpxMQrtXYou0VYyHu9u8QnfiQhSH0NZVTSVuEor+DgT7dnbKLrMa0QJW3h
6Bi81Ol2VOzSHlHQBJJvlgDTxP+wKtBJYZ80mqPaNoiNT7OYd51X6LCdZiNxyKoU
NgkEZ9qzkRqPVE+IRWquY/XeqmELArMoviCDuky50ExOQk8sQdUe7IZrW3ujoT7t
EgnlWLXsyRXbNk0RvNyDgy83lQfAt7lCoa2y8pddI84f/KS/FehNPBCVAoPisKP7
gZbO9MFyNk4oQEqNQUCm0hLHeHBmTXVBoKIcr5vbdwc4+KLkttXZoBRutTP7m+3J
8Olfdeq2b94IVO7xkCOx63Nd5FPvNJndZC+wje4zFTuPA5m7nwYDufVtOLNZHs0t
XuJDWnunwVm8wscE25bmojQK
-----END CERTIFICATE-----
