Certificate:
    Data:
        Version: 3 (0x2)
        Serial Number: 1 (0x1)
        Signature Algorithm: ecdsa-with-SHA384
        Issuer: C=CA, O=SELF, OU=SELF, CN=SELF AUTH CA
        Validity
            Not Before: Sep 18 19:56:20 2024 GMT
            Not After : Sep 18 19:56:20 2029 GMT
        Subject: C=CA, ST=PAMA, L=Quebec, O=SELF, OU=SELF unit, CN=as leaf certificate
        Subject Public Key Info:
            Public Key Algorithm: rsaEncryption
                Public-Key: (4096 bit)
                Modulus:
                    00:bb:75:7e:d2:22:73:e1:94:56:0b:f0:f5:65:e5:
                    bd:18:9e:bf:dc:bc:c4:93:c6:0d:01:fd:e4:c3:8b:
                    3e:ca:af:cd:87:28:a3:63:be:dd:3a:88:25:c6:53:
                    86:7a:c2:d2:79:e1:39:ee:c4:4c:31:57:c1:bd:38:
                    37:80:29:01:54:9b:84:50:e5:be:27:34:57:8e:4a:
                    9b:28:63:af:76:00:10:1a:d5:55:5d:f1:05:84:28:
                    c0:49:a2:24:37:00:18:ac:b1:ee:85:42:d1:27:d3:
                    26:41:25:ee:07:5c:37:fa:19:9c:2c:61:c2:69:ab:
                    99:61:9b:a8:5d:3a:8e:bc:15:db:5a:5c:4a:bf:44:
                    7c:dc:18:41:4c:32:9a:4c:a4:a0:2f:6d:9e:29:fd:
                    4c:5e:17:97:6b:e1:72:92:1f:d6:6e:a2:1e:bc:bc:
                    cc:7e:a1:83:85:f9:9a:08:a8:69:64:20:49:f5:54:
                    45:1f:81:22:c3:4c:d5:5e:ad:31:b6:08:4a:c0:bf:
                    81:e5:a9:7c:c3:bd:c0:df:91:1c:48:05:2a:0c:0f:
                    c5:d3:7d:1b:ba:c0:1e:6a:7e:21:34:10:98:d1:cd:
                    45:57:c5:e2:14:b1:fe:e0:71:a1:24:e1:1a:45:fd:
                    ff:68:be:a8:1b:c3:62:0d:d5:2a:8c:bc:ff:9e:56:
                    d7:45:7f:05:09:58:63:ed:e8:0f:a9:c3:03:1e:ff:
                    45:90:f7:d0:b9:21:0d:b3:7a:d5:d9:32:ed:b2:fd:
                    f7:38:d1:5b:9c:e8:a8:fb:ff:48:87:60:60:ec:d5:
                    25:e9:68:c5:ca:d2:c4:98:35:bf:b3:6c:12:cf:d9:
                    35:2d:5e:ae:3f:5d:de:bb:f3:a2:59:c7:f8:fb:7f:
                    0e:a1:31:f1:f5:d2:66:73:a1:50:98:ea:f8:eb:5a:
                    10:86:11:ef:56:c9:73:16:aa:76:9d:36:fe:c3:7f:
                    11:7c:9e:b3:56:50:04:3d:b9:51:e8:a1:12:55:41:
                    51:9f:79:21:b7:99:4e:11:8f:7b:bb:5c:46:41:38:
                    f8:2a:55:f5:ee:45:ca:c9:98:78:49:98:58:cd:57:
                    47:c7:b7:f5:1d:dc:63:d7:70:09:da:51:71:17:2b:
                    47:27:40:c8:fb:bf:25:3d:cd:d2:28:3e:d0:3c:94:
                    fc:fb:64:b1:ee:b0:46:cc:71:56:70:2b:5e:68:da:
                    18:6b:c6:dd:67:b8:72:9b:86:b6:c5:a3:e3:1e:f1:
                    ed:d0:a8:29:d5:5d:da:ec:60:6d:8d:be:8c:15:83:
                    50:64:72:c6:f4:9d:4b:d6:41:95:e3:b3:ce:07:5d:
                    aa:50:5f:48:a4:7d:52:4a:19:3d:88:50:fa:84:2a:
                    c6:09:11
                Exponent: 65537 (0x10001)
        X509v3 extensions:
            X509v3 Key Usage: critical
                Digital Signature, Non Repudiation, Key Encipherment
            X509v3 Basic Constraints: critical
                CA:FALSE
            X509v3 Extended Key Usage: critical
                Code Signing
            X509v3 Subject Key Identifier: 
                9D:4F:E9:E0:19:55:AA:DD:EE:8A:64:59:EA:24:E4:1C:EF:D9:0C:4F
            X509v3 Authority Key Identifier: 
                A7:9E:5B:D1:BF:A4:33:A6:69:AE:56:7C:95:3C:B2:45:58:D6:AC:3E
            Authority Information Access: 
                CA Issuers - URI:http://abb.abb/ca/as-ca.cer
            X509v3 CRL Distribution Points: 
                Full Name:
                  URI:http://abb.abb/ca/as-ca.crl
    Signature Algorithm: ecdsa-with-SHA384
    Signature Value:
        30:21:02:0f:00:ae:29:7b:16:b1:b1:03:18:92:d3:1b:51:2b:
        79:02:0e:44:58:71:86:27:64:ca:30:97:8a:ba:9c:90:6e
-----BEGIN CERTIFICATE-----
MIIEJzCCA/GgAwIBAgIBATAKBggqhkjOPQQDAzBCMQswCQYDVQQGEwJDQTENMAsG
A1UECgwEU0VMRjENMAsGA1UECwwEU0VMRjEVMBMGA1UEAwwMU0VMRiBBVVRIIENB
MB4XDTI0MDkxODE5NTYyMFoXDTI5MDkxODE5NTYyMFowbjELMAkGA1UEBhMCQ0Ex
DTALBgNVBAgMBFBBTUExDzANBgNVBAcMBlF1ZWJlYzENMAsGA1UECgwEU0VMRjES
MBAGA1UECwwJU0VMRiB1bml0MRwwGgYDVQQDDBNhcyBsZWFmIGNlcnRpZmljYXRl
MIICIjANBgkqhkiG9w0BAQEFAAOCAg8AMIICCgKCAgEAu3V+0iJz4ZRWC/D1ZeW9
GJ6/3LzEk8YNAf3kw4s+yq/NhyijY77dOoglxlOGesLSeeE57sRMMVfBvTg3gCkB
VJuEUOW+JzRXjkqbKGOvdgAQGtVVXfEFhCjASaIkNwAYrLHuhULRJ9MmQSXuB1w3
+hmcLGHCaauZYZuoXTqOvBXbWlxKv0R83BhBTDKaTKSgL22eKf1MXheXa+Fykh/W
bqIevLzMfqGDhfmaCKhpZCBJ9VRFH4Eiw0zVXq0xtghKwL+B5al8w73A35EcSAUq
DA/F030busAean4hNBCY0c1FV8XiFLH+4HGhJOEaRf3/aL6oG8NiDdUqjLz/nlbX
RX8FCVhj7egPqcMDHv9FkPfQuSENs3rV2TLtsv33ONFbnOio+/9Ih2Bg7NUl6WjF
ytLEmDW/s2wSz9k1LV6uP13eu/OiWcf4+38OoTHx9dJmc6FQmOr461oQhhHvVslz
Fqp2nTb+w38RfJ6zVlAEPblR6KESVUFRn3kht5lOEY97u1xGQTj4KlX17kXKyZh4
SZhYzVdHx7f1Hdxj13AJ2lFxFytHJ0DI+78lPc3SKD7QPJT8+2Sx7rBGzHFWcCte
aNoYa8bdZ7hym4a2xaPjHvHt0Kgp1V3a7GBtjb6MFYNQZHLG9J1L1kGV47POB12q
UF9IpH1SShk9iFD6hCrGCRECAwEAAaOB4DCB3TAOBgNVHQ8BAf8EBAMCBeAwDAYD
VR0TAQH/BAIwADAWBgNVHSUBAf8EDDAKBggrBgEFBQcDAzAdBgNVHQ4EFgQUnU/p
4BlVqt3uimRZ6iTkHO/ZDE8wHwYDVR0jBBgwFoAUp55b0b+kM6ZprlZ8lTyyRVjW
rD4wNwYIKwYBBQUHAQEEKzApMCcGCCsGAQUFBzAChhtodHRwOi8vYWJiLmFiYi9j
YS9hcy1jYS5jZXIwLAYDVR0fBCUwIzAhoB+gHYYbaHR0cDovL2FiYi5hYmIvY2Ev
YXMtY2EuY3JsMAoGCCqGSM49BAMDAyQAMCECDwCuKXsWsbEDGJLTG1EreQIORFhx
hidkyjCXirqckG4=
-----END CERTIFICATE-----
