Certificate:
    Data:
        Version: 3 (0x2)
        Serial Number: 1 (0x1)
        Signature Algorithm: sha384WithRSAEncryption
        Issuer: C=CA, O=SELF, OU=SELF, CN=SELF AUTH CA
        Validity
            Not Before: Sep  8 18:09:17 2024 GMT
            Not After : Sep  8 18:09:17 2029 GMT
        Subject: C=CA, ST=PAMA, L=Quebec, O=SELF, OU=SELF unit, CN=as leaf certificate
        Subject Public Key Info:
            Public Key Algorithm: rsaEncryption
                Public-Key: (4096 bit)
                Modulus:
                    00:e5:cc:15:53:6a:57:fa:66:f3:6a:e9:97:e9:19:
                    2c:15:a7:d7:40:f3:24:87:d6:7c:95:b5:43:c7:cf:
                    36:4e:3d:40:fb:f8:ed:85:8b:fa:a4:83:14:a4:1c:
                    db:fd:81:88:35:3f:c4:41:7a:fa:89:ee:6f:e0:7d:
                    ee:3e:63:f8:d6:43:f4:bf:81:1f:73:77:4e:3e:cc:
                    80:a8:38:d7:69:57:44:b9:f9:4e:15:ad:6a:38:cf:
                    bc:cf:b4:1a:f2:c6:39:db:91:8a:ef:df:03:5f:29:
                    d6:01:b2:ed:05:c0:24:8f:74:5f:61:e1:e8:28:89:
                    58:36:49:ea:a1:d1:5e:ef:0b:58:ae:b0:e3:a9:5d:
                    f8:88:c5:ac:39:a0:63:9b:b0:3a:61:d7:7c:2a:0b:
                    42:f5:95:45:47:81:6c:10:08:a7:6c:9b:44:b8:ab:
                    34:22:8f:f8:3d:cc:72:dc:b0:36:a0:dc:55:82:d5:
                    29:27:e1:ac:a4:65:2c:b3:60:83:bf:10:d5:90:48:
                    db:11:8b:bf:46:ba:b8:f6:e1:21:5f:13:08:20:42:
                    ef:8d:20:51:e2:fa:bd:ac:15:e1:c4:b5:20:07:d3:
                    03:28:70:09:69:1f:0d:a6:18:0b:a9:0f:c3:c2:86:
                    85:86:75:df:dc:f6:70:b6:9e:60:f9:5a:9a:57:27:
                    3a:00:ef:b5:e9:d9:25:02:0f:36:19:5d:d3:ae:80:
                    99:4e:64:bd:51:ec:f2:c9:28:32:29:cd:56:0a:c1:
                    c8:9e:70:c0:62:51:8a:f3:34:b9:57:08:90:90:f6:
                    c9:0b:63:e0:de:65:54:2d:97:eb:3f:d9:c4:97:27:
                    f2:8e:79:64:f3:22:7d:f6:df:cb:21:b7:9d:f5:d2:
                    b9:a4:7f:0f:62:3c:dd:a9:b7:31:91:2e:7b:cc:6f:
                    3c:9c:0b:7f:76:f4:41:1d:7c:1d:a7:17:e5:b6:21:
                    93:76:63:1a:6f:39:9d:ae:c1:4c:d3:3b:7e:0d:15:
                    7e:70:3e:f7:55:cb:7e:ea:f1:8d:ff:87:01:78:a6:
                    74:a8:bd:d5:2a:01:8e:26:d5:5a:1d:da:27:57:f4:
                    81:0c:46:49:d3:8d:1c:6a:da:5a:9f:a3:d7:6e:f8:
                    ae:50:12:de:eb:66:6e:a0:16:5f:1b:1d:ca:c5:c9:
                    2e:5c:c6:e3:ed:fb:20:ae:d2:af:67:ca:9c:c5:20:
                    59:bb:d9:7d:10:3a:8b:5b:4f:13:eb:5f:13:0f:5c:
                    21:78:79:04:e9:ef:69:06:7a:db:1b:1f:c7:a2:50:
                    54:3f:b3:ea:60:38:a8:dd:4e:3e:eb:c9:8f:96:fc:
                    f8:f7:b0:eb:81:ae:9f:7a:50:c7:bd:90:bc:94:50:
                    e2:b8:ed
                Exponent: 65537 (0x10001)
        X509v3 extensions:
            X509v3 Key Usage: critical
                Digital Signature, Non Repudiation, Key Encipherment
            X509v3 Basic Constraints: critical
                CA:FALSE
            X509v3 Extended Key Usage: critical
                Code Signing
            X509v3 Subject Key Identifier: 
                84:18:FD:22:AB:7B:48:BA:7C:78:18:52:FD:8F:F1:4B:D9:D3:B5:E7
            X509v3 Authority Key Identifier: 
                99:0C:43:36:FB:EA:E3:D9:A6:C6:74:8C:43:3B:21:F3:B0:95:93:83
            Authority Information Access: 
                CA Issuers - URI:http://abb.abb/ca/as-ca.cer
            X509v3 CRL Distribution Points: 
                Full Name:
                  URI:http://abb.abb/ca/as-ca.crl
    Signature Algorithm: sha384WithRSAEncryption
    Signature Value:
        7f:36:a7:65:40:91:48:eb:03:d6:65:54:15:24:e2:9d:e8:42:
        21:b9:de:50:a2:5b:a6:21:f8:84:d1:86:e4:22:50:2f:ca:1f:
        3d:6d:ee:9b:31:5e:fd:27:15:8b:01:51:04:8b:53:f8:6a:87:
        5f:32:d3:7e:b4:84:ec:80:66:7b:ad:bd:b2:bc:36:c6:1e:ec:
        dc:93:2b:e5:1f:6f:98:9e:39:4f:76:e1:81:cc:72:be:dc:dc:
        5c:95:8b:57:3a:a6:c9:87:e9:6b:85:9d:56:f5:ac:5b:b0:c4:
        3d:50:87:74:b6:df:a4:58:6e:db:e3:fe:93:7b:a7:3e:7b:f5:
        0c:ba:03:2f:6d:65:a2:9f:c3:94:9d:4e:15:d4:76:1a:54:94:
        ba:e7:5f:9d:b6:45:81:94:e7:88:72:be:8b:09:20:2d:f9:c9:
        11:a9:83:23:a1:bc:2f:02:86:ef:fb:8f:7f:86:8d:14:68:3e:
        b6:3d:2d:a2:93:64:b1:e6:bf:a6:12:24:6e:68:f8:d8:83:f0:
        90:bb:ff:db:4d:4f:15:dc:9c:1f:a3:5a:9b:1c:e9:64:5b:b0:
        7c:2c:41:0b:85:9a:12:d7:56:ae:ed:b8:f1:e3:f0:3c:84:f7:
        5a:89:9b:02:00:02:98:40:fc:fa:9a:a0:8c:69:08:69:38:ca:
        90:8d:a5:01:77:3d:84:6c:17:16:99:34:3c:39:9a:d4:f0:6f:
        76:2f:8e:46:46:a1:40:4b:b3:c1:33:b4:62:b1:53:d4:75:63:
        a4:59:79:32:2e:52:7b:59:57:f2:8b:f5:ec:1b:7d:47:70:39:
        9c:3c:a9:de:ef:c8:35:f7:aa:f3:41:b4:b9:c9:11:92:70:11:
        c8:ac:88:e7:eb:94:79:29:a9:c4:46:91:09:7d:0d:3e:64:58:
        57:9f:b1:77:c3:94:60:39:73:93:41:6d:4e:70:4c:84:18:a3:
        10:fc:15:f6:e9:47:a1:6e:91:7a:c4:ac:ec:f3:b4:71:51:66:
        3d:4a:3b:61:60:ad:49:af:7c:0d:b6:36:41:f3:41:21:72:12:
        b6:54:69:84:88:54:18:ba:b7:6c:68:b2:ae:85:88:2a:9d:79:
        f8:79:b6:ea:2a:00:e1:cb:5c:16:1c:f8:36:75:e5:47:99:8f:
        0d:c5:c4:00:19:c4:04:28:0a:6c:42:21:76:4a:b4:92:dc:e9:
        8a:29:06:b5:06:8e:ba:2e:ba:a5:b9:53:6d:00:3e:16:1e:22:
        f8:f1:da:bb:74:7b:1c:c6:30:b8:15:1c:bd:91:06:39:84:88:
        54:16:c2:f9:5d:fb:2c:7b:da:25:01:61:b7:97:6f:4c:e3:32:
        60:af:d7:30:5a:b5:09:72
-----BEGIN CERTIFICATE-----
MIIGDDCCA/SgAwIBAgIBATANBgkqhkiG9w0BAQwFADBCMQswCQYDVQQGEwJDQTEN
MAsGA1UECgwEU0VMRjENMAsGA1UECwwEU0VMRjEVMBMGA1UEAwwMU0VMRiBBVVRI
IENBMB4XDTI0MDkwODE4MDkxN1oXDTI5MDkwODE4MDkxN1owbjELMAkGA1UEBhMC
Q0ExDTALBgNVBAgMBFBBTUExDzANBgNVBAcMBlF1ZWJlYzENMAsGA1UECgwEU0VM
RjESMBAGA1UECwwJU0VMRiB1bml0MRwwGgYDVQQDDBNhcyBsZWFmIGNlcnRpZmlj
YXRlMIICIjANBgkqhkiG9w0BAQEFAAOCAg8AMIICCgKCAgEA5cwVU2pX+mbzaumX
6RksFafXQPMkh9Z8lbVDx882Tj1A+/jthYv6pIMUpBzb/YGINT/EQXr6ie5v4H3u
PmP41kP0v4Efc3dOPsyAqDjXaVdEuflOFa1qOM+8z7Qa8sY525GK798DXynWAbLt
BcAkj3RfYeHoKIlYNknqodFe7wtYrrDjqV34iMWsOaBjm7A6Ydd8KgtC9ZVFR4Fs
EAinbJtEuKs0Io/4Pcxy3LA2oNxVgtUpJ+GspGUss2CDvxDVkEjbEYu/Rrq49uEh
XxMIIELvjSBR4vq9rBXhxLUgB9MDKHAJaR8NphgLqQ/DwoaFhnXf3PZwtp5g+Vqa
Vyc6AO+16dklAg82GV3TroCZTmS9UezyySgyKc1WCsHInnDAYlGK8zS5VwiQkPbJ
C2Pg3mVULZfrP9nElyfyjnlk8yJ99t/LIbed9dK5pH8PYjzdqbcxkS57zG88nAt/
dvRBHXwdpxfltiGTdmMabzmdrsFM0zt+DRV+cD73Vct+6vGN/4cBeKZ0qL3VKgGO
JtVaHdonV/SBDEZJ040catpan6PXbviuUBLe62ZuoBZfGx3KxckuXMbj7fsgrtKv
Z8qcxSBZu9l9EDqLW08T618TD1wheHkE6e9pBnrbGx/HolBUP7PqYDio3U4+68mP
lvz497Drga6felDHvZC8lFDiuO0CAwEAAaOB4DCB3TAOBgNVHQ8BAf8EBAMCBeAw
DAYDVR0TAQH/BAIwADAWBgNVHSUBAf8EDDAKBggrBgEFBQcDAzAdBgNVHQ4EFgQU
hBj9Iqt7SLp8eBhS/Y/xS9nTtecwHwYDVR0jBBgwFoAUmQxDNvvq49mmxnSMQzsh
87CVk4MwNwYIKwYBBQUHAQEEKzApMCcGCCsGAQUFBzAChhtodHRwOi8vYWJiLmFi
Yi9jYS9hcy1jYS5jZXIwLAYDVR0fBCUwIzAhoB+gHYYbaHR0cDovL2FiYi5hYmIv
Y2EvYXMtY2EuY3JsMA0GCSqGSIb3DQEBDAUAA4ICAQB/NqdlQJFI6wPWZVQVJOKd
6EIhud5QolumIfiE0YbkIlAvyh89be6bMV79JxWLAVEEi1P4aodfMtN+tITsgGZ7
rb2yvDbGHuzckyvlH2+YnjlPduGBzHK+3NxclYtXOqbJh+lrhZ1W9axbsMQ9UId0
tt+kWG7b4/6Te6c+e/UMugMvbWWin8OUnU4V1HYaVJS651+dtkWBlOeIcr6LCSAt
+ckRqYMjobwvAobv+49/ho0UaD62PS2ik2Sx5r+mEiRuaPjYg/CQu//bTU8V3Jwf
o1qbHOlkW7B8LEELhZoS11au7bjx4/A8hPdaiZsCAAKYQPz6mqCMaQhpOMqQjaUB
dz2EbBcWmTQ8OZrU8G92L45GRqFAS7PBM7RisVPUdWOkWXkyLlJ7WVfyi/XsG31H
cDmcPKne78g196rzQbS5yRGScBHIrIjn65R5KanERpEJfQ0+ZFhXn7F3w5RgOXOT
QW1OcEyEGKMQ/BX26UehbpF6xKzs87RxUWY9SjthYK1Jr3wNtjZB80EhchK2VGmE
iFQYurdsaLKuhYgqnXn4ebbqKgDhy1wWHPg2deVHmY8NxcQAGcQEKApsQiF2SrSS
3OmKKQa1Bo66LrqluVNtAD4WHiL48dq7dHscxjC4FRy9kQY5hIhUFsL5Xfsse9ol
AWG3l29M4zJgr9cwWrUJcg==
-----END CERTIFICATE-----
