Certificate:
    Data:
        Version: 3 (0x2)
        Serial Number: 1 (0x1)
        Signature Algorithm: ecdsa-with-SHA384
        Issuer: C=CA, O=SELF, OU=SELF, CN=SELF AUTH CA
        Validity
            Not Before: Sep 18 21:13:22 2024 GMT
            Not After : Sep 18 21:13:22 2029 GMT
        Subject: C=CA, ST=PAMA, L=Quebec, O=SELF, OU=SELF unit, CN=as leaf certificate
        Subject Public Key Info:
            Public Key Algorithm: rsaEncryption
                Public-Key: (4096 bit)
                Modulus:
                    00:d3:97:25:97:08:e5:c6:bc:c8:fc:c4:13:9a:59:
                    05:fa:c3:0a:f2:78:81:f2:c6:b6:fd:7a:f0:8b:57:
                    b9:7c:18:ca:3e:35:da:3c:d2:df:d8:72:0e:65:bc:
                    29:36:c8:71:ff:dc:70:41:c6:84:34:b5:1f:b8:a1:
                    83:7f:d7:00:38:ea:c9:06:3a:eb:35:82:31:7c:ee:
                    05:51:23:09:73:a8:35:18:8e:10:d3:e5:4a:cd:bf:
                    80:55:3a:2f:5b:43:50:aa:21:87:7a:ae:b7:f7:5c:
                    b0:a6:16:41:0b:26:85:ea:38:d1:ac:0c:13:cc:a6:
                    8d:9c:f4:61:72:18:2b:5d:b2:7d:ce:9e:73:bb:be:
                    5d:b4:56:6c:e9:a7:2b:fd:c1:11:a3:c5:76:2c:78:
                    fe:e2:42:4e:2b:bf:03:e0:ad:c5:1b:07:6f:f7:6b:
                    43:50:9e:23:46:08:75:cb:d8:60:5e:ae:ff:b6:58:
                    f5:a1:33:3c:1f:58:d2:b2:6c:ab:c5:d3:80:77:85:
                    a8:81:9b:37:f2:37:15:48:48:f7:1e:16:d8:ac:3e:
                    3b:97:37:f3:69:64:57:fa:73:aa:44:90:9b:8c:f5:
                    d6:4a:d8:40:38:25:4e:8f:33:1a:78:c3:be:1b:0a:
                    0d:7b:f5:b0:bc:e8:d0:9d:ba:98:44:ff:53:53:7a:
                    ab:e5:73:9b:86:fd:99:e7:a6:7f:01:21:fe:1b:b1:
                    55:95:23:e2:a0:84:7e:6e:fc:3f:62:58:12:ad:2f:
                    2f:46:92:86:12:35:89:49:d8:9b:97:fc:7c:83:c6:
                    e0:6a:e3:89:93:b0:56:e0:c6:8d:35:05:12:1e:18:
                    78:b8:7d:6c:ce:ba:83:55:e6:45:db:ce:93:d9:a8:
                    90:cc:16:76:cc:3c:07:1a:dc:50:1d:80:48:42:1c:
                    62:90:38:e5:ba:f9:6e:6f:ff:95:4c:28:a8:87:ed:
                    32:35:02:7f:29:b1:8e:19:d1:57:f0:8d:cc:4a:4e:
                    6f:51:80:22:c1:c7:b1:e2:c6:69:2d:8e:b5:39:91:
                    78:05:37:e4:b9:a0:f8:69:2d:96:38:8b:76:9a:12:
                    90:9a:9a:42:c2:73:07:9c:09:fc:a2:98:e1:fb:ae:
                    ec:d1:94:18:0a:cd:0f:ca:83:45:e3:c8:41:fb:31:
                    fb:ee:28:5e:dc:8c:da:9e:25:f7:6f:d5:4f:b5:2c:
                    ff:b9:bd:a2:97:f9:69:1b:77:2a:cb:52:d1:5e:2e:
                    23:c7:1f:8b:d3:17:41:a8:0d:97:5a:51:a3:22:c2:
                    11:10:0d:9b:49:1b:a1:74:f3:09:04:e1:4b:88:2b:
                    2f:5c:b3:df:2a:16:76:75:04:82:56:f7:57:3a:a7:
                    4c:b1:f1
                Exponent: 65537 (0x10001)
        X509v3 extensions:
            X509v3 Key Usage: critical
                Digital Signature, Non Repudiation, Key Encipherment
            X509v3 Basic Constraints: critical
                CA:FALSE
            X509v3 Extended Key Usage: critical
                Code Signing
            X509v3 Subject Key Identifier: 
                60:B7:68:87:12:62:DF:AE:17:EE:9A:2B:35:D5:BB:A1:4E:DA:D8:49
            X509v3 Authority Key Identifier: 
                34:8B:96:88:F6:74:48:9B:96:97:BE:F5:72:DF:40:C1:01:7B:7E:D9
            Authority Information Access: 
                CA Issuers - URI:http://abb.abb/ca/as-ca.cer
            X509v3 CRL Distribution Points: 
                Full Name:
                  URI:http://abb.abb/ca/as-ca.crl
    Signature Algorithm: ecdsa-with-SHA384
    Signature Value:
        30:21:02:0e:7e:9d:72:be:f6:9c:30:52:a0:a2:97:cc:8c:2f:
        02:0f:00:91:04:03:6d:28:09:16:ac:4a:dd:6d:87:65:da
-----BEGIN CERTIFICATE-----
MIIEJzCCA/GgAwIBAgIBATAKBggqhkjOPQQDAzBCMQswCQYDVQQGEwJDQTENMAsG
A1UECgwEU0VMRjENMAsGA1UECwwEU0VMRjEVMBMGA1UEAwwMU0VMRiBBVVRIIENB
MB4XDTI0MDkxODIxMTMyMloXDTI5MDkxODIxMTMyMlowbjELMAkGA1UEBhMCQ0Ex
DTALBgNVBAgMBFBBTUExDzANBgNVBAcMBlF1ZWJlYzENMAsGA1UECgwEU0VMRjES
MBAGA1UECwwJU0VMRiB1bml0MRwwGgYDVQQDDBNhcyBsZWFmIGNlcnRpZmljYXRl
MIICIjANBgkqhkiG9w0BAQEFAAOCAg8AMIICCgKCAgEA05cllwjlxrzI/MQTmlkF
+sMK8niB8sa2/Xrwi1e5fBjKPjXaPNLf2HIOZbwpNshx/9xwQcaENLUfuKGDf9cA
OOrJBjrrNYIxfO4FUSMJc6g1GI4Q0+VKzb+AVTovW0NQqiGHeq6391ywphZBCyaF
6jjRrAwTzKaNnPRhchgrXbJ9zp5zu75dtFZs6acr/cERo8V2LHj+4kJOK78D4K3F
Gwdv92tDUJ4jRgh1y9hgXq7/tlj1oTM8H1jSsmyrxdOAd4WogZs38jcVSEj3HhbY
rD47lzfzaWRX+nOqRJCbjPXWSthAOCVOjzMaeMO+GwoNe/WwvOjQnbqYRP9TU3qr
5XObhv2Z56Z/ASH+G7FVlSPioIR+bvw/YlgSrS8vRpKGEjWJSdibl/x8g8bgauOJ
k7BW4MaNNQUSHhh4uH1szrqDVeZF286T2aiQzBZ2zDwHGtxQHYBIQhxikDjluvlu
b/+VTCioh+0yNQJ/KbGOGdFX8I3MSk5vUYAiwcex4sZpLY61OZF4BTfkuaD4aS2W
OIt2mhKQmppCwnMHnAn8opjh+67s0ZQYCs0PyoNF48hB+zH77ihe3IzaniX3b9VP
tSz/ub2il/lpG3cqy1LRXi4jxx+L0xdBqA2XWlGjIsIREA2bSRuhdPMJBOFLiCsv
XLPfKhZ2dQSCVvdXOqdMsfECAwEAAaOB4DCB3TAOBgNVHQ8BAf8EBAMCBeAwDAYD
VR0TAQH/BAIwADAWBgNVHSUBAf8EDDAKBggrBgEFBQcDAzAdBgNVHQ4EFgQUYLdo
hxJi364X7porNdW7oU7a2EkwHwYDVR0jBBgwFoAUNIuWiPZ0SJuWl771ct9AwQF7
ftkwNwYIKwYBBQUHAQEEKzApMCcGCCsGAQUFBzAChhtodHRwOi8vYWJiLmFiYi9j
YS9hcy1jYS5jZXIwLAYDVR0fBCUwIzAhoB+gHYYbaHR0cDovL2FiYi5hYmIvY2Ev
YXMtY2EuY3JsMAoGCCqGSM49BAMDAyQAMCECDn6dcr72nDBSoKKXzIwvAg8AkQQD
bSgJFqxK3W2HZdo=
-----END CERTIFICATE-----
