Certificate:
    Data:
        Version: 3 (0x2)
        Serial Number: 1 (0x1)
        Signature Algorithm: sha384WithRSAEncryption
        Issuer: C=CA, O=SELF, OU=SELF, CN=SELF IDENTITY CA
        Validity
            Not Before: Nov 18 20:48:07 2024 GMT
            Not After : Nov 18 20:48:07 2029 GMT
        Subject: C=CA, ST=PAMA, L=Quebec, O=SELF, OU=SELF unit, CN=is leaf certificate
        Subject Public Key Info:
            Public Key Algorithm: rsaEncryption
                Public-Key: (4096 bit)
                Modulus:
                    00:cf:fe:f1:df:fd:a4:76:95:46:87:67:5b:e9:2d:
                    8d:f1:c6:2f:79:00:b6:91:02:9b:d2:ae:84:37:34:
                    f1:a9:23:d7:66:7c:2c:69:78:f0:85:cd:69:5f:6f:
                    05:57:8a:e3:eb:0f:13:c7:47:46:7b:16:67:d7:28:
                    35:59:89:3d:32:d5:40:84:fe:49:23:3e:59:bb:d7:
                    16:24:eb:a4:a0:7a:aa:ac:99:be:83:a1:b9:5b:50:
                    93:71:49:3a:e5:f1:cb:f2:cb:e2:9c:de:87:86:d3:
                    c2:dd:4e:26:2d:76:43:26:5d:2b:6f:ff:9d:b5:ac:
                    a5:10:c1:6a:20:a5:83:70:39:af:a6:1c:e7:14:11:
                    2e:1e:82:59:f8:2e:29:d3:cd:74:01:0e:cf:c3:77:
                    25:a1:79:18:f8:e5:8c:b9:45:4a:89:b5:9b:11:43:
                    e7:c2:1e:1a:80:51:60:2b:d0:52:6f:d9:27:86:a4:
                    3a:d6:d1:f4:05:3f:eb:a8:cc:ed:12:bf:99:2b:e6:
                    4a:6d:df:c9:ca:16:00:c3:9c:bc:13:0b:c5:58:9d:
                    09:7c:08:c5:8e:53:3d:70:d0:64:45:47:77:f4:5d:
                    bd:60:cc:97:45:10:01:e8:12:67:62:22:03:16:e5:
                    8d:b8:e9:a3:af:c9:c3:48:03:e6:67:ca:83:0e:f3:
                    03:49:3c:46:d4:ad:9a:97:a5:1e:5a:d3:28:92:03:
                    4b:66:ce:5f:8d:6c:b0:53:1e:09:6a:d8:40:24:d1:
                    69:ff:f5:22:4f:6e:6a:7e:d6:7a:11:d4:b9:74:7f:
                    fc:63:ed:cf:ec:9a:2d:f4:02:f4:21:11:a8:42:09:
                    d8:29:82:26:a9:bb:7b:fc:76:93:ff:6a:9e:73:db:
                    aa:d4:68:c5:cf:b3:bd:13:f9:4c:6b:09:3f:5e:a3:
                    25:63:53:d8:25:5a:77:56:ef:3e:60:a2:99:1b:56:
                    e8:ff:81:5e:f7:75:57:d0:df:60:b7:ac:74:af:16:
                    dd:eb:59:ef:64:bb:d7:76:2d:21:c5:c4:1b:99:f3:
                    b4:65:4d:b9:00:90:4a:31:e3:08:d3:f1:e6:51:8b:
                    c0:49:05:53:33:66:52:6f:bc:30:1b:92:ed:f1:62:
                    4b:8e:e1:64:3c:e0:83:43:d0:e0:42:1f:2c:13:8f:
                    02:61:e3:5a:0e:7f:9c:82:f6:9f:02:96:53:16:40:
                    91:f0:b3:77:fa:71:86:cf:c4:10:8d:bf:39:fe:32:
                    f1:29:be:5f:2c:c4:f0:7d:73:41:3c:7e:3b:e0:4e:
                    1b:87:ab:ae:bd:b3:6e:8d:bc:00:f6:25:7b:2a:e4:
                    79:9c:b1:ee:7f:30:a8:e2:6d:72:94:c5:06:1c:e2:
                    88:33:ab
                Exponent: 65537 (0x10001)
        X509v3 extensions:
            X509v3 Key Usage: critical
                Digital Signature, Non Repudiation, Key Encipherment
            X509v3 Basic Constraints: critical
                CA:FALSE
            X509v3 Extended Key Usage: critical
                Code Signing, TLS Web Client Authentication
            X509v3 Subject Key Identifier: 
                C0:03:45:95:59:85:15:75:A8:BB:54:2B:30:6D:3A:B3:BE:41:44:7F
            X509v3 Authority Key Identifier: 
                D5:C0:43:58:6E:E1:23:4D:0D:D1:90:C6:02:E0:1B:1A:40:A2:A4:F0
            Authority Information Access: 
                CA Issuers - URI:http://abb.abb/ca/is-ca.cer
            X509v3 CRL Distribution Points: 
                Full Name:
                  URI:http://abb.abb/ca/is-ca.crl
    Signature Algorithm: sha384WithRSAEncryption
    Signature Value:
        45:cc:4a:ec:71:9d:e0:3a:0b:3a:1f:e4:b1:1f:ac:fe:45:ac:
        40:e3:b1:35:66:5c:ec:ab:75:f1:8d:0d:6d:28:04:a4:06:c9:
        22:31:34:35:86:a4:b0:d0:2e:a5:9c:30:8d:23:d0:46:1d:e0:
        13:fe:32:51:b6:fc:9f:5c:18:16:17:5b:3b:6c:41:8d:d2:06:
        11:2d:b8:56:05:5d:75:23:d6:be:5c:dc:1a:05:5c:82:20:b5:
        c7:74:6f:ca:eb:7c:90:ea:a6:4e:45:f3:e7:43:bb:83:fe:c7:
        73:92:e3:74:08:7a:fe:fa:3f:97:f3:c5:e6:f2:e2:53:3e:fb:
        9c:88:74:00:5c:14:8f:82:a5:ad:53:c2:71:44:c4:b8:89:a2:
        70:5f:18:21:7c:67:7b:6b:b7:93:dd:74:f0:ef:22:de:00:ac:
        89:fc:a1:af:5e:64:68:31:b7:47:14:72:ec:c8:e0:10:72:60:
        7d:bb:06:f4:a6:45:90:01:99:31:7f:f9:a9:77:c2:b2:cd:22:
        a7:ab:61:e8:64:80:70:77:a0:82:0e:bc:28:8f:37:e6:7e:73:
        83:a4:f6:26:51:e8:ef:9d:4c:d2:1f:48:eb:e4:a2:46:f0:e1:
        ac:98:af:f0:8b:68:82:53:a3:81:da:13:38:14:b7:ea:38:69:
        05:9f:cb:ba:3f:35:04:63:2e:3e:6e:7a:c3:7d:5e:cd:e4:5d:
        d6:36:b7:2e:3a:05:0c:2b:d9:db:d1:aa:ec:97:26:35:98:59:
        81:8f:7a:89:7e:4b:3f:00:f4:71:7f:88:f4:35:ab:e7:fc:a5:
        a3:37:a9:6b:47:01:11:70:4b:5f:2d:99:34:9e:ea:06:99:1b:
        9a:d1:b1:2e:f0:9e:84:c0:7d:8d:4a:e4:b8:f5:04:8e:44:d6:
        27:bf:56:ef:96:6b:fd:97:12:3c:1e:8c:00:86:e2:a2:94:11:
        79:12:17:10:18:e4:36:7d:76:55:33:02:69:49:59:e1:ca:74:
        de:d0:8a:5d:2f:df:48:f8:62:b4:bf:8a:f7:86:39:a9:69:d8:
        4b:c8:9c:6e:6d:85:fe:c8:6b:51:c1:92:ff:85:1d:24:7b:5e:
        23:44:5a:eb:d4:7b:77:13:82:86:0d:41:3a:eb:97:c7:47:c3:
        d7:3a:78:b9:82:b7:15:04:9c:6a:21:09:08:a6:3a:c5:25:62:
        85:be:60:bd:1b:dd:84:8b:7c:5b:44:68:91:a2:9b:17:79:cb:
        f3:63:92:1c:1b:1e:a6:46:2f:69:4d:f5:ad:54:16:44:0c:53:
        46:20:dd:5d:99:6f:e4:ea:ac:c8:75:76:aa:76:89:9c:17:ca:
        a0:96:9f:6c:ef:0c:3c:68
-----BEGIN CERTIFICATE-----
MIIGGjCCBAKgAwIBAgIBATANBgkqhkiG9w0BAQwFADBGMQswCQYDVQQGEwJDQTEN
MAsGA1UECgwEU0VMRjENMAsGA1UECwwEU0VMRjEZMBcGA1UEAwwQU0VMRiBJREVO
VElUWSBDQTAeFw0yNDExMTgyMDQ4MDdaFw0yOTExMTgyMDQ4MDdaMG4xCzAJBgNV
BAYTAkNBMQ0wCwYDVQQIDARQQU1BMQ8wDQYDVQQHDAZRdWViZWMxDTALBgNVBAoM
BFNFTEYxEjAQBgNVBAsMCVNFTEYgdW5pdDEcMBoGA1UEAwwTaXMgbGVhZiBjZXJ0
aWZpY2F0ZTCCAiIwDQYJKoZIhvcNAQEBBQADggIPADCCAgoCggIBAM/+8d/9pHaV
RodnW+ktjfHGL3kAtpECm9KuhDc08akj12Z8LGl48IXNaV9vBVeK4+sPE8dHRnsW
Z9coNVmJPTLVQIT+SSM+WbvXFiTrpKB6qqyZvoOhuVtQk3FJOuXxy/LL4pzeh4bT
wt1OJi12QyZdK2//nbWspRDBaiClg3A5r6Yc5xQRLh6CWfguKdPNdAEOz8N3JaF5
GPjljLlFSom1mxFD58IeGoBRYCvQUm/ZJ4akOtbR9AU/66jM7RK/mSvmSm3fycoW
AMOcvBMLxVidCXwIxY5TPXDQZEVHd/RdvWDMl0UQAegSZ2IiAxbljbjpo6/Jw0gD
5mfKgw7zA0k8RtStmpelHlrTKJIDS2bOX41ssFMeCWrYQCTRaf/1Ik9uan7WehHU
uXR//GPtz+yaLfQC9CERqEIJ2CmCJqm7e/x2k/9qnnPbqtRoxc+zvRP5TGsJP16j
JWNT2CVad1bvPmCimRtW6P+BXvd1V9DfYLesdK8W3etZ72S713YtIcXEG5nztGVN
uQCQSjHjCNPx5lGLwEkFUzNmUm+8MBuS7fFiS47hZDzgg0PQ4EIfLBOPAmHjWg5/
nIL2nwKWUxZAkfCzd/pxhs/EEI2/Of4y8Sm+XyzE8H1zQTx+O+BOG4errr2zbo28
APYleyrkeZyx7n8wqOJtcpTFBhziiDOrAgMBAAGjgeowgecwDgYDVR0PAQH/BAQD
AgXgMAwGA1UdEwEB/wQCMAAwIAYDVR0lAQH/BBYwFAYIKwYBBQUHAwMGCCsGAQUF
BwMCMB0GA1UdDgQWBBTAA0WVWYUVdai7VCswbTqzvkFEfzAfBgNVHSMEGDAWgBTV
wENYbuEjTQ3RkMYC4BsaQKKk8DA3BggrBgEFBQcBAQQrMCkwJwYIKwYBBQUHMAKG
G2h0dHA6Ly9hYmIuYWJiL2NhL2lzLWNhLmNlcjAsBgNVHR8EJTAjMCGgH6Adhhto
dHRwOi8vYWJiLmFiYi9jYS9pcy1jYS5jcmwwDQYJKoZIhvcNAQEMBQADggIBAEXM
SuxxneA6Czof5LEfrP5FrEDjsTVmXOyrdfGNDW0oBKQGySIxNDWGpLDQLqWcMI0j
0EYd4BP+MlG2/J9cGBYXWztsQY3SBhEtuFYFXXUj1r5c3BoFXIIgtcd0b8rrfJDq
pk5F8+dDu4P+x3OS43QIev76P5fzxeby4lM++5yIdABcFI+Cpa1TwnFExLiJonBf
GCF8Z3trt5PddPDvIt4ArIn8oa9eZGgxt0cUcuzI4BByYH27BvSmRZABmTF/+al3
wrLNIqerYehkgHB3oIIOvCiPN+Z+c4Ok9iZR6O+dTNIfSOvkokbw4ayYr/CLaIJT
o4HaEzgUt+o4aQWfy7o/NQRjLj5uesN9Xs3kXdY2ty46BQwr2dvRquyXJjWYWYGP
eol+Sz8A9HF/iPQ1q+f8paM3qWtHARFwS18tmTSe6gaZG5rRsS7wnoTAfY1K5Lj1
BI5E1ie/Vu+Wa/2XEjwejACG4qKUEXkSFxAY5DZ9dlUzAmlJWeHKdN7Qil0v30j4
YrS/iveGOalp2EvInG5thf7Ia1HBkv+FHSR7XiNEWuvUe3cTgoYNQTrrl8dHw9c6
eLmCtxUEnGohCQimOsUlYoW+YL0b3YSLfFtEaJGimxd5y/NjkhwbHqZGL2lN9a1U
FkQMU0Yg3V2Zb+TqrMh1dqp2iZwXyqCWn2zvDDxo
-----END CERTIFICATE-----
